

HI-TECH Software PIC PRO Macro Assembler V9.83 build 10920 
                                                                                               Sat Nov 01 07:45:22 2014

HI-TECH Software Omniscient Code Generator (PRO mode) build 10920
     1                           	processor	16F914
     2                           	opt	pw 120
     3                           	opt	pm
     4                           	psect	config,global,class=CONFIG,delta=2
     5                           	psect	idataBANK2,global,class=CODE,delta=2
     6                           	psect	stringtext,global,reloc=256,class=STRCODE,delta=2
     7                           	psect	cinit,global,class=CODE,delta=2
     8                           	psect	bssCOMMON,global,class=COMMON,space=1,delta=1
     9                           	psect	bssBANK0,global,class=BANK0,space=1,delta=1
    10                           	psect	bssBANK1,global,class=BANK1,space=1,delta=1
    11                           	psect	dataBANK2,global,class=BANK2,space=1,delta=1
    12                           	psect	clrtext,global,class=CODE,delta=2
    13                           	psect	inittext,global,class=CODE,delta=2
    14                           	psect	cstackBANK1,global,class=BANK1,space=1,delta=1
    15                           	psect	cstackCOMMON,global,class=COMMON,space=1,delta=1
    16                           	psect	cstackBANK0,global,class=BANK0,space=1,delta=1
    17                           	psect	maintext,global,class=CODE,delta=2
    18                           	psect	text804,local,class=CODE,delta=2
    19                           	psect	text810,local,class=CODE,delta=2
    20                           	psect	text825,local,class=CODE,delta=2
    21                           	psect	text826,local,class=CODE,delta=2
    22                           	psect	text828,local,class=CODE,delta=2
    23                           	psect	text829,local,class=CODE,delta=2
    24                           	psect	intentry,global,class=CODE,delta=2
    25                           	psect	text830,local,class=CODE,delta=2
    26                           	psect	pa_nodes,global,class=CODE,delta=2
    27                           	dabs	1,0x7E,2
    28  000A                     	;#
    29                           
    30                           	psect	config
    31  2007  EB92               	dw	60306	;#
    32                           
    33                           	psect	idataBANK2
    34  07A7                     __pidataBANK2:	
    35                           
    36                           ;initializer for myitoa@szMap
    37  07A7  3430               	retlw	48
    38  07A8  3431               	retlw	49
    39  07A9  3432               	retlw	50
    40  07AA  3433               	retlw	51
    41  07AB  3434               	retlw	52
    42  07AC  3435               	retlw	53
    43  07AD  3436               	retlw	54
    44  07AE  3437               	retlw	55
    45  07AF  3438               	retlw	56
    46  07B0  3439               	retlw	57
    47  07B1  3461               	retlw	97
    48  07B2  3462               	retlw	98
    49  07B3  3463               	retlw	99
    50  07B4  3464               	retlw	100
    51  07B5  3465               	retlw	101
    52  07B6  3466               	retlw	102
    53  07B7  3467               	retlw	103
    54  07B8  3468               	retlw	104
    55  07B9  3469               	retlw	105
    56  07BA  346A               	retlw	106
    57  07BB  346B               	retlw	107
    58  07BC  346C               	retlw	108
    59  07BD  346D               	retlw	109
    60  07BE  346E               	retlw	110
    61  07BF  346F               	retlw	111
    62  07C0  3470               	retlw	112
    63  07C1  3471               	retlw	113
    64  07C2  3472               	retlw	114
    65  07C3  3473               	retlw	115
    66  07C4  3474               	retlw	116
    67  07C5  3475               	retlw	117
    68  07C6  3476               	retlw	118
    69  07C7  3477               	retlw	119
    70  07C8  3478               	retlw	120
    71  07C9  3479               	retlw	121
    72  07CA  347A               	retlw	122
    73                           
    74                           	psect	stringtext
    75  0600                     __pstringtext:	
    76  0600                     stringtab:	
    77                           ;	global	stringtab,__stringbase
    78                           
    79                           
    80                           ;	String table - string pointers are 2 bytes each
    81  0600  1BFF               	btfsc	btemp+1,7
    82  0601  2E0A               	ljmp	stringcode
    83  0602  1383               	bcf	3,7
    84  0603  187F               	btfsc	btemp+1,0
    85  0604  1783               	bsf	3,7
    86  0605  0800               	movf	0,w
    87  0606  0A84               	incf	4,f
    88  0607  1903               	skipnz
    89  0608  0AFF               	incf	btemp+1,f
    90  0609  0008               	return
    91  060A                     stringcode:	
    92  060A  087F               	movf	btemp+1,w
    93  060B  397F               	andlw	127
    94  060C  008A               	movwf	10
    95  060D  0804               	movf	4,w
    96  060E  0A84               	incf	4,f
    97  060F  1903               	skipnz
    98  0610  0AFF               	incf	btemp+1,f
    99  0611  0082               	movwf	2
   100  0612                     __stringbase:	
   101  0612                     _addr_tab:	
   102  0612  3480               	retlw	128
   103  0613  3481               	retlw	129
   104  0614  3482               	retlw	130
   105  0615  3483               	retlw	131
   106  0616  3484               	retlw	132
   107  0617  3485               	retlw	133
   108  0618  3486               	retlw	134
   109  0619  3487               	retlw	135
   110  061A  3490               	retlw	144
   111  061B  3491               	retlw	145
   112  061C  3492               	retlw	146
   113  061D  3493               	retlw	147
   114  061E  3494               	retlw	148
   115  061F  3495               	retlw	149
   116  0620  3496               	retlw	150
   117  0621  3497               	retlw	151
   118  0622  3488               	retlw	136
   119  0623  3489               	retlw	137
   120  0624  348A               	retlw	138
   121  0625  348B               	retlw	139
   122  0626  348C               	retlw	140
   123  0627  348D               	retlw	141
   124  0628  348E               	retlw	142
   125  0629  348F               	retlw	143
   126  062A  3498               	retlw	152
   127  062B  3499               	retlw	153
   128  062C  349A               	retlw	154
   129  062D  349B               	retlw	155
   130  062E  349C               	retlw	156
   131  062F  349D               	retlw	157
   132  0630  349E               	retlw	158
   133  0631  349F               	retlw	159
   134  0010                     _T1CON	set	16
   135  0001                     _TMR0	set	1
   136  000F                     _TMR1H	set	15
   137  000E                     _TMR1L	set	14
   138  005F                     _GIE	set	95
   139  0040                     _RD0	set	64
   140  0041                     _RD1	set	65
   141  0042                     _RD2	set	66
   142  0043                     _RD3	set	67
   143  0044                     _RD4	set	68
   144  0045                     _RD5	set	69
   145  0046                     _RD6	set	70
   146  0048                     _RE0	set	72
   147  0049                     _RE1	set	73
   148  004A                     _RE2	set	74
   149  005D                     _T0IE	set	93
   150  005A                     _T0IF	set	90
   151  0060                     _TMR1IF	set	96
   152  0091                     _ANSEL	set	145
   153  0408                     _PS0	set	1032
   154  0409                     _PS1	set	1033
   155  040A                     _PS2	set	1034
   156  040B                     _PSA	set	1035
   157  040D                     _T0CS	set	1037
   158  0460                     _TMR1IE	set	1120
   159  0440                     _TRISD0	set	1088
   160  0441                     _TRISD1	set	1089
   161  0442                     _TRISD2	set	1090
   162  0443                     _TRISD3	set	1091
   163  0444                     _TRISD4	set	1092
   164  0445                     _TRISD5	set	1093
   165  0446                     _TRISD6	set	1094
   166  0448                     _TRISE0	set	1096
   167  0449                     _TRISE1	set	1097
   168  044A                     _TRISE2	set	1098
   169  0632                     STR_14:	
   170  0632  34D7               	retlw	-41
   171  0633  34B4               	retlw	-76
   172  0634  34CC               	retlw	-52
   173  0635  34AC               	retlw	-84
   174  0636  343A               	retlw	58	;':'
   175  0637  3425               	retlw	37	;'%'
   176  0638  3464               	retlw	100	;'d'
   177  0639  3425               	retlw	37	;'%'
   178  063A  3464               	retlw	100	;'d'
   179  063B  3425               	retlw	37	;'%'
   180  063C  3464               	retlw	100	;'d'
   181  063D  3425               	retlw	37	;'%'
   182  063E  3464               	retlw	100	;'d'
   183  063F  3425               	retlw	37	;'%'
   184  0640  3464               	retlw	100	;'d'
   185  0641  3425               	retlw	37	;'%'
   186  0642  3464               	retlw	100	;'d'
   187  0643  3425               	retlw	37	;'%'
   188  0644  3464               	retlw	100	;'d'
   189  0645  3425               	retlw	37	;'%'
   190  0646  3464               	retlw	100	;'d'
   191  0647  3425               	retlw	37	;'%'
   192  0648  3464               	retlw	100	;'d'
   193  0649  3425               	retlw	37	;'%'
   194  064A  3464               	retlw	100	;'d'
   195  064B  3400               	retlw	0
   196  064C                     STR_13:	
   197  064C  34B1               	retlw	-79
   198  064D  34E0               	retlw	-32
   199  064E  34BA               	retlw	-70
   200  064F  34C5               	retlw	-59
   201  0650  343A               	retlw	58	;':'
   202  0651  3425               	retlw	37	;'%'
   203  0652  3464               	retlw	100	;'d'
   204  0653  3425               	retlw	37	;'%'
   205  0654  3464               	retlw	100	;'d'
   206  0655  3425               	retlw	37	;'%'
   207  0656  3464               	retlw	100	;'d'
   208  0657  3425               	retlw	37	;'%'
   209  0658  3464               	retlw	100	;'d'
   210  0659  3425               	retlw	37	;'%'
   211  065A  3464               	retlw	100	;'d'
   212  065B  3425               	retlw	37	;'%'
   213  065C  3464               	retlw	100	;'d'
   214  065D  3425               	retlw	37	;'%'
   215  065E  3464               	retlw	100	;'d'
   216  065F  3425               	retlw	37	;'%'
   217  0660  3464               	retlw	100	;'d'
   218  0661  3425               	retlw	37	;'%'
   219  0662  3464               	retlw	100	;'d'
   220  0663  3425               	retlw	37	;'%'
   221  0664  3464               	retlw	100	;'d'
   222  0665  3400               	retlw	0
   223  0666                     STR_12:	
   224  0666  34C9               	retlw	-55
   225  0667  34E8               	retlw	-24
   226  0668  34B1               	retlw	-79
   227  0669  34B8               	retlw	-72
   228  066A  34BA               	retlw	-70
   229  066B  34C5               	retlw	-59
   230  066C  343B               	retlw	59	;';'
   231  066D  3425               	retlw	37	;'%'
   232  066E  3464               	retlw	100	;'d'
   233  066F  3425               	retlw	37	;'%'
   234  0670  3464               	retlw	100	;'d'
   235  0671  3425               	retlw	37	;'%'
   236  0672  3464               	retlw	100	;'d'
   237  0673  3425               	retlw	37	;'%'
   238  0674  3464               	retlw	100	;'d'
   239  0675  3425               	retlw	37	;'%'
   240  0676  3464               	retlw	100	;'d'
   241  0677  3425               	retlw	37	;'%'
   242  0678  3464               	retlw	100	;'d'
   243  0679  3425               	retlw	37	;'%'
   244  067A  3464               	retlw	100	;'d'
   245  067B  3425               	retlw	37	;'%'
   246  067C  3464               	retlw	100	;'d'
   247  067D  3400               	retlw	0
   248  067E                     STR_9:	
   249  067E  34CB               	retlw	-53
   250  067F  34A2               	retlw	-94
   251  0680  34BD               	retlw	-67
   252  0681  34BA               	retlw	-70
   253  0682  343A               	retlw	58	;':'
   254  0683  3425               	retlw	37	;'%'
   255  0684  3464               	retlw	100	;'d'
   256  0685  3425               	retlw	37	;'%'
   257  0686  3464               	retlw	100	;'d'
   258  0687  3444               	retlw	68	;'D'
   259  0688  34CB               	retlw	-53
   260  0689  34A2               	retlw	-94
   261  068A  34C1               	retlw	-63
   262  068B  34CF               	retlw	-49
   263  068C  343A               	retlw	58	;':'
   264  068D  3425               	retlw	37	;'%'
   265  068E  3464               	retlw	100	;'d'
   266  068F  3425               	retlw	37	;'%'
   267  0690  3464               	retlw	100	;'d'
   268  0691  3441               	retlw	65	;'A'
   269  0692  3400               	retlw	0
   270  0693                     STR_10:	
   271  0693  34C6               	retlw	-58
   272  0694  34F4               	retlw	-12
   273  0695  34B6               	retlw	-74
   274  0696  34AF               	retlw	-81
   275  0697  343A               	retlw	58	;':'
   276  0698  3425               	retlw	37	;'%'
   277  0699  3464               	retlw	100	;'d'
   278  069A  3425               	retlw	37	;'%'
   279  069B  3464               	retlw	100	;'d'
   280  069C  3443               	retlw	67	;'C'
   281  069D  34B7               	retlw	-73
   282  069E  34B5               	retlw	-75
   283  069F  34BB               	retlw	-69
   284  06A0  34D8               	retlw	-40
   285  06A1  343A               	retlw	58	;':'
   286  06A2  3425               	retlw	37	;'%'
   287  06A3  3464               	retlw	100	;'d'
   288  06A4  3425               	retlw	37	;'%'
   289  06A5  3464               	retlw	100	;'d'
   290  06A6  3443               	retlw	67	;'C'
   291  06A7  3400               	retlw	0
   292  06A8                     STR_8:	
   293  06A8  34D5               	retlw	-43
   294  06A9  34C5               	retlw	-59
   295  06AA  34CA               	retlw	-54
   296  06AB  34FD               	retlw	-3
   297  06AC  34C9               	retlw	-55
   298  06AD  34E8               	retlw	-24
   299  06AE  34B6               	retlw	-74
   300  06AF  34A8               	retlw	-88
   301  06B0  343A               	retlw	58	;':'
   302  06B1  3425               	retlw	37	;'%'
   303  06B2  3464               	retlw	100	;'d'
   304  06B3  3425               	retlw	37	;'%'
   305  06B4  3464               	retlw	100	;'d'
   306  06B5  3425               	retlw	37	;'%'
   307  06B6  3464               	retlw	100	;'d'
   308  06B7  3425               	retlw	37	;'%'
   309  06B8  3464               	retlw	100	;'d'
   310  06B9  3400               	retlw	0
   311  06BA                     STR_1:	
   312  06BA  34CF               	retlw	-49
   313  06BB  34C3               	retlw	-61
   314  06BC  34C3               	retlw	-61
   315  06BD  34C5               	retlw	-59
   316  06BE  34B5               	retlw	-75
   317  06BF  34E7               	retlw	-25
   318  06C0  34D7               	retlw	-41
   319  06C1  34D3               	retlw	-45
   320  06C2  34BF               	retlw	-65
   321  06C3  34C6               	retlw	-58
   322  06C4  34BC               	retlw	-68
   323  06C5  34BC               	retlw	-68
   324  06C6  34B9               	retlw	-71
   325  06C7  34AB               	retlw	-85
   326  06C8  34CB               	retlw	-53
   327  06C9  34BE               	retlw	-66
   328  06CA  3400               	retlw	0
   329  06CB                     STR_4:	
   330  06CB  34D5               	retlw	-43
   331  06CC  34C5               	retlw	-59
   332  06CD  34CA               	retlw	-54
   333  06CE  34FD               	retlw	-3
   334  06CF  343A               	retlw	58	;':'
   335  06D0  3425               	retlw	37	;'%'
   336  06D1  3464               	retlw	100	;'d'
   337  06D2  3425               	retlw	37	;'%'
   338  06D3  3464               	retlw	100	;'d'
   339  06D4  3425               	retlw	37	;'%'
   340  06D5  3464               	retlw	100	;'d'
   341  06D6  3425               	retlw	37	;'%'
   342  06D7  3464               	retlw	100	;'d'
   343  06D8  3400               	retlw	0
   344  06D9                     STR_3:	
   345  06D9  34D5               	retlw	-43
   346  06DA  34C5               	retlw	-59
   347  06DB  34CA               	retlw	-54
   348  06DC  34FD               	retlw	-3
   349  06DD  34C7               	retlw	-57
   350  06DE  34E5               	retlw	-27
   351  06DF  34C1               	retlw	-63
   352  06E0  34E3               	retlw	-29
   353  06E1  343A               	retlw	58	;':'
   354  06E2  3425               	retlw	37	;'%'
   355  06E3  3464               	retlw	100	;'d'
   356  06E4  3453               	retlw	83	;'S'
   357  06E5  3400               	retlw	0
   358  06E6                     STR_6:	
   359  06E6  34CD               	retlw	-51
   360  06E7  34A3               	retlw	-93
   361  06E8  34D6               	retlw	-42
   362  06E9  34B9               	retlw	-71
   363  06EA  34BC               	retlw	-68
   364  06EB  34FC               	retlw	-4
   365  06EC  343B               	retlw	59	;';'
   366  06ED  34CD               	retlw	-51
   367  06EE  34A3               	retlw	-93
   368  06EF  34D6               	retlw	-42
   369  06F0  34B9               	retlw	-71
   370  06F1  3400               	retlw	0
   371  06F2                     STR_5:	
   372  06F2  34C8               	retlw	-56
   373  06F3  34B7               	retlw	-73
   374  06F4  34C8               	retlw	-56
   375  06F5  34CF               	retlw	-49
   376  06F6  34BC               	retlw	-68
   377  06F7  34FC               	retlw	-4
   378  06F8  343B               	retlw	59	;';'
   379  06F9  34C8               	retlw	-56
   380  06FA  34B7               	retlw	-73
   381  06FB  34C8               	retlw	-56
   382  06FC  34CF               	retlw	-49
   383  06FD  3400               	retlw	0
   384  06FE                     STR_2:	
   385  06FE  3430               	retlw	48	;'0'
   386  06FF  3435               	retlw	53	;'5'
   387  0700  3439               	retlw	57	;'9'
   388  0701  3432               	retlw	50	;'2'
   389  0702  3435               	retlw	53	;'5'
   390  0703  3431               	retlw	49	;'1'
   391  0704  3430               	retlw	48	;'0'
   392  0705  3430               	retlw	48	;'0'
   393  0706  3435               	retlw	53	;'5'
   394  0707  3432               	retlw	50	;'2'
   395  0708  3430               	retlw	48	;'0'
   396  0709  3400               	retlw	0
   397  070A                     STR_11:	
   398  070A  34B9               	retlw	-71
   399  070B  34A4               	retlw	-92
   400  070C  34B3               	retlw	-77
   401  070D  34A7               	retlw	-89
   402  070E  34C4               	retlw	-60
   403  070F  34A3               	retlw	-93
   404  0710  34CA               	retlw	-54
   405  0711  34BD               	retlw	-67
   406  0712  3400               	retlw	0
   407  0713                     STR_7:	
   408  0713  34C9               	retlw	-55
   409  0714  34E8               	retlw	-24
   410  0715  34D6               	retlw	-42
   411  0716  34C3               	retlw	-61
   412  0717  34B2               	retlw	-78
   413  0718  34CE               	retlw	-50
   414  0719  34CA               	retlw	-54
   415  071A  34FD               	retlw	-3
   416  071B  3400               	retlw	0
   417                           
   418                           	psect	cinit
   419  07CB                     start_initialization:	
   420  07CB  3068               	movlw	low __pbssBANK0
   421                           
   422                           ; Clear objects allocated to COMMON
   423  07CC  01FA               	clrf	__pbssCOMMON& (0+127)
   424  07CD  01FB               	clrf	(__pbssCOMMON+1)& (0+127)
   425                           
   426                           ; Clear objects allocated to BANK0
   427  07CE  1383               	bcf	3,7	;select IRP bank0
   428  07CF  0084               	movwf	4
   429  07D0  306F               	movlw	low (__pbssBANK0+7)
   430  07D1  118A  25F6  118A   	fcall	clear_ram
   431                           
   432                           ; Clear objects allocated to BANK1
   433  07D4  30A0               	movlw	low __pbssBANK1
   434  07D5  0084               	movwf	4
   435  07D6  30C8               	movlw	low (__pbssBANK1+40)
   436  07D7  118A  25F6  118A   	fcall	clear_ram
   437  07DA  3044               	movlw	low (__pdataBANK2+36)
   438                           
   439                           ; Initialize objects allocated to BANK2
   440  07DB  1783               	bsf	3,7	;select IRP bank2
   441  07DC  00FD               	movwf	125
   442  07DD  3007               	movlw	high __pidataBANK2
   443  07DE  00FE               	movwf	126
   444  07DF  30A7               	movlw	low __pidataBANK2
   445  07E0  00FF               	movwf	127
   446  07E1  3020               	movlw	low __pdataBANK2
   447  07E2  0084               	movwf	4
   448  07E3  118A  25DB         	fcall	init_ram
   449  07E5                     end_of_initialization:	
   450                           ;End of C runtime variable initialization code
   451                           
   452  07E5  0183               	clrf	3
   453  07E6  118A  2F4D         	ljmp	_main	;jump to C main() function
   454                           
   455                           	psect	bssCOMMON
   456  007A                     __pbssCOMMON:	
   457  007A                     Key_Debounce@ContKey:	
   458  007A                     	ds	2
   459                           
   460                           	psect	bssBANK0
   461  0068                     __pbssBANK0:	
   462  0068                     IRQ@TimeBase1:	
   463  0068                     	ds	1
   464  0069                     IRQ@TimeBase2:	
   465  0069                     	ds	1
   466  006A                     IRQ@TimeBase3:	
   467  006A                     	ds	1
   468  006B                     LcdMenu_Setup@Index:	
   469  006B                     	ds	1
   470  006C                     LcdMenu_Setup@Section:	
   471  006C                     	ds	1
   472  006D                     _u8_Timer_Flash:	
   473  006D                     	ds	1
   474  006E                     _u8_Timer_scan:	
   475  006E                     	ds	1
   476                           
   477                           	psect	bssBANK1
   478  00A0                     __pbssBANK1:	
   479  00A0                     _st_Event_EventMage:	
   480  00A0                     	ds	6
   481  00A6                     Key_Debounce@ContKeyBuf:	
   482  00A6                     	ds	2
   483  00A8                     Key_Debounce@KeyStateBuf:	
   484  00A8                     	ds	2
   485  00AA                     Key_Debounce@LongDebounce:	
   486  00AA                     	ds	2
   487  00AC                     IRQ@TimeBase4:	
   488  00AC                     	ds	1
   489  00AD                     Key_Debounce@ShortDebounce:	
   490  00AD                     	ds	1
   491  00AE                     _LcdMenu_StrTemp:	
   492  00AE                     	ds	20
   493  00C2                     _SetupParam:	
   494  00C2                     	ds	6
   495                           
   496                           	psect	dataBANK2
   497  0120                     __pdataBANK2:	
   498  0120                     myitoa@szMap:	
   499  0120                     	ds	36
   500                           
   501                           	psect	clrtext
   502  05F6                     clear_ram:	
   503                           ;	Called with FSR containing the base address, and
   504                           ;	W with the last address+1
   505                           
   506  05F6  0064               	clrwdt	;clear the watchdog before getting into this loop
   507  05F7                     clrloop:	
   508  05F7  0180               	clrf	0	;clear RAM location pointed to by FSR
   509  05F8  0A84               	incf	4,f	;increment pointer
   510  05F9  0604               	xorwf	4,w	;XOR with final address
   511  05FA  1903               	btfsc	3,2	;have we reached the end yet?
   512  05FB  3400               	retlw	0	;all done for this memory range, return
   513  05FC  0604               	xorwf	4,w	;XOR again to restore value
   514  05FD  2DF7               	goto	clrloop	;do the next byte
   515                           
   516                           	psect	inittext
   517  05D7                     init_fetch:	
   518                           ;	Called with low address in FSR and high address in W
   519                           
   520  05D7  087E               	movf	126,w
   521  05D8  008A               	movwf	10
   522  05D9  087F               	movf	127,w
   523  05DA  0082               	movwf	2
   524  05DB                     init_ram:	
   525                           ;Called with:
   526                           ;	high address of idata address in btemp 
   527                           ;	low address of idata address in btemp+1 
   528                           ;	low address of data in FSR
   529                           ;	high address + 1 of data in btemp-1
   530                           
   531  05DB  25D7  118A         	fcall	init_fetch
   532  05DD  0080               	movwf	0
   533  05DE  0A84               	incf	4,f
   534  05DF  0804               	movf	4,w
   535  05E0  067D               	xorwf	125,w
   536  05E1  1903               	btfsc	3,2
   537  05E2  3400               	retlw	0
   538  05E3  0AFF               	incf	127,f
   539  05E4  1903               	btfsc	3,2
   540  05E5  0AFE               	incf	126,f
   541  05E6  2DDB               	goto	init_ram
   542                           
   543                           	psect	cstackBANK1
   544  00C8                     __pcstackBANK1:	
   545  00C8                     LcdMenu_Setup@num:	
   546                           
   547                           ; 12 bytes @ 0x0
   548  00C8                     	ds	12
   549  00D4                     LcdMenu_Setup@KeyEvent:	
   550                           
   551                           ; 1 bytes @ 0xC
   552  00D4                     	ds	1
   553  00D5                     main@KeyTemp:	
   554                           
   555                           ; 2 bytes @ 0xD
   556  00D5                     	ds	2
   557  00D7                     main@Key:	
   558                           
   559                           ; 1 bytes @ 0xF
   560  00D7                     	ds	1
   561                           
   562                           	psect	cstackCOMMON
   563  0071                     __pcstackCOMMON:	
   564  0071                     ?_IRQ:	
   565  0071                     ??_IRQ:	
   566                           ; 0 bytes @ 0x0
   567                           
   568  0071                     ?_BspSystem_TmrInit:	
   569                           ; 0 bytes @ 0x0
   570                           
   571  0071                     ?_Key_PutEventToTail:	
   572                           ; 0 bytes @ 0x0
   573                           
   574  0071                     ?_SendByte:	
   575                           ; 0 bytes @ 0x0
   576                           
   577  0071                     ?_CheckBusy:	
   578                           ; 0 bytes @ 0x0
   579                           
   580  0071                     ?_Lcd_WriteCmd:	
   581                           ; 0 bytes @ 0x0
   582                           
   583  0071                     ?_Lcd_WriteData:	
   584                           ; 0 bytes @ 0x0
   585                           
   586  0071                     ?_Lcd_Init:	
   587                           ; 0 bytes @ 0x0
   588                           
   589  0071                     ?_LcdMenu_Welcome:	
   590                           ; 0 bytes @ 0x0
   591                           
   592  0071                     ?_main:	
   593                           ; 0 bytes @ 0x0
   594                           
   595  0071                     ?_Key_GetEvent:	
   596                           ; 0 bytes @ 0x0
   597                           
   598  0071                     ?_ReceiveByte:	
   599                           ; 1 bytes @ 0x0
   600                           
   601                           
   602                           ; 1 bytes @ 0x0
   603  0071                     	ds	2
   604  0073                     ??_BspSystem_TmrInit:	
   605  0073                     ??_Key_PutEventToTail:	
   606                           ; 0 bytes @ 0x2
   607                           
   608  0073                     ??_Key_GetEvent:	
   609                           ; 0 bytes @ 0x2
   610                           
   611  0073                     ?_delayms:	
   612                           ; 0 bytes @ 0x2
   613                           
   614  0073                     ??_SendByte:	
   615                           ; 0 bytes @ 0x2
   616                           
   617  0073                     ??_ReceiveByte:	
   618                           ; 0 bytes @ 0x2
   619                           
   620  0073                     ?_LcdMenu_NumMasK:	
   621                           ; 0 bytes @ 0x2
   622                           
   623  0073                     ?___bmul:	
   624                           ; 0 bytes @ 0x2
   625                           
   626  0073                     ?___lbdiv:	
   627                           ; 1 bytes @ 0x2
   628                           
   629  0073                     ?_Key_Scan:	
   630                           ; 1 bytes @ 0x2
   631                           
   632  0073                     ?___wmul:	
   633                           ; 2 bytes @ 0x2
   634                           
   635  0073                     ?___lwdiv:	
   636                           ; 2 bytes @ 0x2
   637                           
   638  0073                     ?___awdiv:	
   639                           ; 2 bytes @ 0x2
   640                           
   641  0073                     Key_PutEventToTail@key:	
   642                           ; 2 bytes @ 0x2
   643                           
   644  0073                     Key_GetEvent@key:	
   645                           ; 1 bytes @ 0x2
   646                           
   647  0073                     SendByte@Dbyte:	
   648                           ; 1 bytes @ 0x2
   649                           
   650  0073                     LcdMenu_NumMasK@MaskBit:	
   651                           ; 1 bytes @ 0x2
   652                           
   653  0073                     ___bmul@multiplicand:	
   654                           ; 1 bytes @ 0x2
   655                           
   656  0073                     ___lbdiv@divisor:	
   657                           ; 1 bytes @ 0x2
   658                           
   659  0073                     delayms@t:	
   660                           ; 1 bytes @ 0x2
   661                           
   662  0073                     ___wmul@multiplier:	
   663                           ; 2 bytes @ 0x2
   664                           
   665  0073                     ___lwdiv@divisor:	
   666                           ; 2 bytes @ 0x2
   667                           
   668  0073                     ___awdiv@divisor:	
   669                           ; 2 bytes @ 0x2
   670                           
   671                           
   672                           ; 2 bytes @ 0x2
   673  0073                     	ds	1
   674  0074                     ?_Key_PutEvent:	
   675  0074                     ??_LcdMenu_NumMasK:	
   676                           ; 0 bytes @ 0x3
   677                           
   678  0074                     ??___bmul:	
   679                           ; 0 bytes @ 0x3
   680                           
   681  0074                     ??___lbdiv:	
   682                           ; 0 bytes @ 0x3
   683                           
   684  0074                     SendByte@temp:	
   685                           ; 0 bytes @ 0x3
   686                           
   687  0074                     ReceiveByte@temp1:	
   688                           ; 1 bytes @ 0x3
   689                           
   690  0074                     ___bmul@product:	
   691                           ; 1 bytes @ 0x3
   692                           
   693  0074                     ___lbdiv@dividend:	
   694                           ; 1 bytes @ 0x3
   695                           
   696  0074                     Key_PutEvent@KeyValue:	
   697                           ; 1 bytes @ 0x3
   698                           
   699                           
   700                           ; 2 bytes @ 0x3
   701  0074                     	ds	1
   702  0075                     ??_Key_Scan:	
   703  0075                     ??_delayms:	
   704                           ; 0 bytes @ 0x4
   705                           
   706  0075                     delayms@i:	
   707                           ; 0 bytes @ 0x4
   708                           
   709  0075                     SendByte@i:	
   710                           ; 1 bytes @ 0x4
   711                           
   712  0075                     ReceiveByte@temp2:	
   713                           ; 1 bytes @ 0x4
   714                           
   715  0075                     LcdMenu_NumMasK@count:	
   716                           ; 1 bytes @ 0x4
   717                           
   718  0075                     ___bmul@multiplier:	
   719                           ; 1 bytes @ 0x4
   720                           
   721  0075                     ___lbdiv@counter:	
   722                           ; 1 bytes @ 0x4
   723                           
   724  0075                     Key_Scan@State:	
   725                           ; 1 bytes @ 0x4
   726                           
   727  0075                     ___wmul@multiplicand:	
   728                           ; 2 bytes @ 0x4
   729                           
   730  0075                     ___lwdiv@dividend:	
   731                           ; 2 bytes @ 0x4
   732                           
   733  0075                     ___awdiv@dividend:	
   734                           ; 2 bytes @ 0x4
   735                           
   736                           
   737                           ; 2 bytes @ 0x4
   738  0075                     	ds	1
   739  0076                     ??_Key_PutEvent:	
   740  0076                     Key_PutEvent@temp:	
   741                           ; 0 bytes @ 0x5
   742                           
   743  0076                     ReceiveByte@i:	
   744                           ; 1 bytes @ 0x5
   745                           
   746  0076                     LcdMenu_NumMasK@Str:	
   747                           ; 1 bytes @ 0x5
   748                           
   749  0076                     ___lbdiv@quotient:	
   750                           ; 1 bytes @ 0x5
   751                           
   752                           
   753                           ; 1 bytes @ 0x5
   754  0076                     	ds	1
   755  0077                     ?_Key_Debounce:	
   756  0077                     ??_CheckBusy:	
   757                           ; 0 bytes @ 0x6
   758                           
   759  0077                     ??___wmul:	
   760                           ; 0 bytes @ 0x6
   761                           
   762  0077                     ??___lwdiv:	
   763                           ; 0 bytes @ 0x6
   764                           
   765  0077                     ??___awdiv:	
   766                           ; 0 bytes @ 0x6
   767                           
   768  0077                     ?___lbmod:	
   769                           ; 0 bytes @ 0x6
   770                           
   771  0077                     LcdMenu_NumMasK@i:	
   772                           ; 1 bytes @ 0x6
   773                           
   774  0077                     ___lwdiv@counter:	
   775                           ; 1 bytes @ 0x6
   776                           
   777  0077                     ___lbmod@divisor:	
   778                           ; 1 bytes @ 0x6
   779                           
   780  0077                     Key_Debounce@KeyState:	
   781                           ; 1 bytes @ 0x6
   782                           
   783  0077                     ___wmul@product:	
   784                           ; 2 bytes @ 0x6
   785                           
   786                           
   787                           ; 2 bytes @ 0x6
   788  0077                     	ds	1
   789  0078                     ??_Lcd_WriteCmd:	
   790  0078                     ??_Lcd_WriteData:	
   791                           ; 0 bytes @ 0x7
   792                           
   793  0078                     ??___lbmod:	
   794                           ; 0 bytes @ 0x7
   795                           
   796  0078                     Lcd_WriteCmd@Cbyte:	
   797                           ; 0 bytes @ 0x7
   798                           
   799  0078                     Lcd_WriteData@Dbyte:	
   800                           ; 1 bytes @ 0x7
   801                           
   802  0078                     ___lwdiv@quotient:	
   803                           ; 1 bytes @ 0x7
   804                           
   805                           
   806                           ; 2 bytes @ 0x7
   807  0078                     	ds	1
   808  0079                     ??_Lcd_Init:	
   809  0079                     Lcd_StrDisp@x:	
   810                           ; 0 bytes @ 0x8
   811                           
   812                           
   813                           ; 1 bytes @ 0x8
   814  0079                     	ds	1
   815  007A                     ??_LcdMenu_Welcome:	
   816  007A                     ??_main:	
   817                           ; 0 bytes @ 0x9
   818                           
   819  007A                     ??___lwmod:	
   820                           ; 0 bytes @ 0x9
   821                           
   822                           
   823                           	psect	cstackBANK0
   824  0020                     __pcstackBANK0:	
   825                           ; 0 bytes @ 0x9
   826                           
   827  0020                     ??_Key_Debounce:	
   828  0020                     ?_Lcd_StrDisp:	
   829                           ; 0 bytes @ 0x0
   830                           
   831  0020                     ?___lwmod:	
   832                           ; 0 bytes @ 0x0
   833                           
   834  0020                     Lcd_StrDisp@y:	
   835                           ; 2 bytes @ 0x0
   836                           
   837  0020                     ___lbmod@dividend:	
   838                           ; 1 bytes @ 0x0
   839                           
   840  0020                     ___awdiv@counter:	
   841                           ; 1 bytes @ 0x0
   842                           
   843  0020                     ___lwmod@divisor:	
   844                           ; 1 bytes @ 0x0
   845                           
   846                           
   847                           ; 2 bytes @ 0x0
   848  0020                     	ds	1
   849  0021                     Lcd_StrDisp@s:	
   850  0021                     ___lbmod@counter:	
   851                           ; 1 bytes @ 0x1
   852                           
   853  0021                     ___awdiv@sign:	
   854                           ; 1 bytes @ 0x1
   855                           
   856                           
   857                           ; 1 bytes @ 0x1
   858  0021                     	ds	1
   859  0022                     ??_Lcd_StrDisp:	
   860  0022                     ___lbmod@rem:	
   861                           ; 0 bytes @ 0x2
   862                           
   863  0022                     Key_Debounce@TrigKey:	
   864                           ; 1 bytes @ 0x2
   865                           
   866  0022                     ___lwmod@dividend:	
   867                           ; 2 bytes @ 0x2
   868                           
   869  0022                     ___awdiv@quotient:	
   870                           ; 2 bytes @ 0x2
   871                           
   872                           
   873                           ; 2 bytes @ 0x2
   874  0022                     	ds	2
   875  0024                     ___lwmod@counter:	
   876                           
   877                           ; 1 bytes @ 0x4
   878  0024                     	ds	1
   879  0025                     ?_myitoa:	
   880  0025                     myitoa@value:	
   881                           ; 1 bytes @ 0x5
   882                           
   883                           
   884                           ; 2 bytes @ 0x5
   885  0025                     	ds	2
   886  0027                     myitoa@str:	
   887                           
   888                           ; 1 bytes @ 0x7
   889  0027                     	ds	1
   890  0028                     myitoa@radix:	
   891                           
   892                           ; 2 bytes @ 0x8
   893  0028                     	ds	2
   894  002A                     ??_myitoa:	
   895                           
   896                           ; 0 bytes @ 0xA
   897  002A                     	ds	4
   898  002E                     myitoa@nTemp:	
   899                           
   900                           ; 1 bytes @ 0xE
   901  002E                     	ds	1
   902  002F                     myitoa@nValue:	
   903                           
   904                           ; 2 bytes @ 0xF
   905  002F                     	ds	2
   906  0031                     myitoa@nCount:	
   907                           
   908                           ; 2 bytes @ 0x11
   909  0031                     	ds	2
   910  0033                     myitoa@nIndex:	
   911                           
   912                           ; 2 bytes @ 0x13
   913  0033                     	ds	2
   914  0035                     myitoa@pStr:	
   915                           
   916                           ; 1 bytes @ 0x15
   917  0035                     	ds	1
   918  0036                     ?_LcdMenu_VPrintf:	
   919  0036                     LcdMenu_VPrintf@String:	
   920                           ; 0 bytes @ 0x16
   921                           
   922                           
   923                           ; 2 bytes @ 0x16
   924  0036                     	ds	10
   925  0040                     ??_LcdMenu_VPrintf:	
   926                           
   927                           ; 0 bytes @ 0x20
   928  0040                     	ds	1
   929  0041                     LcdMenu_VPrintf@StrBuf:	
   930                           
   931                           ; 20 bytes @ 0x21
   932  0041                     	ds	20
   933  0055                     LcdMenu_VPrintf@d1:	
   934                           
   935                           ; 2 bytes @ 0x35
   936  0055                     	ds	2
   937  0057                     LcdMenu_VPrintf@d2:	
   938                           
   939                           ; 2 bytes @ 0x37
   940  0057                     	ds	2
   941  0059                     LcdMenu_VPrintf@ch:	
   942                           
   943                           ; 1 bytes @ 0x39
   944  0059                     	ds	1
   945  005A                     LcdMenu_VPrintf@p_Str:	
   946                           
   947                           ; 1 bytes @ 0x3A
   948  005A                     	ds	1
   949  005B                     LcdMenu_VPrintf@pv_Start:	
   950                           
   951                           ; 1 bytes @ 0x3B
   952  005B                     	ds	1
   953  005C                     LcdMenu_VPrintf@i:	
   954                           
   955                           ; 1 bytes @ 0x3C
   956  005C                     	ds	1
   957  005D                     LcdMenu_VPrintf@index:	
   958                           
   959                           ; 2 bytes @ 0x3D
   960  005D                     	ds	2
   961  005F                     ?_LcdMenu_Setup:	
   962  005F                     LcdMenu_Setup@pParam:	
   963                           ; 0 bytes @ 0x3F
   964                           
   965                           
   966                           ; 1 bytes @ 0x3F
   967  005F                     	ds	1
   968  0060                     ??_LcdMenu_Setup:	
   969                           
   970                           ; 0 bytes @ 0x40
   971  0060                     	ds	8
   972                           
   973                           	psect	maintext
   974  074D                     __pmaintext:	
   975 ;;Data sizes: Strings 234, constant 32, data 36, bss 49, persistent 0 stack 0
   976 ;;Auto spaces:   Size  Autos    Used
   977 ;; COMMON          13      9      11
   978 ;; BANK0           80     72      79
   979 ;; BANK1           80     16      56
   980 ;; BANK2           69      0      36
   981 ;;
   982 ;; Pointer list with targets:
   983 ;; ?___wmul	unsigned int  size(1) Largest target is 0
   984 ;;
   985 ;; ?_myitoa	PTR unsigned char  size(1) Largest target is 20
   986 ;;		 -> LcdMenu_VPrintf@StrBuf(BANK0[20]), 
   987 ;;
   988 ;; ?___awdiv	int  size(1) Largest target is 0
   989 ;;
   990 ;; ?___lwdiv	unsigned int  size(1) Largest target is 0
   991 ;;
   992 ;; ?___lwmod	unsigned int  size(1) Largest target is 0
   993 ;;
   994 ;; ?_Key_Scan	unsigned short  size(1) Largest target is 0
   995 ;;
   996 ;; LcdMenu_Setup@pParam	PTR struct . size(1) Largest target is 6
   997 ;;		 -> SetupParam(BANK1[6]), 
   998 ;;
   999 ;; LcdMenu_NumMasK@Str	PTR unsigned char  size(1) Largest target is 20
  1000 ;;		 -> LcdMenu_StrTemp(BANK1[20]), 
  1001 ;;
  1002 ;; LcdMenu_VPrintf@p_Str	PTR const unsigned char  size(1) Largest target is 0
  1003 ;;
  1004 ;; LcdMenu_VPrintf@String	PTR const unsigned char  size(2) Largest target is 26
  1005 ;;		 -> STR_14(CODE[26]), STR_13(CODE[26]), STR_12(CODE[24]), STR_11(CODE[9]), 
  1006 ;;		 -> STR_10(CODE[21]), STR_9(CODE[21]), STR_8(CODE[18]), STR_7(CODE[9]), 
  1007 ;;		 -> STR_6(CODE[12]), STR_5(CODE[12]), STR_4(CODE[14]), STR_3(CODE[13]), 
  1008 ;;		 -> STR_2(CODE[12]), STR_1(CODE[17]), 
  1009 ;;
  1010 ;; ?_LcdMenu_VPrintf	void  size(1) Largest target is 0
  1011 ;;
  1012 ;; LcdMenu_VPrintf@pv_Start	PTR void [1] size(1) Largest target is 0
  1013 ;;		 -> ?_LcdMenu_VPrintf(BANK0[0]), 
  1014 ;;
  1015 ;; sp__myitoa	PTR unsigned char  size(1) Largest target is 20
  1016 ;;		 -> LcdMenu_VPrintf@StrBuf(BANK0[20]), 
  1017 ;;
  1018 ;; myitoa@str	PTR unsigned char  size(1) Largest target is 20
  1019 ;;		 -> LcdMenu_VPrintf@StrBuf(BANK0[20]), 
  1020 ;;
  1021 ;; myitoa@pStr	PTR unsigned char  size(1) Largest target is 20
  1022 ;;		 -> LcdMenu_VPrintf@StrBuf(BANK0[20]), 
  1023 ;;
  1024 ;; Lcd_StrDisp@s	PTR const unsigned char  size(1) Largest target is 20
  1025 ;;		 -> LcdMenu_StrTemp(BANK1[20]), 
  1026 ;;
  1027 ;;
  1028 ;; Critical Paths under _main in COMMON
  1029 ;;
  1030 ;;   _LcdMenu_Setup->___lwdiv
  1031 ;;   _LcdMenu_Setup->_Lcd_StrDisp
  1032 ;;   _LcdMenu_Welcome->_Lcd_StrDisp
  1033 ;;   _Lcd_StrDisp->_Lcd_WriteCmd
  1034 ;;   _Lcd_StrDisp->_Lcd_WriteData
  1035 ;;   _Lcd_Init->_Lcd_WriteCmd
  1036 ;;   _Lcd_WriteData->_CheckBusy
  1037 ;;   _Lcd_WriteCmd->_CheckBusy
  1038 ;;   _Key_Debounce->_Key_PutEvent
  1039 ;;   _myitoa->___lwdiv
  1040 ;;   _CheckBusy->_ReceiveByte
  1041 ;;   _Key_PutEvent->_Key_PutEventToTail
  1042 ;;   ___lbmod->___lbdiv
  1043 ;;   ___lwmod->___lwdiv
  1044 ;;
  1045 ;; Critical Paths under _IRQ in COMMON
  1046 ;;
  1047 ;;   None.
  1048 ;;
  1049 ;; Critical Paths under _main in BANK0
  1050 ;;
  1051 ;;   _main->_LcdMenu_Setup
  1052 ;;   _LcdMenu_Setup->_LcdMenu_VPrintf
  1053 ;;   _LcdMenu_Welcome->_LcdMenu_VPrintf
  1054 ;;   _LcdMenu_VPrintf->_myitoa
  1055 ;;   _myitoa->___lwmod
  1056 ;;
  1057 ;; Critical Paths under _IRQ in BANK0
  1058 ;;
  1059 ;;   None.
  1060 ;;
  1061 ;; Critical Paths under _main in BANK1
  1062 ;;
  1063 ;;   _main->_LcdMenu_Setup
  1064 ;;
  1065 ;; Critical Paths under _IRQ in BANK1
  1066 ;;
  1067 ;;   None.
  1068 ;;
  1069 ;; Critical Paths under _main in BANK2
  1070 ;;
  1071 ;;   None.
  1072 ;;
  1073 ;; Critical Paths under _IRQ in BANK2
  1074 ;;
  1075 ;;   None.
  1076 ;;
  1077 ;;Main: autosize = 0, tempsize = 0, incstack = 0, save=0
  1078 ;;
  1079 ;;
  1080 ;;Call Graph Tables:
  1081 ;;
  1082 ;; ---------------------------------------------------------------------------------
  1083 ;; (Depth) Function   	        Calls       Base Space   Used Autos Params    Refs
  1084 ;; ---------------------------------------------------------------------------------
  1085 ;; (0) _main                                                 6     6      0   13544
  1086 ;;                                             13 BANK1      3     3      0
  1087 ;;                           _Lcd_Init
  1088 ;;                  _BspSystem_TmrInit
  1089 ;;                    _LcdMenu_Welcome
  1090 ;;                            _delayms
  1091 ;;                           _Key_Scan
  1092 ;;                       _Key_Debounce
  1093 ;;                       _Key_GetEvent
  1094 ;;                      _LcdMenu_Setup
  1095 ;; ---------------------------------------------------------------------------------
  1096 ;; (1) _LcdMenu_Setup                                       23    22      1    8043
  1097 ;;                                             63 BANK0      9     8      1
  1098 ;;                                              0 BANK1     13    13      0
  1099 ;;                            ___lwmod
  1100 ;;                            ___lwdiv
  1101 ;;                            ___lbmod
  1102 ;;                            ___lbdiv
  1103 ;;                             ___wmul
  1104 ;;                             ___bmul
  1105 ;;                    _LcdMenu_VPrintf
  1106 ;;                        _Lcd_StrDisp
  1107 ;;                    _LcdMenu_NumMasK
  1108 ;; ---------------------------------------------------------------------------------
  1109 ;; (1) _LcdMenu_Welcome                                      0     0      0    4221
  1110 ;;                    _LcdMenu_VPrintf
  1111 ;;                        _Lcd_StrDisp
  1112 ;; ---------------------------------------------------------------------------------
  1113 ;; (2) _Lcd_StrDisp                                          6     4      2    1227
  1114 ;;                                              8 COMMON     1     1      0
  1115 ;;                                              0 BANK0      5     3      2
  1116 ;;                       _Lcd_WriteCmd
  1117 ;;                      _Lcd_WriteData
  1118 ;; ---------------------------------------------------------------------------------
  1119 ;; (1) _Lcd_Init                                             0     0      0     649
  1120 ;;                            _delayms
  1121 ;;                       _Lcd_WriteCmd
  1122 ;; ---------------------------------------------------------------------------------
  1123 ;; (2) _LcdMenu_VPrintf                                     41    31     10    2994
  1124 ;;                                             22 BANK0     41    31     10
  1125 ;;                             _myitoa
  1126 ;; ---------------------------------------------------------------------------------
  1127 ;; (3) _Lcd_WriteData                                        1     1      0     550
  1128 ;;                                              7 COMMON     1     1      0
  1129 ;;                          _CheckBusy
  1130 ;;                           _SendByte
  1131 ;; ---------------------------------------------------------------------------------
  1132 ;; (3) _Lcd_WriteCmd                                         1     1      0     550
  1133 ;;                                              7 COMMON     1     1      0
  1134 ;;                          _CheckBusy
  1135 ;;                           _SendByte
  1136 ;; ---------------------------------------------------------------------------------
  1137 ;; (1) _Key_Debounce                                         6     4      2     360
  1138 ;;                                              6 COMMON     2     0      2
  1139 ;;                                              0 BANK0      4     4      0
  1140 ;;                       _Key_PutEvent
  1141 ;; ---------------------------------------------------------------------------------
  1142 ;; (3) _myitoa                                              17    12      5    1879
  1143 ;;                                              5 BANK0     17    12      5
  1144 ;;                            ___lwmod
  1145 ;;                            ___lwdiv
  1146 ;;                            ___awdiv
  1147 ;; ---------------------------------------------------------------------------------
  1148 ;; (4) _CheckBusy                                            1     1      0     352
  1149 ;;                                              6 COMMON     1     1      0
  1150 ;;                           _SendByte
  1151 ;;                        _ReceiveByte
  1152 ;; ---------------------------------------------------------------------------------
  1153 ;; (2) _Key_PutEvent                                         3     1      2     165
  1154 ;;                                              3 COMMON     3     1      2
  1155 ;;                 _Key_PutEventToTail
  1156 ;; ---------------------------------------------------------------------------------
  1157 ;; (4) ___awdiv                                              8     4      4     445
  1158 ;;                                              2 COMMON     4     0      4
  1159 ;;                                              0 BANK0      4     4      0
  1160 ;; ---------------------------------------------------------------------------------
  1161 ;; (2) ___lbmod                                              5     4      1     232
  1162 ;;                                              6 COMMON     2     1      1
  1163 ;;                                              0 BANK0      3     3      0
  1164 ;;                            ___lbdiv (ARG)
  1165 ;; ---------------------------------------------------------------------------------
  1166 ;; (2) ___lbdiv                                              4     3      1     241
  1167 ;;                                              2 COMMON     4     3      1
  1168 ;; ---------------------------------------------------------------------------------
  1169 ;; (4) ___lwmod                                              5     1      4     232
  1170 ;;                                              0 BANK0      5     1      4
  1171 ;;                            ___lwdiv (ARG)
  1172 ;; ---------------------------------------------------------------------------------
  1173 ;; (4) ___lwdiv                                              7     3      4     241
  1174 ;;                                              2 COMMON     7     3      4
  1175 ;; ---------------------------------------------------------------------------------
  1176 ;; (2) ___wmul                                               6     2      4     136
  1177 ;;                                              2 COMMON     6     2      4
  1178 ;; ---------------------------------------------------------------------------------
  1179 ;; (2) ___bmul                                               3     2      1     136
  1180 ;;                                              2 COMMON     3     2      1
  1181 ;; ---------------------------------------------------------------------------------
  1182 ;; (2) _LcdMenu_NumMasK                                      5     4      1     452
  1183 ;;                                              2 COMMON     5     4      1
  1184 ;; ---------------------------------------------------------------------------------
  1185 ;; (5) _ReceiveByte                                          4     4      0     216
  1186 ;;                                              2 COMMON     4     4      0
  1187 ;; ---------------------------------------------------------------------------------
  1188 ;; (4) _SendByte                                             3     3      0     136
  1189 ;;                                              2 COMMON     3     3      0
  1190 ;; ---------------------------------------------------------------------------------
  1191 ;; (1) _delayms                                              3     1      2      99
  1192 ;;                                              2 COMMON     3     1      2
  1193 ;; ---------------------------------------------------------------------------------
  1194 ;; (1) _Key_Scan                                             4     2      2      70
  1195 ;;                                              2 COMMON     4     2      2
  1196 ;; ---------------------------------------------------------------------------------
  1197 ;; (1) _Key_GetEvent                                         1     1      0      34
  1198 ;;                                              2 COMMON     1     1      0
  1199 ;; ---------------------------------------------------------------------------------
  1200 ;; (3) _Key_PutEventToTail                                   1     1      0      31
  1201 ;;                                              2 COMMON     1     1      0
  1202 ;; ---------------------------------------------------------------------------------
  1203 ;; (1) _BspSystem_TmrInit                                    0     0      0       0
  1204 ;; ---------------------------------------------------------------------------------
  1205 ;; Estimated maximum stack depth 5
  1206 ;; ---------------------------------------------------------------------------------
  1207 ;; (Depth) Function   	        Calls       Base Space   Used Autos Params    Refs
  1208 ;; ---------------------------------------------------------------------------------
  1209 ;; (6) _IRQ                                                  2     2      0       0
  1210 ;;                                              0 COMMON     2     2      0
  1211 ;; ---------------------------------------------------------------------------------
  1212 ;; Estimated maximum stack depth 6
  1213 ;; ---------------------------------------------------------------------------------
  1214 ;; Call Graph Graphs:
  1215 ;; _main (ROOT)
  1216 ;;   _Lcd_Init
  1217 ;;     _delayms
  1218 ;;     _Lcd_WriteCmd
  1219 ;;       _CheckBusy
  1220 ;;         _SendByte
  1221 ;;         _ReceiveByte
  1222 ;;       _SendByte
  1223 ;;   _BspSystem_TmrInit
  1224 ;;   _LcdMenu_Welcome
  1225 ;;     _LcdMenu_VPrintf
  1226 ;;       _myitoa
  1227 ;;         ___lwmod
  1228 ;;           ___lwdiv (ARG)
  1229 ;;         ___lwdiv
  1230 ;;         ___awdiv
  1231 ;;     _Lcd_StrDisp
  1232 ;;       _Lcd_WriteCmd
  1233 ;;         _CheckBusy
  1234 ;;           _SendByte
  1235 ;;           _ReceiveByte
  1236 ;;         _SendByte
  1237 ;;       _Lcd_WriteData
  1238 ;;         _CheckBusy
  1239 ;;           _SendByte
  1240 ;;           _ReceiveByte
  1241 ;;         _SendByte
  1242 ;;   _delayms
  1243 ;;   _Key_Scan
  1244 ;;   _Key_Debounce
  1245 ;;     _Key_PutEvent
  1246 ;;       _Key_PutEventToTail
  1247 ;;   _Key_GetEvent
  1248 ;;   _LcdMenu_Setup
  1249 ;;     ___lwmod
  1250 ;;       ___lwdiv (ARG)
  1251 ;;     ___lwdiv
  1252 ;;     ___lbmod
  1253 ;;       ___lbdiv (ARG)
  1254 ;;     ___lbdiv
  1255 ;;     ___wmul
  1256 ;;     ___bmul
  1257 ;;     _LcdMenu_VPrintf
  1258 ;;       _myitoa
  1259 ;;         ___lwmod
  1260 ;;           ___lwdiv (ARG)
  1261 ;;         ___lwdiv
  1262 ;;         ___awdiv
  1263 ;;     _Lcd_StrDisp
  1264 ;;       _Lcd_WriteCmd
  1265 ;;         _CheckBusy
  1266 ;;           _SendByte
  1267 ;;           _ReceiveByte
  1268 ;;         _SendByte
  1269 ;;       _Lcd_WriteData
  1270 ;;         _CheckBusy
  1271 ;;           _SendByte
  1272 ;;           _ReceiveByte
  1273 ;;         _SendByte
  1274 ;;     _LcdMenu_NumMasK
  1275 ;;
  1276 ;; _IRQ (ROOT)
  1277 ;;
  1278 ;; Address spaces:
  1279 ;;Name               Size   Autos  Total    Cost      Usage
  1280 ;;SFR3                 0      0       0       4        0.0%
  1281 ;;BITSFR3              0      0       0       4        0.0%
  1282 ;;BANK2               45      0      24       9       52.2%
  1283 ;;BITBANK2            45      0       0       8        0.0%
  1284 ;;SFR2                 0      0       0       5        0.0%
  1285 ;;BITSFR2              0      0       0       5        0.0%
  1286 ;;SFR1                 0      0       0       2        0.0%
  1287 ;;BITSFR1              0      0       0       2        0.0%
  1288 ;;BANK1               50     10      38       7       70.0%
  1289 ;;BITBANK1            50      0       0       6        0.0%
  1290 ;;CODE                 0      0       0       0        0.0%
  1291 ;;DATA                 0      0      BB      10        0.0%
  1292 ;;ABS                  0      0      B6       4        0.0%
  1293 ;;NULL                 0      0       0       0        0.0%
  1294 ;;STACK                0      0       5       2        0.0%
  1295 ;;BANK0               50     48      4F       3       98.8%
  1296 ;;BITBANK0            50      0       0       5        0.0%
  1297 ;;SFR0                 0      0       0       1        0.0%
  1298 ;;BITSFR0              0      0       0       1        0.0%
  1299 ;;COMMON               D      9       B       1       84.6%
  1300 ;;BITCOMMON            D      0       0       0        0.0%
  1301 ;;EEDATA             100      0       0       0        0.0%
  1302                           
  1303                           
  1304 ;; *************** function _main *****************
  1305 ;; Defined at:
  1306 ;;		line 42 in file "Code/TestMain.c"
  1307 ;; Parameters:    Size  Location     Type
  1308 ;;		None
  1309 ;; Auto vars:     Size  Location     Type
  1310 ;;  KeyTemp         2   13[BANK1 ] unsigned short 
  1311 ;;  count           2    0        unsigned short 
  1312 ;;  Key             1   15[BANK1 ] unsigned char 
  1313 ;;  SystemMode      1    0        unsigned char 
  1314 ;; Return value:  Size  Location     Type
  1315 ;;		None               void
  1316 ;; Registers used:
  1317 ;;		wreg, fsr0l, fsr0h, status,2, status,0, btemp+1, pclath, cstack
  1318 ;; Tracked objects:
  1319 ;;		On entry : 17F/0
  1320 ;;		On exit  : 160/0
  1321 ;;		Unchanged: FFE00/0
  1322 ;; Data sizes:     COMMON   BANK0   BANK1   BANK2
  1323 ;;      Params:         0       0       0       0
  1324 ;;      Locals:         0       0       3       0
  1325 ;;      Temps:          0       0       0       0
  1326 ;;      Totals:         0       0       3       0
  1327 ;;Total ram usage:        3 bytes
  1328 ;; Hardware stack levels required when called:    6
  1329 ;; This function calls:
  1330 ;;		_Lcd_Init
  1331 ;;		_BspSystem_TmrInit
  1332 ;;		_LcdMenu_Welcome
  1333 ;;		_delayms
  1334 ;;		_Key_Scan
  1335 ;;		_Key_Debounce
  1336 ;;		_Key_GetEvent
  1337 ;;		_LcdMenu_Setup
  1338 ;; This function is called by:
  1339 ;;		Startup code after reset
  1340 ;; This function uses a non-reentrant model
  1341 ;;
  1342  074D                     _main:	
  1343                           
  1344                           ;TestMain.c: 46: u8 Key;
  1345                           ;TestMain.c: 48: Lcd_Init();
  1346                           
  1347                           ; Regs used in _main: [wreg-fsr0h+status,2+status,0+btemp+1+pclath+cstack]
  1348  074D  118A  2020  118A   	fcall	_Lcd_Init
  1349                           
  1350                           ;TestMain.c: 50: BspSystem_TmrInit();
  1351  0750  118A  27E8  118A   	fcall	_BspSystem_TmrInit
  1352                           
  1353                           ;TestMain.c: 51: LcdMenu_Welcome();
  1354  0753  118A  200D  118A   	fcall	_LcdMenu_Welcome
  1355                           
  1356                           ;TestMain.c: 52: delayms(1500);
  1357  0756  30DC               	movlw	220
  1358  0757  00F3               	movwf	?_delayms
  1359  0758  3005               	movlw	5
  1360  0759  00F4               	movwf	?_delayms+1
  1361  075A  118A  2046  118A   	fcall	_delayms
  1362  075D                     l14253:	
  1363                           
  1364                           ;TestMain.c: 55: {
  1365                           ;TestMain.c: 57: if(u8_Timer_scan)
  1366  075D  086E               	movf	_u8_Timer_scan,w
  1367  075E  1903               	btfsc	3,2
  1368  075F  2F6F               	goto	l14259
  1369                           
  1370                           ;TestMain.c: 58: {
  1371                           ;TestMain.c: 59: KeyTemp = Key_Scan();
  1372  0760  118A  271C  118A   	fcall	_Key_Scan
  1373  0763  0874               	movf	?_Key_Scan+1,w
  1374  0764  1683               	bsf	3,5	;RP0=1, select bank1
  1375  0765  00D6               	movwf	(main@KeyTemp+1)^(0+128)
  1376  0766  0873               	movf	?_Key_Scan,w
  1377  0767  00D5               	movwf	main@KeyTemp^(0+128)
  1378                           
  1379                           ;TestMain.c: 60: Key_Debounce(KeyTemp);
  1380  0768  0856               	movf	(main@KeyTemp+1)^(0+128),w
  1381  0769  00F8               	movwf	?_Key_Debounce+1
  1382  076A  0855               	movf	main@KeyTemp^(0+128),w
  1383  076B  00F7               	movwf	?_Key_Debounce
  1384  076C  158A  25F2  118A   	fcall	_Key_Debounce
  1385  076F                     l14259:	
  1386                           
  1387                           ;TestMain.c: 61: }
  1388                           ;TestMain.c: 63: Key = Key_GetEvent();
  1389  076F  118A  25E7  118A   	fcall	_Key_GetEvent
  1390  0772  00D7               	movwf	main@Key^(0+128)
  1391                           
  1392                           ;TestMain.c: 64: LcdMenu_Setup(Key,&SetupParam);
  1393  0773  30C2               	movlw	_SetupParam& (0+255)
  1394  0774  1283               	bcf	3,5	;RP0=0, select bank0
  1395  0775  00DF               	movwf	?_LcdMenu_Setup
  1396  0776  1683               	bsf	3,5	;RP0=1, select bank1
  1397  0777  0857               	movf	main@Key^(0+128),w
  1398  0778  118A  2058  118A   	fcall	_LcdMenu_Setup
  1399  077B  2F5D               	goto	l14253
  1400  077C                     __end_of_main:	
  1401                           
  1402                           	psect	text804
  1403  000D                     __ptext804:	
  1404 ;; =============== function _LcdMenu_Setup ends ============
  1405                           
  1406                           
  1407 ;; *************** function _LcdMenu_Welcome *****************
  1408 ;; Defined at:
  1409 ;;		line 235 in file "Code/Driver/LCD/LcdMenu.c"
  1410 ;; Parameters:    Size  Location     Type
  1411 ;;		None
  1412 ;; Auto vars:     Size  Location     Type
  1413 ;;		None
  1414 ;; Return value:  Size  Location     Type
  1415 ;;		None               void
  1416 ;; Registers used:
  1417 ;;		wreg, fsr0l, fsr0h, status,2, status,0, btemp+1, pclath, cstack
  1418 ;; Tracked objects:
  1419 ;;		On entry : 60/0
  1420 ;;		On exit  : 160/0
  1421 ;;		Unchanged: FFE00/0
  1422 ;; Data sizes:     COMMON   BANK0   BANK1   BANK2
  1423 ;;      Params:         0       0       0       0
  1424 ;;      Locals:         0       0       0       0
  1425 ;;      Temps:          0       0       0       0
  1426 ;;      Totals:         0       0       0       0
  1427 ;;Total ram usage:        0 bytes
  1428 ;; Hardware stack levels used:    1
  1429 ;; Hardware stack levels required when called:    5
  1430 ;; This function calls:
  1431 ;;		_LcdMenu_VPrintf
  1432 ;;		_Lcd_StrDisp
  1433 ;; This function is called by:
  1434 ;;		_main
  1435 ;; This function uses a non-reentrant model
  1436 ;;
  1437  000D                     _LcdMenu_Welcome:	
  1438                           
  1439                           ;LcdMenu.c: 236: LcdMenu_VPrintf("");
  1440                           
  1441                           ; Regs used in _LcdMenu_Welcome: [wreg-fsr0h+status,2+status,0+btemp+1+pclath+cstack]
  1442  000D  30BA               	movlw	low (STR_1| (0+32768))
  1443  000E  00B6               	movwf	?_LcdMenu_VPrintf
  1444  000F  3086               	movlw	high (STR_1| (0+32768))
  1445  0010  00B7               	movwf	?_LcdMenu_VPrintf+1
  1446  0011  236C  118A         	fcall	_LcdMenu_VPrintf
  1447                           
  1448                           ;LcdMenu.c: 237: Lcd_StrDisp(0,0,LcdMenu_StrTemp);
  1449  0013  25C9  118A         	fcall	PL14	;call to abstracted procedure
  1450  0015  22D9  118A         	fcall	_Lcd_StrDisp
  1451                           
  1452                           ;LcdMenu.c: 238: LcdMenu_VPrintf("05925100520");
  1453  0017  30FE               	movlw	low (STR_2| (0+32768))
  1454  0018  00B6               	movwf	?_LcdMenu_VPrintf
  1455  0019  3086               	movlw	high (STR_2| (0+32768))
  1456  001A  00B7               	movwf	?_LcdMenu_VPrintf+1
  1457  001B  236C  118A         	fcall	_LcdMenu_VPrintf
  1458                           
  1459                           ;LcdMenu.c: 239: Lcd_StrDisp(1,0,LcdMenu_StrTemp);
  1460  001D  25C0  118A         	fcall	PL12	;call to abstracted procedure
  1461  001F  2AD9               	ljmp	_Lcd_StrDisp
  1462  0020                     __end_of_LcdMenu_Welcome:	
  1463  0020                     __ptext806:	
  1464 ;; =============== function _Lcd_StrDisp ends ============
  1465                           
  1466                           
  1467 ;; *************** function _Lcd_Init *****************
  1468 ;; Defined at:
  1469 ;;		line 301 in file "Code/Driver/LCD/Lcd.c"
  1470 ;; Parameters:    Size  Location     Type
  1471 ;;		None
  1472 ;; Auto vars:     Size  Location     Type
  1473 ;;		None
  1474 ;; Return value:  Size  Location     Type
  1475 ;;		None               void
  1476 ;; Registers used:
  1477 ;;		wreg, status,2, status,0, pclath, cstack
  1478 ;; Tracked objects:
  1479 ;;		On entry : 17F/0
  1480 ;;		On exit  : 60/0
  1481 ;;		Unchanged: FFE00/0
  1482 ;; Data sizes:     COMMON   BANK0   BANK1   BANK2
  1483 ;;      Params:         0       0       0       0
  1484 ;;      Locals:         0       0       0       0
  1485 ;;      Temps:          0       0       0       0
  1486 ;;      Totals:         0       0       0       0
  1487 ;;Total ram usage:        0 bytes
  1488 ;; Hardware stack levels used:    1
  1489 ;; Hardware stack levels required when called:    4
  1490 ;; This function calls:
  1491 ;;		_delayms
  1492 ;;		_Lcd_WriteCmd
  1493 ;; This function is called by:
  1494 ;;		_main
  1495 ;; This function uses a non-reentrant model
  1496 ;;
  1497  0020                     _Lcd_Init:	
  1498                           
  1499                           ;Lcd.c: 303: ANSEL = 0x00;
  1500                           
  1501                           ; Regs used in _Lcd_Init: [wreg+status,2+status,0+pclath+cstack]
  1502  0020  1683               	bsf	3,5	;RP0=1, select bank1
  1503  0021  0191               	clrf	17	;volatile
  1504                           
  1505                           ;Lcd.c: 304: delayms(10);
  1506  0022  300A               	movlw	10
  1507  0023  00F3               	movwf	?_delayms
  1508  0024  01F4               	clrf	?_delayms+1
  1509  0025  2046  118A         	fcall	_delayms
  1510                           
  1511                           ;Lcd.c: 305: Lcd_WriteCmd(0x30);
  1512  0027  3030               	movlw	48
  1513  0028  2352  118A         	fcall	_Lcd_WriteCmd
  1514                           
  1515                           ;Lcd.c: 306: delayms(1);
  1516  002A  01F3               	clrf	?_delayms
  1517  002B  0AF3               	incf	?_delayms,f
  1518  002C  01F4               	clrf	?_delayms+1
  1519  002D  2046  118A         	fcall	_delayms
  1520                           
  1521                           ;Lcd.c: 307: Lcd_WriteCmd(0x30);
  1522  002F  3030               	movlw	48
  1523  0030  2352  118A         	fcall	_Lcd_WriteCmd
  1524                           
  1525                           ;Lcd.c: 308: delayms(1);
  1526  0032  01F3               	clrf	?_delayms
  1527  0033  0AF3               	incf	?_delayms,f
  1528  0034  01F4               	clrf	?_delayms+1
  1529  0035  2046  118A         	fcall	_delayms
  1530                           
  1531                           ;Lcd.c: 309: Lcd_WriteCmd(0x0c);
  1532  0037  300C               	movlw	12
  1533  0038  2352  118A         	fcall	_Lcd_WriteCmd
  1534                           
  1535                           ;Lcd.c: 310: delayms(1);
  1536  003A  01F3               	clrf	?_delayms
  1537  003B  0AF3               	incf	?_delayms,f
  1538  003C  01F4               	clrf	?_delayms+1
  1539  003D  2046  118A         	fcall	_delayms
  1540                           
  1541                           ;Lcd.c: 311: Lcd_WriteCmd(0x01);
  1542  003F  3001               	movlw	1
  1543  0040  2352  118A         	fcall	_Lcd_WriteCmd
  1544                           
  1545                           ;Lcd.c: 312: delayms(10);
  1546  0042  300A               	movlw	10
  1547  0043  00F3               	movwf	?_delayms
  1548  0044  01F4               	clrf	?_delayms+1
  1549  0045  2846               	ljmp	l13621
  1550  0046                     __end_of_Lcd_Init:	
  1551  0046                     __ptext824:	
  1552 ;; =============== function _SendByte ends ============
  1553                           
  1554                           
  1555 ;; *************** function _delayms *****************
  1556 ;; Defined at:
  1557 ;;		line 188 in file "Code/Driver/LCD/Lcd.c"
  1558 ;; Parameters:    Size  Location     Type
  1559 ;;  t               2    2[COMMON] unsigned short 
  1560 ;; Auto vars:     Size  Location     Type
  1561 ;;  i               1    4[COMMON] unsigned char 
  1562 ;; Return value:  Size  Location     Type
  1563 ;;		None               void
  1564 ;; Registers used:
  1565 ;;		wreg, status,2, status,0
  1566 ;; Tracked objects:
  1567 ;;		On entry : 40/0
  1568 ;;		On exit  : 40/0
  1569 ;;		Unchanged: FFFBF/0
  1570 ;; Data sizes:     COMMON   BANK0   BANK1   BANK2
  1571 ;;      Params:         2       0       0       0
  1572 ;;      Locals:         1       0       0       0
  1573 ;;      Temps:          0       0       0       0
  1574 ;;      Totals:         3       0       0       0
  1575 ;;Total ram usage:        3 bytes
  1576 ;; Hardware stack levels used:    1
  1577 ;; Hardware stack levels required when called:    1
  1578 ;; This function calls:
  1579 ;;		Nothing
  1580 ;; This function is called by:
  1581 ;;		_Lcd_Init
  1582 ;;		_main
  1583 ;; This function uses a non-reentrant model
  1584 ;;
  1585  0046                     _delayms:	
  1586  0046                     l13621:	
  1587                           ;Lcd.c: 189: u8 i;
  1588                           ;Lcd.c: 190: while(t--)
  1589                           
  1590                           ; Regs used in _delayms: [wreg+status,2+status,0]
  1591                           
  1592  0046  3001               	movlw	1
  1593  0047  02F3               	subwf	delayms@t,f
  1594  0048  3000               	movlw	0
  1595  0049  1C03               	skipc
  1596  004A  03F4               	decf	delayms@t+1,f
  1597  004B  02F4               	subwf	delayms@t+1,f
  1598  004C  0A73               	incf	delayms@t,w
  1599  004D  1903               	skipnz
  1600  004E  0A74               	incf	delayms@t+1,w
  1601  004F  1903               	btfsc	3,2
  1602  0050  0008               	return
  1603                           
  1604                           ;Lcd.c: 191: {
  1605                           ;Lcd.c: 192: for(i=0;i<125;i++);
  1606  0051  01F5               	clrf	delayms@i
  1607  0052                     l13617:	
  1608  0052  307D               	movlw	125
  1609  0053  0AF5               	incf	delayms@i,f
  1610  0054  0275               	subwf	delayms@i,w
  1611  0055  1803               	btfsc	3,0
  1612  0056  2846               	goto	l13621
  1613  0057  2852               	goto	l13617
  1614  0058                     __end_of_delayms:	
  1615  0058                     __ptext803:	
  1616 ;; =============== function _main ends ============
  1617                           
  1618                           
  1619 ;; *************** function _LcdMenu_Setup *****************
  1620 ;; Defined at:
  1621 ;;		line 278 in file "Code/Driver/LCD/LcdMenu.c"
  1622 ;; Parameters:    Size  Location     Type
  1623 ;;  KeyEvent        1    wreg     unsigned char 
  1624 ;;  pParam          1   63[BANK0 ] PTR struct .
  1625 ;;		 -> SetupParam(6), 
  1626 ;; Auto vars:     Size  Location     Type
  1627 ;;  KeyEvent        1   12[BANK1 ] unsigned char 
  1628 ;;  num            12    0[BANK1 ] unsigned char [4][3]
  1629 ;;  Change          1    0        unsigned char 
  1630 ;; Return value:  Size  Location     Type
  1631 ;;		None               void
  1632 ;; Registers used:
  1633 ;;		wreg, fsr0l, fsr0h, status,2, status,0, btemp+1, pclath, cstack
  1634 ;; Tracked objects:
  1635 ;;		On entry : 160/20
  1636 ;;		On exit  : 160/0
  1637 ;;		Unchanged: FFE00/0
  1638 ;; Data sizes:     COMMON   BANK0   BANK1   BANK2
  1639 ;;      Params:         0       1       0       0
  1640 ;;      Locals:         0       0      13       0
  1641 ;;      Temps:          0       8       0       0
  1642 ;;      Totals:         0       9      13       0
  1643 ;;Total ram usage:       22 bytes
  1644 ;; Hardware stack levels used:    1
  1645 ;; Hardware stack levels required when called:    5
  1646 ;; This function calls:
  1647 ;;		___lwmod
  1648 ;;		___lwdiv
  1649 ;;		___lbmod
  1650 ;;		___lbdiv
  1651 ;;		___wmul
  1652 ;;		___bmul
  1653 ;;		_LcdMenu_VPrintf
  1654 ;;		_Lcd_StrDisp
  1655 ;;		_LcdMenu_NumMasK
  1656 ;; This function is called by:
  1657 ;;		_main
  1658 ;; This function uses a non-reentrant model
  1659 ;;
  1660  0058                     _LcdMenu_Setup:	
  1661                           
  1662                           ; Regs used in _LcdMenu_Setup: [wreg-fsr0h+status,2+status,0+btemp+1+pclath+cstack]
  1663                           ;LcdMenu_Setup@KeyEvent stored from wreg
  1664  0058  00D4               	movwf	LcdMenu_Setup@KeyEvent^(0+128)
  1665                           
  1666                           ;LcdMenu.c: 280: static u8 Section = 0;
  1667                           ;LcdMenu.c: 281: static u8 Index = 0;
  1668                           ;LcdMenu.c: 282: u8 num[3][4] = {{0,0,0,0},{0,0,0,0},{0,0,0,0}};
  1669  0059  30C8               	movlw	LcdMenu_Setup@num& (0+255)
  1670  005A  0084               	movwf	4
  1671  005B  300C               	movlw	12
  1672  005C  00FF               	movwf	127
  1673  005D                     u2690:	
  1674  005D  0180               	clrf	0
  1675  005E  0A84               	incf	4,f
  1676  005F  0BFF               	decfsz	127,f
  1677  0060  285D               	goto	u2690
  1678                           
  1679                           ;LcdMenu.c: 284: num[0][3] = (pParam->PaperNum)%10;
  1680  0061  300A               	movlw	10
  1681  0062  1283               	bcf	3,5	;RP0=0, select bank0
  1682  0063  00A0               	movwf	?___lwmod
  1683  0064  01A1               	clrf	?___lwmod+1
  1684  0065  085F               	movf	LcdMenu_Setup@pParam,w
  1685  0066  0084               	movwf	4
  1686  0067  0800               	movf	0,w
  1687  0068  00A2               	movwf	?___lwmod+2
  1688  0069  0A84               	incf	4,f
  1689  006A  0800               	movf	0,w
  1690  006B  00A3               	movwf	?___lwmod+3
  1691  006C  229A  118A         	fcall	___lwmod
  1692  006E  0820               	movf	?___lwmod,w
  1693  006F  1683               	bsf	3,5	;RP0=1, select bank1
  1694  0070  00CB               	movwf	(LcdMenu_Setup@num^(0+128)+3)
  1695                           
  1696                           ;LcdMenu.c: 285: num[0][2] = (pParam->PaperNum/10)%10;
  1697  0071  300A               	movlw	10
  1698  0072  1283               	bcf	3,5	;RP0=0, select bank0
  1699  0073  00A0               	movwf	?___lwmod
  1700  0074  01A1               	clrf	?___lwmod+1
  1701  0075  00F3               	movwf	?___lwdiv
  1702  0076  01F4               	clrf	?___lwdiv+1
  1703  0077  258F  118A         	fcall	PL5	;call to abstracted procedure
  1704  0079  24B2  118A         	fcall	___lwdiv
  1705  007B  25BB  118A         	fcall	PL11	;call to abstracted procedure
  1706  007D  229A  118A         	fcall	___lwmod
  1707  007F  0820               	movf	?___lwmod,w
  1708  0080  1683               	bsf	3,5	;RP0=1, select bank1
  1709  0081  00CA               	movwf	(LcdMenu_Setup@num^(0+128)+2)
  1710                           
  1711                           ;LcdMenu.c: 286: num[0][1] = (pParam->PaperNum/100)%10;
  1712  0082  300A               	movlw	10
  1713  0083  1283               	bcf	3,5	;RP0=0, select bank0
  1714  0084  00A0               	movwf	?___lwmod
  1715  0085  3064               	movlw	100
  1716  0086  01A1               	clrf	?___lwmod+1
  1717  0087  00F3               	movwf	?___lwdiv
  1718  0088  01F4               	clrf	?___lwdiv+1
  1719  0089  258F  118A         	fcall	PL5	;call to abstracted procedure
  1720  008B  24B2  118A         	fcall	___lwdiv
  1721  008D  25BB  118A         	fcall	PL11	;call to abstracted procedure
  1722  008F  229A  118A         	fcall	___lwmod
  1723  0091  0820               	movf	?___lwmod,w
  1724  0092  1683               	bsf	3,5	;RP0=1, select bank1
  1725  0093  00C9               	movwf	(LcdMenu_Setup@num^(0+128)+1)
  1726                           
  1727                           ;LcdMenu.c: 287: num[0][0] = (pParam->PaperNum/1000)%10;
  1728  0094  300A               	movlw	10
  1729  0095  1283               	bcf	3,5	;RP0=0, select bank0
  1730  0096  00A0               	movwf	?___lwmod
  1731  0097  30E8               	movlw	232
  1732  0098  01A1               	clrf	?___lwmod+1
  1733  0099  00F3               	movwf	?___lwdiv
  1734  009A  3003               	movlw	3
  1735  009B  00F4               	movwf	?___lwdiv+1
  1736  009C  258F  118A         	fcall	PL5	;call to abstracted procedure
  1737  009E  24B2  118A         	fcall	___lwdiv
  1738  00A0  25BB  118A         	fcall	PL11	;call to abstracted procedure
  1739  00A2  229A  118A         	fcall	___lwmod
  1740  00A4  0820               	movf	?___lwmod,w
  1741  00A5  1683               	bsf	3,5	;RP0=1, select bank1
  1742  00A6  00C8               	movwf	LcdMenu_Setup@num^(0+128)
  1743                           
  1744                           ;LcdMenu.c: 289: num[1][3] = (pParam->ShuaLiao)%10;
  1745  00A7  300A               	movlw	10
  1746  00A8  00F7               	movwf	?___lbmod
  1747  00A9  1283               	bcf	3,5	;RP0=0, select bank0
  1748  00AA  085F               	movf	LcdMenu_Setup@pParam,w
  1749  00AB  3E03               	addlw	3
  1750  00AC  0084               	movwf	4
  1751  00AD  0800               	movf	0,w
  1752  00AE  2270  118A         	fcall	___lbmod
  1753  00B0  1683               	bsf	3,5	;RP0=1, select bank1
  1754  00B1  00CF               	movwf	(LcdMenu_Setup@num^(0+128)+7)
  1755                           
  1756                           ;LcdMenu.c: 290: num[1][2] = (pParam->ShuaLiao/10)%10;
  1757  00B2  25A6  118A         	fcall	PL8	;call to abstracted procedure
  1758  00B4  3E03               	addlw	3
  1759  00B5  0084               	movwf	4
  1760  00B6  0800               	movf	0,w
  1761  00B7  22BE  118A         	fcall	___lbdiv
  1762  00B9  2270  118A         	fcall	___lbmod
  1763  00BB  1683               	bsf	3,5	;RP0=1, select bank1
  1764  00BC  00CE               	movwf	(LcdMenu_Setup@num^(0+128)+6)
  1765                           
  1766                           ;LcdMenu.c: 291: num[1][1] = (pParam->ShuaJiao)%10;
  1767  00BD  300A               	movlw	10
  1768  00BE  00F7               	movwf	?___lbmod
  1769  00BF  1283               	bcf	3,5	;RP0=0, select bank0
  1770  00C0  085F               	movf	LcdMenu_Setup@pParam,w
  1771  00C1  3E02               	addlw	2
  1772  00C2  0084               	movwf	4
  1773  00C3  0800               	movf	0,w
  1774  00C4  2270  118A         	fcall	___lbmod
  1775  00C6  1683               	bsf	3,5	;RP0=1, select bank1
  1776  00C7  00CD               	movwf	(LcdMenu_Setup@num^(0+128)+5)
  1777                           
  1778                           ;LcdMenu.c: 292: num[1][0] = (pParam->ShuaJiao/10)%10;
  1779  00C8  25A6  118A         	fcall	PL8	;call to abstracted procedure
  1780  00CA  3E02               	addlw	2
  1781  00CB  0084               	movwf	4
  1782  00CC  0800               	movf	0,w
  1783  00CD  22BE  118A         	fcall	___lbdiv
  1784  00CF  2270  118A         	fcall	___lbmod
  1785  00D1  1683               	bsf	3,5	;RP0=1, select bank1
  1786  00D2  00CC               	movwf	(LcdMenu_Setup@num^(0+128)+4)
  1787                           
  1788                           ;LcdMenu.c: 294: num[2][3] = (pParam->Back)%10;
  1789  00D3  300A               	movlw	10
  1790  00D4  00F7               	movwf	?___lbmod
  1791  00D5  1283               	bcf	3,5	;RP0=0, select bank0
  1792  00D6  085F               	movf	LcdMenu_Setup@pParam,w
  1793  00D7  3E05               	addlw	5
  1794  00D8  0084               	movwf	4
  1795  00D9  0800               	movf	0,w
  1796  00DA  2270  118A         	fcall	___lbmod
  1797  00DC  1683               	bsf	3,5	;RP0=1, select bank1
  1798  00DD  00D3               	movwf	(LcdMenu_Setup@num^(0+128)+11)
  1799                           
  1800                           ;LcdMenu.c: 295: num[2][2] = (pParam->Back/10)%10;
  1801  00DE  25A6  118A         	fcall	PL8	;call to abstracted procedure
  1802  00E0  3E05               	addlw	5
  1803  00E1  0084               	movwf	4
  1804  00E2  0800               	movf	0,w
  1805  00E3  22BE  118A         	fcall	___lbdiv
  1806  00E5  2270  118A         	fcall	___lbmod
  1807  00E7  1683               	bsf	3,5	;RP0=1, select bank1
  1808  00E8  00D2               	movwf	(LcdMenu_Setup@num^(0+128)+10)
  1809                           
  1810                           ;LcdMenu.c: 296: num[2][1] = (pParam->Startup)%10;
  1811  00E9  300A               	movlw	10
  1812  00EA  00F7               	movwf	?___lbmod
  1813  00EB  1283               	bcf	3,5	;RP0=0, select bank0
  1814  00EC  085F               	movf	LcdMenu_Setup@pParam,w
  1815  00ED  3E04               	addlw	4
  1816  00EE  0084               	movwf	4
  1817  00EF  0800               	movf	0,w
  1818  00F0  2270  118A         	fcall	___lbmod
  1819  00F2  1683               	bsf	3,5	;RP0=1, select bank1
  1820  00F3  00D1               	movwf	(LcdMenu_Setup@num^(0+128)+9)
  1821                           
  1822                           ;LcdMenu.c: 297: num[2][0] = (pParam->Startup/10)%10;
  1823  00F4  25A6  118A         	fcall	PL8	;call to abstracted procedure
  1824  00F6  3E04               	addlw	4
  1825  00F7  0084               	movwf	4
  1826  00F8  0800               	movf	0,w
  1827  00F9  22BE  118A         	fcall	___lbdiv
  1828  00FB  2270  118A         	fcall	___lbmod
  1829  00FD  1683               	bsf	3,5	;RP0=1, select bank1
  1830  00FE  00D0               	movwf	(LcdMenu_Setup@num^(0+128)+8)
  1831                           
  1832                           ;LcdMenu.c: 299: if(KeyEvent == EVENT_KEYDOWNS)
  1833  00FF  0854               	movf	LcdMenu_Setup@KeyEvent^(0+128),w
  1834  0100  3A03               	xorlw	3
  1835  0101  1D03               	skipz
  1836  0102  290B               	goto	l14163
  1837                           
  1838                           ;LcdMenu.c: 300: {
  1839                           ;LcdMenu.c: 301: if(Index >= 2)
  1840  0103  3002               	movlw	2
  1841  0104  1283               	bcf	3,5	;RP0=0, select bank0
  1842  0105  026B               	subwf	LcdMenu_Setup@Index,w
  1843  0106  1C03               	skipc
  1844  0107  290A               	goto	l14161
  1845                           
  1846                           ;LcdMenu.c: 302: Index = 0;
  1847  0108  01EB               	clrf	LcdMenu_Setup@Index
  1848  0109  290B               	goto	l14163
  1849  010A                     l14161:	
  1850                           
  1851                           ;LcdMenu.c: 303: else
  1852                           ;LcdMenu.c: 304: Index++;
  1853  010A  0AEB               	incf	LcdMenu_Setup@Index,f
  1854  010B                     l14163:	
  1855                           
  1856                           ;LcdMenu.c: 305: }
  1857                           ;LcdMenu.c: 307: if(KeyEvent == EVENT_KEYUPS)
  1858  010B  1683               	bsf	3,5	;RP0=1, select bank1
  1859  010C  0B54               	decfsz	LcdMenu_Setup@KeyEvent^(0+128),w
  1860  010D  2916               	goto	l14171
  1861                           
  1862                           ;LcdMenu.c: 308: {
  1863                           ;LcdMenu.c: 309: if(Index == 0)
  1864  010E  1283               	bcf	3,5	;RP0=0, select bank0
  1865  010F  08EB               	movf	LcdMenu_Setup@Index,f
  1866  0110  1D03               	skipz
  1867  0111  2915               	goto	l14169
  1868                           
  1869                           ;LcdMenu.c: 310: Index = 2;
  1870  0112  3002               	movlw	2
  1871  0113  00EB               	movwf	LcdMenu_Setup@Index
  1872  0114  2916               	goto	l14171
  1873  0115                     l14169:	
  1874                           
  1875                           ;LcdMenu.c: 311: else
  1876                           ;LcdMenu.c: 312: Index--;
  1877  0115  03EB               	decf	LcdMenu_Setup@Index,f
  1878  0116                     l14171:	
  1879                           
  1880                           ;LcdMenu.c: 313: }
  1881                           ;LcdMenu.c: 315: if(KeyEvent == EVENT_KEYRIGHTS)
  1882  0116  1683               	bsf	3,5	;RP0=1, select bank1
  1883  0117  0854               	movf	LcdMenu_Setup@KeyEvent^(0+128),w
  1884  0118  3A07               	xorlw	7
  1885  0119  1D03               	skipz
  1886  011A  2923               	goto	l14179
  1887                           
  1888                           ;LcdMenu.c: 316: {
  1889                           ;LcdMenu.c: 317: if(Section >= 3)
  1890  011B  3003               	movlw	3
  1891  011C  1283               	bcf	3,5	;RP0=0, select bank0
  1892  011D  026C               	subwf	LcdMenu_Setup@Section,w
  1893  011E  1C03               	skipc
  1894  011F  2922               	goto	l14177
  1895                           
  1896                           ;LcdMenu.c: 318: Section = 0;
  1897  0120  01EC               	clrf	LcdMenu_Setup@Section
  1898  0121  2923               	goto	l14179
  1899  0122                     l14177:	
  1900                           
  1901                           ;LcdMenu.c: 319: else
  1902                           ;LcdMenu.c: 320: Section++;
  1903  0122  0AEC               	incf	LcdMenu_Setup@Section,f
  1904  0123                     l14179:	
  1905                           
  1906                           ;LcdMenu.c: 321: }
  1907                           ;LcdMenu.c: 323: if(KeyEvent == EVENT_KEYLEFTS)
  1908  0123  1683               	bsf	3,5	;RP0=1, select bank1
  1909  0124  0854               	movf	LcdMenu_Setup@KeyEvent^(0+128),w
  1910  0125  3A05               	xorlw	5
  1911  0126  1D03               	skipz
  1912  0127  2930               	goto	l14187
  1913                           
  1914                           ;LcdMenu.c: 324: {
  1915                           ;LcdMenu.c: 325: if(Section == 0)
  1916  0128  1283               	bcf	3,5	;RP0=0, select bank0
  1917  0129  08EC               	movf	LcdMenu_Setup@Section,f
  1918  012A  1D03               	skipz
  1919  012B  292F               	goto	l14185
  1920                           
  1921                           ;LcdMenu.c: 326: Section = 3;
  1922  012C  3003               	movlw	3
  1923  012D  00EC               	movwf	LcdMenu_Setup@Section
  1924  012E  2930               	goto	l14187
  1925  012F                     l14185:	
  1926                           
  1927                           ;LcdMenu.c: 327: else
  1928                           ;LcdMenu.c: 328: Section--;
  1929  012F  03EC               	decf	LcdMenu_Setup@Section,f
  1930  0130                     l14187:	
  1931                           
  1932                           ;LcdMenu.c: 329: }
  1933                           ;LcdMenu.c: 331: if(KeyEvent == EVENT_KEYPLUSS)
  1934  0130  1683               	bsf	3,5	;RP0=1, select bank1
  1935  0131  0854               	movf	LcdMenu_Setup@KeyEvent^(0+128),w
  1936  0132  3A09               	xorlw	9
  1937  0133  1D03               	skipz
  1938  0134  2949               	goto	l14195
  1939                           
  1940                           ;LcdMenu.c: 332: {
  1941                           ;LcdMenu.c: 333: if(num[Index][Section] >= 9)
  1942  0135  1283               	bcf	3,5	;RP0=0, select bank0
  1943  0136  257E  118A         	fcall	PL3	;call to abstracted procedure
  1944  0138  2574  118A         	fcall	PL2	;call to abstracted procedure
  1945  013A  3009               	movlw	9
  1946  013B  0200               	subwf	0,w
  1947                           
  1948                           ;LcdMenu.c: 334: num[Index][Section] = 0;
  1949  013C  086B               	movf	LcdMenu_Setup@Index,w
  1950  013D  00E0               	movwf	??_LcdMenu_Setup
  1951  013E  30C8               	movlw	LcdMenu_Setup@num& (0+255)
  1952  013F  1C03               	skipc
  1953  0140  2946               	goto	L2
  1954  0141  1003               	clrc
  1955  0142  2574  118A         	fcall	PL2	;call to abstracted procedure
  1956  0144  0180               	clrf	0
  1957  0145  2949               	goto	l14195
  1958  0146                     L2:	
  1959                           ;LcdMenu.c: 335: else
  1960                           ;LcdMenu.c: 336: num[Index][Section]++;
  1961                           
  1962  0146  2574  118A         	fcall	PL2	;call to abstracted procedure
  1963  0148  0A80               	incf	0,f
  1964  0149                     l14195:	
  1965                           
  1966                           ;LcdMenu.c: 338: }
  1967                           ;LcdMenu.c: 340: if(KeyEvent == EVENT_KEYMINUSS)
  1968  0149  1683               	bsf	3,5	;RP0=1, select bank1
  1969  014A  0854               	movf	LcdMenu_Setup@KeyEvent^(0+128),w
  1970  014B  3A0B               	xorlw	11
  1971  014C  1D03               	skipz
  1972  014D  2964               	goto	l14203
  1973                           
  1974                           ;LcdMenu.c: 341: {
  1975                           ;LcdMenu.c: 342: if(num[Index][Section] > 0)
  1976  014E  1283               	bcf	3,5	;RP0=0, select bank0
  1977  014F  257E  118A         	fcall	PL3	;call to abstracted procedure
  1978  0151  2574  118A         	fcall	PL2	;call to abstracted procedure
  1979  0153  0880               	movf	0,f
  1980  0154  1903               	skipnz
  1981  0155  295E               	goto	l14201
  1982                           
  1983                           ;LcdMenu.c: 343: num[Index][Section]--;
  1984  0156  086B               	movf	LcdMenu_Setup@Index,w
  1985  0157  00E0               	movwf	??_LcdMenu_Setup
  1986  0158  30C8               	movlw	LcdMenu_Setup@num& (0+255)
  1987  0159  1003               	clrc
  1988  015A  2574  118A         	fcall	PL2	;call to abstracted procedure
  1989  015C  0380               	decf	0,f
  1990  015D  2964               	goto	l14203
  1991  015E                     l14201:	
  1992                           
  1993                           ;LcdMenu.c: 344: else
  1994                           ;LcdMenu.c: 345: num[Index][Section] = 9;
  1995  015E  257E  118A         	fcall	PL3	;call to abstracted procedure
  1996  0160  2574  118A         	fcall	PL2	;call to abstracted procedure
  1997  0162  3009               	movlw	9
  1998  0163  0080               	movwf	0
  1999  0164                     l14203:	
  2000                           
  2001                           ;LcdMenu.c: 347: }
  2002                           ;LcdMenu.c: 349: pParam->PaperNum = num[0][0]*1000+num[0][1]*100+num[0][2]*10+num[0][3];
  2003  0164  1683               	bsf	3,5	;RP0=1, select bank1
  2004  0165  0848               	movf	LcdMenu_Setup@num^(0+128),w
  2005  0166  00F3               	movwf	?___wmul
  2006  0167  30E8               	movlw	232
  2007  0168  01F4               	clrf	?___wmul+1
  2008  0169  00F5               	movwf	?___wmul+2
  2009  016A  3003               	movlw	3
  2010  016B  00F6               	movwf	?___wmul+3
  2011  016C  2339  118A         	fcall	___wmul
  2012  016E  0873               	movf	?___wmul,w
  2013  016F  1283               	bcf	3,5	;RP0=0, select bank0
  2014  0170  00E0               	movwf	??_LcdMenu_Setup
  2015  0171  0874               	movf	?___wmul+1,w
  2016  0172  00E1               	movwf	??_LcdMenu_Setup+1
  2017  0173  1683               	bsf	3,5	;RP0=1, select bank1
  2018  0174  0849               	movf	(LcdMenu_Setup@num^(0+128)+1),w
  2019  0175  00F3               	movwf	?___wmul
  2020  0176  3064               	movlw	100
  2021  0177  01F4               	clrf	?___wmul+1
  2022  0178  00F5               	movwf	?___wmul+2
  2023  0179  01F6               	clrf	?___wmul+3
  2024  017A  2339  118A         	fcall	___wmul
  2025  017C  0873               	movf	?___wmul,w
  2026  017D  1283               	bcf	3,5	;RP0=0, select bank0
  2027  017E  0760               	addwf	??_LcdMenu_Setup,w
  2028  017F  00E2               	movwf	??_LcdMenu_Setup+2
  2029  0180  0874               	movf	?___wmul+1,w
  2030  0181  1803               	skipnc
  2031  0182  0A74               	incf	?___wmul+1,w
  2032  0183  0761               	addwf	??_LcdMenu_Setup+1,w
  2033  0184  00E3               	movwf	??_LcdMenu_Setup+3
  2034  0185  1683               	bsf	3,5	;RP0=1, select bank1
  2035  0186  084A               	movf	(LcdMenu_Setup@num^(0+128)+2),w
  2036  0187  00F3               	movwf	?___wmul
  2037  0188  300A               	movlw	10
  2038  0189  01F4               	clrf	?___wmul+1
  2039  018A  00F5               	movwf	?___wmul+2
  2040  018B  01F6               	clrf	?___wmul+3
  2041  018C  2339  118A         	fcall	___wmul
  2042  018E  0873               	movf	?___wmul,w
  2043  018F  1283               	bcf	3,5	;RP0=0, select bank0
  2044  0190  0762               	addwf	??_LcdMenu_Setup+2,w
  2045  0191  00E4               	movwf	??_LcdMenu_Setup+4
  2046  0192  0874               	movf	?___wmul+1,w
  2047  0193  1803               	skipnc
  2048  0194  0A74               	incf	?___wmul+1,w
  2049  0195  0763               	addwf	??_LcdMenu_Setup+3,w
  2050  0196  00E5               	movwf	??_LcdMenu_Setup+5
  2051  0197  1683               	bsf	3,5	;RP0=1, select bank1
  2052  0198  084B               	movf	(LcdMenu_Setup@num^(0+128)+3),w
  2053  0199  1283               	bcf	3,5	;RP0=0, select bank0
  2054  019A  0764               	addwf	??_LcdMenu_Setup+4,w
  2055  019B  00E6               	movwf	??_LcdMenu_Setup+6
  2056  019C  3000               	movlw	0
  2057  019D  1803               	skipnc
  2058  019E  3001               	movlw	1
  2059  019F  0765               	addwf	??_LcdMenu_Setup+5,w
  2060  01A0  00E7               	movwf	??_LcdMenu_Setup+7
  2061  01A1  085F               	movf	LcdMenu_Setup@pParam,w
  2062  01A2  0084               	movwf	4
  2063  01A3  0866               	movf	??_LcdMenu_Setup+6,w
  2064  01A4  0080               	movwf	0
  2065  01A5  0A84               	incf	4,f
  2066  01A6  0867               	movf	??_LcdMenu_Setup+7,w
  2067  01A7  0080               	movwf	0
  2068                           
  2069                           ;LcdMenu.c: 350: pParam->ShuaJiao = num[1][0]*10+num[1][1];
  2070  01A8  085F               	movf	LcdMenu_Setup@pParam,w
  2071  01A9  3E02               	addlw	2
  2072  01AA  0084               	movwf	4
  2073  01AB  300A               	movlw	10
  2074  01AC  00F3               	movwf	?___bmul
  2075  01AD  1683               	bsf	3,5	;RP0=1, select bank1
  2076  01AE  084C               	movf	(LcdMenu_Setup@num^(0+128)+4),w
  2077  01AF  228C  118A         	fcall	___bmul
  2078  01B1  1283               	bcf	3,5	;RP0=0, select bank0
  2079  01B2  00E0               	movwf	??_LcdMenu_Setup
  2080  01B3  1683               	bsf	3,5	;RP0=1, select bank1
  2081  01B4  084D               	movf	(LcdMenu_Setup@num^(0+128)+5),w
  2082  01B5  1283               	bcf	3,5	;RP0=0, select bank0
  2083  01B6  0760               	addwf	??_LcdMenu_Setup,w
  2084  01B7  0080               	movwf	0
  2085                           
  2086                           ;LcdMenu.c: 351: pParam->ShuaLiao = num[1][2]*10+num[1][3];
  2087  01B8  085F               	movf	LcdMenu_Setup@pParam,w
  2088  01B9  3E03               	addlw	3
  2089  01BA  0084               	movwf	4
  2090  01BB  300A               	movlw	10
  2091  01BC  00F3               	movwf	?___bmul
  2092  01BD  1683               	bsf	3,5	;RP0=1, select bank1
  2093  01BE  084E               	movf	(LcdMenu_Setup@num^(0+128)+6),w
  2094  01BF  228C  118A         	fcall	___bmul
  2095  01C1  1283               	bcf	3,5	;RP0=0, select bank0
  2096  01C2  00E0               	movwf	??_LcdMenu_Setup
  2097  01C3  1683               	bsf	3,5	;RP0=1, select bank1
  2098  01C4  084F               	movf	(LcdMenu_Setup@num^(0+128)+7),w
  2099  01C5  1283               	bcf	3,5	;RP0=0, select bank0
  2100  01C6  0760               	addwf	??_LcdMenu_Setup,w
  2101  01C7  0080               	movwf	0
  2102                           
  2103                           ;LcdMenu.c: 352: pParam->Startup = num[2][0]*10+num[2][1];
  2104  01C8  085F               	movf	LcdMenu_Setup@pParam,w
  2105  01C9  3E04               	addlw	4
  2106  01CA  0084               	movwf	4
  2107  01CB  300A               	movlw	10
  2108  01CC  00F3               	movwf	?___bmul
  2109  01CD  1683               	bsf	3,5	;RP0=1, select bank1
  2110  01CE  0850               	movf	(LcdMenu_Setup@num^(0+128)+8),w
  2111  01CF  228C  118A         	fcall	___bmul
  2112  01D1  1283               	bcf	3,5	;RP0=0, select bank0
  2113  01D2  00E0               	movwf	??_LcdMenu_Setup
  2114  01D3  1683               	bsf	3,5	;RP0=1, select bank1
  2115  01D4  0851               	movf	(LcdMenu_Setup@num^(0+128)+9),w
  2116  01D5  1283               	bcf	3,5	;RP0=0, select bank0
  2117  01D6  0760               	addwf	??_LcdMenu_Setup,w
  2118  01D7  0080               	movwf	0
  2119                           
  2120                           ;LcdMenu.c: 353: pParam->Back = num[2][2]*10+num[2][3];
  2121  01D8  085F               	movf	LcdMenu_Setup@pParam,w
  2122  01D9  3E05               	addlw	5
  2123  01DA  0084               	movwf	4
  2124  01DB  300A               	movlw	10
  2125  01DC  00F3               	movwf	?___bmul
  2126  01DD  1683               	bsf	3,5	;RP0=1, select bank1
  2127  01DE  0852               	movf	(LcdMenu_Setup@num^(0+128)+10),w
  2128  01DF  228C  118A         	fcall	___bmul
  2129  01E1  1283               	bcf	3,5	;RP0=0, select bank0
  2130  01E2  00E0               	movwf	??_LcdMenu_Setup
  2131  01E3  1683               	bsf	3,5	;RP0=1, select bank1
  2132  01E4  0853               	movf	(LcdMenu_Setup@num^(0+128)+11),w
  2133  01E5  1283               	bcf	3,5	;RP0=0, select bank0
  2134  01E6  0760               	addwf	??_LcdMenu_Setup,w
  2135  01E7  0080               	movwf	0
  2136                           
  2137                           ;LcdMenu.c: 355: LcdMenu_VPrintf("");
  2138  01E8  3013               	movlw	low (STR_7| (0+32768))
  2139  01E9  00B6               	movwf	?_LcdMenu_VPrintf
  2140  01EA  3087               	movlw	high (STR_7| (0+32768))
  2141  01EB  00B7               	movwf	?_LcdMenu_VPrintf+1
  2142  01EC  236C  118A         	fcall	_LcdMenu_VPrintf
  2143                           
  2144                           ;LcdMenu.c: 356: Lcd_StrDisp(0,0,LcdMenu_StrTemp);
  2145  01EE  25C9  118A         	fcall	PL14	;call to abstracted procedure
  2146  01F0  22D9  118A         	fcall	_Lcd_StrDisp
  2147                           
  2148                           ;LcdMenu.c: 357: LcdMenu_VPrintf(":%d%d%d%d",num[0][0],num[0][1],num[0][2],num[0
      +                          ][3]);
  2149  01F2  30A8               	movlw	low (STR_8| (0+32768))
  2150  01F3  00B6               	movwf	?_LcdMenu_VPrintf
  2151  01F4  3086               	movlw	high (STR_8| (0+32768))
  2152  01F5  00B7               	movwf	?_LcdMenu_VPrintf+1
  2153  01F6  1683               	bsf	3,5	;RP0=1, select bank1
  2154  01F7  0848               	movf	LcdMenu_Setup@num^(0+128),w
  2155  01F8  1283               	bcf	3,5	;RP0=0, select bank0
  2156  01F9  00B8               	movwf	?_LcdMenu_VPrintf+2
  2157  01FA  01B9               	clrf	?_LcdMenu_VPrintf+3
  2158  01FB  1683               	bsf	3,5	;RP0=1, select bank1
  2159  01FC  0849               	movf	(LcdMenu_Setup@num^(0+128)+1),w
  2160  01FD  1283               	bcf	3,5	;RP0=0, select bank0
  2161  01FE  00BA               	movwf	?_LcdMenu_VPrintf+4
  2162  01FF  01BB               	clrf	?_LcdMenu_VPrintf+5
  2163  0200  1683               	bsf	3,5	;RP0=1, select bank1
  2164  0201  084A               	movf	(LcdMenu_Setup@num^(0+128)+2),w
  2165  0202  1283               	bcf	3,5	;RP0=0, select bank0
  2166  0203  00BC               	movwf	?_LcdMenu_VPrintf+6
  2167  0204  01BD               	clrf	?_LcdMenu_VPrintf+7
  2168  0205  1683               	bsf	3,5	;RP0=1, select bank1
  2169  0206  084B               	movf	(LcdMenu_Setup@num^(0+128)+3),w
  2170  0207  1283               	bcf	3,5	;RP0=0, select bank0
  2171  0208  00BE               	movwf	?_LcdMenu_VPrintf+8
  2172  0209  01BF               	clrf	?_LcdMenu_VPrintf+9
  2173  020A  236C  118A         	fcall	_LcdMenu_VPrintf
  2174                           
  2175                           ;LcdMenu.c: 358: if(Index == 0 && u8_Timer_Flash)
  2176  020C  08EB               	movf	LcdMenu_Setup@Index,f
  2177  020D  1D03               	skipz
  2178  020E  2A17               	goto	l14225
  2179  020F  086D               	movf	_u8_Timer_Flash,w
  2180  0210  1903               	btfsc	3,2
  2181  0211  2A17               	goto	l14225
  2182                           
  2183                           ;LcdMenu.c: 359: LcdMenu_NumMasK(LcdMenu_StrTemp, Section+1);
  2184  0212  0A6C               	incf	LcdMenu_Setup@Section,w
  2185  0213  00F3               	movwf	?_LcdMenu_NumMasK
  2186  0214  30AE               	movlw	_LcdMenu_StrTemp& (0+255)
  2187  0215  2300  118A         	fcall	_LcdMenu_NumMasK
  2188  0217                     l14225:	
  2189                           
  2190                           ;LcdMenu.c: 360: Lcd_StrDisp(1,0,LcdMenu_StrTemp);
  2191  0217  25C0  118A         	fcall	PL12	;call to abstracted procedure
  2192  0219  22D9  118A         	fcall	_Lcd_StrDisp
  2193                           
  2194                           ;LcdMenu.c: 361: LcdMenu_VPrintf(":%d%dD:%d%dA",num[1][0],num[1][1],num[1][2],nu
      +                          m[1][3]);
  2195  021B  307E               	movlw	low (STR_9| (0+32768))
  2196  021C  00B6               	movwf	?_LcdMenu_VPrintf
  2197  021D  3086               	movlw	high (STR_9| (0+32768))
  2198  021E  00B7               	movwf	?_LcdMenu_VPrintf+1
  2199  021F  1683               	bsf	3,5	;RP0=1, select bank1
  2200  0220  084C               	movf	(LcdMenu_Setup@num^(0+128)+4),w
  2201  0221  1283               	bcf	3,5	;RP0=0, select bank0
  2202  0222  00B8               	movwf	?_LcdMenu_VPrintf+2
  2203  0223  01B9               	clrf	?_LcdMenu_VPrintf+3
  2204  0224  1683               	bsf	3,5	;RP0=1, select bank1
  2205  0225  084D               	movf	(LcdMenu_Setup@num^(0+128)+5),w
  2206  0226  1283               	bcf	3,5	;RP0=0, select bank0
  2207  0227  00BA               	movwf	?_LcdMenu_VPrintf+4
  2208  0228  01BB               	clrf	?_LcdMenu_VPrintf+5
  2209  0229  1683               	bsf	3,5	;RP0=1, select bank1
  2210  022A  084E               	movf	(LcdMenu_Setup@num^(0+128)+6),w
  2211  022B  1283               	bcf	3,5	;RP0=0, select bank0
  2212  022C  00BC               	movwf	?_LcdMenu_VPrintf+6
  2213  022D  01BD               	clrf	?_LcdMenu_VPrintf+7
  2214  022E  1683               	bsf	3,5	;RP0=1, select bank1
  2215  022F  084F               	movf	(LcdMenu_Setup@num^(0+128)+7),w
  2216  0230  1283               	bcf	3,5	;RP0=0, select bank0
  2217  0231  00BE               	movwf	?_LcdMenu_VPrintf+8
  2218  0232  01BF               	clrf	?_LcdMenu_VPrintf+9
  2219  0233  236C  118A         	fcall	_LcdMenu_VPrintf
  2220                           
  2221                           ;LcdMenu.c: 362: if(Index == 1 && u8_Timer_Flash)
  2222  0235  0B6B               	decfsz	LcdMenu_Setup@Index,w
  2223  0236  2A3F               	goto	l14235
  2224  0237  086D               	movf	_u8_Timer_Flash,w
  2225  0238  1903               	btfsc	3,2
  2226  0239  2A3F               	goto	l14235
  2227                           
  2228                           ;LcdMenu.c: 363: LcdMenu_NumMasK(LcdMenu_StrTemp, Section+1);
  2229  023A  0A6C               	incf	LcdMenu_Setup@Section,w
  2230  023B  00F3               	movwf	?_LcdMenu_NumMasK
  2231  023C  30AE               	movlw	_LcdMenu_StrTemp& (0+255)
  2232  023D  2300  118A         	fcall	_LcdMenu_NumMasK
  2233  023F                     l14235:	
  2234  023F  30AE               	movlw	_LcdMenu_StrTemp& (0+255)
  2235                           
  2236                           ;LcdMenu.c: 364: Lcd_StrDisp(2,0,LcdMenu_StrTemp);
  2237  0240  01A0               	clrf	?_Lcd_StrDisp
  2238  0241  00A1               	movwf	?_Lcd_StrDisp+1
  2239  0242  3002               	movlw	2
  2240  0243  22D9  118A         	fcall	_Lcd_StrDisp
  2241                           
  2242                           ;LcdMenu.c: 365: LcdMenu_VPrintf(":%d%dC:%d%dC",num[2][0],num[2][1],num[2][2],nu
      +                          m[2][3]);
  2243  0245  3093               	movlw	low (STR_10| (0+32768))
  2244  0246  00B6               	movwf	?_LcdMenu_VPrintf
  2245  0247  3086               	movlw	high (STR_10| (0+32768))
  2246  0248  00B7               	movwf	?_LcdMenu_VPrintf+1
  2247  0249  1683               	bsf	3,5	;RP0=1, select bank1
  2248  024A  0850               	movf	(LcdMenu_Setup@num^(0+128)+8),w
  2249  024B  1283               	bcf	3,5	;RP0=0, select bank0
  2250  024C  00B8               	movwf	?_LcdMenu_VPrintf+2
  2251  024D  01B9               	clrf	?_LcdMenu_VPrintf+3
  2252  024E  1683               	bsf	3,5	;RP0=1, select bank1
  2253  024F  0851               	movf	(LcdMenu_Setup@num^(0+128)+9),w
  2254  0250  1283               	bcf	3,5	;RP0=0, select bank0
  2255  0251  00BA               	movwf	?_LcdMenu_VPrintf+4
  2256  0252  01BB               	clrf	?_LcdMenu_VPrintf+5
  2257  0253  1683               	bsf	3,5	;RP0=1, select bank1
  2258  0254  0852               	movf	(LcdMenu_Setup@num^(0+128)+10),w
  2259  0255  1283               	bcf	3,5	;RP0=0, select bank0
  2260  0256  00BC               	movwf	?_LcdMenu_VPrintf+6
  2261  0257  01BD               	clrf	?_LcdMenu_VPrintf+7
  2262  0258  1683               	bsf	3,5	;RP0=1, select bank1
  2263  0259  0853               	movf	(LcdMenu_Setup@num^(0+128)+11),w
  2264  025A  1283               	bcf	3,5	;RP0=0, select bank0
  2265  025B  00BE               	movwf	?_LcdMenu_VPrintf+8
  2266  025C  01BF               	clrf	?_LcdMenu_VPrintf+9
  2267  025D  236C  118A         	fcall	_LcdMenu_VPrintf
  2268                           
  2269                           ;LcdMenu.c: 366: if(Index == 2 && u8_Timer_Flash)
  2270  025F  086B               	movf	LcdMenu_Setup@Index,w
  2271  0260  3A02               	xorlw	2
  2272  0261  1D03               	skipz
  2273  0262  2A6B               	goto	l14245
  2274  0263  086D               	movf	_u8_Timer_Flash,w
  2275  0264  1903               	btfsc	3,2
  2276  0265  2A6B               	goto	l14245
  2277                           
  2278                           ;LcdMenu.c: 367: LcdMenu_NumMasK(LcdMenu_StrTemp, Section+1);
  2279  0266  0A6C               	incf	LcdMenu_Setup@Section,w
  2280  0267  00F3               	movwf	?_LcdMenu_NumMasK
  2281  0268  30AE               	movlw	_LcdMenu_StrTemp& (0+255)
  2282  0269  2300  118A         	fcall	_LcdMenu_NumMasK
  2283  026B                     l14245:	
  2284  026B  30AE               	movlw	_LcdMenu_StrTemp& (0+255)
  2285                           
  2286                           ;LcdMenu.c: 368: Lcd_StrDisp(3,0,LcdMenu_StrTemp);
  2287  026C  01A0               	clrf	?_Lcd_StrDisp
  2288  026D  00A1               	movwf	?_Lcd_StrDisp+1
  2289  026E  3003               	movlw	3
  2290  026F  2AD9               	ljmp	_Lcd_StrDisp
  2291  0270                     __end_of_LcdMenu_Setup:	
  2292  0270                     __ptext815:	
  2293 ;; =============== function ___awdiv ends ============
  2294                           
  2295                           
  2296 ;; *************** function ___lbmod *****************
  2297 ;; Defined at:
  2298 ;;		line 5 in file "D:\Program Files (x86)\HI-TECH Software\PICC\9.83\sources\lbmod.c"
  2299 ;; Parameters:    Size  Location     Type
  2300 ;;  dividend        1    wreg     unsigned char 
  2301 ;;  divisor         1    6[COMMON] unsigned char 
  2302 ;; Auto vars:     Size  Location     Type
  2303 ;;  dividend        1    0[BANK0 ] unsigned char 
  2304 ;;  rem             1    2[BANK0 ] unsigned char 
  2305 ;;  counter         1    1[BANK0 ] unsigned char 
  2306 ;; Return value:  Size  Location     Type
  2307 ;;                  1    wreg      unsigned char 
  2308 ;; Registers used:
  2309 ;;		wreg, status,2, status,0
  2310 ;; Tracked objects:
  2311 ;;		On entry : 160/0
  2312 ;;		On exit  : 160/0
  2313 ;;		Unchanged: FFE9F/0
  2314 ;; Data sizes:     COMMON   BANK0   BANK1   BANK2
  2315 ;;      Params:         1       0       0       0
  2316 ;;      Locals:         0       3       0       0
  2317 ;;      Temps:          1       0       0       0
  2318 ;;      Totals:         2       3       0       0
  2319 ;;Total ram usage:        5 bytes
  2320 ;; Hardware stack levels used:    1
  2321 ;; Hardware stack levels required when called:    1
  2322 ;; This function calls:
  2323 ;;		Nothing
  2324 ;; This function is called by:
  2325 ;;		_LcdMenu_Setup
  2326 ;; This function uses a non-reentrant model
  2327 ;;
  2328  0270                     ___lbmod:	
  2329                           
  2330                           ; Regs used in ___lbmod: [wreg+status,2+status,0]
  2331                           ;___lbmod@dividend stored from wreg
  2332  0270  00A0               	movwf	___lbmod@dividend
  2333  0271  3008               	movlw	8
  2334  0272  00A1               	movwf	___lbmod@counter
  2335  0273  01A2               	clrf	___lbmod@rem
  2336  0274                     l13797:	
  2337  0274  0820               	movf	___lbmod@dividend,w
  2338  0275  00F8               	movwf	??___lbmod
  2339  0276  3007               	movlw	7
  2340  0277  1003               	clrc
  2341  0278                     L21:	
  2342  0278  0CF8               	rrf	??___lbmod,f
  2343  0279  3EFF               	addlw	-1
  2344  027A  1003               	clrc
  2345  027B  1D03               	skipz
  2346  027C  2A78               	goto	L21
  2347  027D  0D22               	rlf	___lbmod@rem,w
  2348  027E  0478               	iorwf	??___lbmod,w
  2349  027F  00A2               	movwf	___lbmod@rem
  2350  0280  1003               	clrc
  2351  0281  0DA0               	rlf	___lbmod@dividend,f
  2352  0282  0877               	movf	___lbmod@divisor,w
  2353  0283  0222               	subwf	___lbmod@rem,w
  2354  0284  1C03               	skipc
  2355  0285  2A88               	goto	l13805
  2356  0286  0877               	movf	___lbmod@divisor,w
  2357  0287  02A2               	subwf	___lbmod@rem,f
  2358  0288                     l13805:	
  2359  0288  0BA1               	decfsz	___lbmod@counter,f
  2360  0289  2A74               	goto	l13797
  2361  028A  0822               	movf	___lbmod@rem,w
  2362  028B  0008               	return
  2363  028C                     __end_of___lbmod:	
  2364  028C                     __ptext820:	
  2365 ;; =============== function ___wmul ends ============
  2366                           
  2367                           
  2368 ;; *************** function ___bmul *****************
  2369 ;; Defined at:
  2370 ;;		line 3 in file "D:\Program Files (x86)\HI-TECH Software\PICC\9.83\sources\bmul.c"
  2371 ;; Parameters:    Size  Location     Type
  2372 ;;  multiplier      1    wreg     unsigned char 
  2373 ;;  multiplicand    1    2[COMMON] unsigned char 
  2374 ;; Auto vars:     Size  Location     Type
  2375 ;;  multiplier      1    4[COMMON] unsigned char 
  2376 ;;  product         1    3[COMMON] unsigned char 
  2377 ;; Return value:  Size  Location     Type
  2378 ;;                  1    wreg      unsigned char 
  2379 ;; Registers used:
  2380 ;;		wreg, status,2, status,0
  2381 ;; Tracked objects:
  2382 ;;		On entry : 160/20
  2383 ;;		On exit  : 160/20
  2384 ;;		Unchanged: FFE9F/0
  2385 ;; Data sizes:     COMMON   BANK0   BANK1   BANK2
  2386 ;;      Params:         1       0       0       0
  2387 ;;      Locals:         2       0       0       0
  2388 ;;      Temps:          0       0       0       0
  2389 ;;      Totals:         3       0       0       0
  2390 ;;Total ram usage:        3 bytes
  2391 ;; Hardware stack levels used:    1
  2392 ;; Hardware stack levels required when called:    1
  2393 ;; This function calls:
  2394 ;;		Nothing
  2395 ;; This function is called by:
  2396 ;;		_LcdMenu_Setup
  2397 ;; This function uses a non-reentrant model
  2398 ;;
  2399  028C                     ___bmul:	
  2400                           
  2401                           ; Regs used in ___bmul: [wreg+status,2+status,0]
  2402                           ;___bmul@multiplier stored from wreg
  2403  028C  00F5               	movwf	___bmul@multiplier
  2404  028D  01F4               	clrf	___bmul@product
  2405  028E                     l13693:	
  2406  028E  0873               	movf	___bmul@multiplicand,w
  2407  028F  1875               	btfsc	___bmul@multiplier,0
  2408  0290  07F4               	addwf	___bmul@product,f
  2409  0291  1003               	clrc
  2410  0292  0DF3               	rlf	___bmul@multiplicand,f
  2411  0293  1003               	clrc
  2412  0294  0CF5               	rrf	___bmul@multiplier,f
  2413  0295  08F5               	movf	___bmul@multiplier,f
  2414  0296  1D03               	skipz
  2415  0297  2A8E               	goto	l13693
  2416  0298  0874               	movf	___bmul@product,w
  2417  0299  0008               	return
  2418  029A                     __end_of___bmul:	
  2419  029A                     __ptext817:	
  2420 ;; =============== function ___lbdiv ends ============
  2421                           
  2422                           
  2423 ;; *************** function ___lwmod *****************
  2424 ;; Defined at:
  2425 ;;		line 5 in file "D:\Program Files (x86)\HI-TECH Software\PICC\9.83\sources\lwmod.c"
  2426 ;; Parameters:    Size  Location     Type
  2427 ;;  divisor         2    0[BANK0 ] unsigned int 
  2428 ;;  dividend        2    2[BANK0 ] unsigned int 
  2429 ;; Auto vars:     Size  Location     Type
  2430 ;;  counter         1    4[BANK0 ] unsigned char 
  2431 ;; Return value:  Size  Location     Type
  2432 ;;                  2    0[BANK0 ] unsigned int 
  2433 ;; Registers used:
  2434 ;;		wreg, status,2, status,0
  2435 ;; Tracked objects:
  2436 ;;		On entry : 60/0
  2437 ;;		On exit  : 60/0
  2438 ;;		Unchanged: FFF9F/0
  2439 ;; Data sizes:     COMMON   BANK0   BANK1   BANK2
  2440 ;;      Params:         0       4       0       0
  2441 ;;      Locals:         0       1       0       0
  2442 ;;      Temps:          0       0       0       0
  2443 ;;      Totals:         0       5       0       0
  2444 ;;Total ram usage:        5 bytes
  2445 ;; Hardware stack levels used:    1
  2446 ;; Hardware stack levels required when called:    1
  2447 ;; This function calls:
  2448 ;;		Nothing
  2449 ;; This function is called by:
  2450 ;;		_myitoa
  2451 ;;		_LcdMenu_Setup
  2452 ;; This function uses a non-reentrant model
  2453 ;;
  2454  029A                     ___lwmod:	
  2455                           
  2456                           ; Regs used in ___lwmod: [wreg+status,2+status,0]
  2457  029A  0821               	movf	___lwmod@divisor+1,w
  2458  029B  0420               	iorwf	___lwmod@divisor,w
  2459  029C  1903               	skipnz
  2460  029D  2AB9               	goto	l13765
  2461  029E  01A4               	clrf	___lwmod@counter
  2462  029F                     L23:	
  2463  029F  0AA4               	incf	___lwmod@counter,f
  2464  02A0  1BA1               	btfsc	___lwmod@divisor+1,7
  2465  02A1  2AA6               	goto	l13757
  2466  02A2  1003               	clrc
  2467  02A3  0DA0               	rlf	___lwmod@divisor,f
  2468  02A4  0DA1               	rlf	___lwmod@divisor+1,f
  2469  02A5  2A9F               	goto	L23
  2470  02A6                     l13757:	
  2471  02A6  0821               	movf	___lwmod@divisor+1,w
  2472  02A7  0223               	subwf	___lwmod@dividend+1,w
  2473  02A8  1D03               	skipz
  2474  02A9  2AAC               	goto	u2365
  2475  02AA  0820               	movf	___lwmod@divisor,w
  2476  02AB  0222               	subwf	___lwmod@dividend,w
  2477  02AC                     u2365:	
  2478  02AC  1C03               	skipc
  2479  02AD  2AB5               	goto	L24
  2480  02AE  0820               	movf	___lwmod@divisor,w
  2481  02AF  02A2               	subwf	___lwmod@dividend,f
  2482  02B0  0821               	movf	___lwmod@divisor+1,w
  2483  02B1  1C03               	skipc
  2484  02B2  03A3               	decf	___lwmod@dividend+1,f
  2485  02B3  02A3               	subwf	___lwmod@dividend+1,f
  2486  02B4  1003               	clrc
  2487  02B5                     L24:	
  2488  02B5  0CA1               	rrf	___lwmod@divisor+1,f
  2489  02B6  0CA0               	rrf	___lwmod@divisor,f
  2490  02B7  0BA4               	decfsz	___lwmod@counter,f
  2491  02B8  2AA6               	goto	l13757
  2492  02B9                     l13765:	
  2493  02B9  0823               	movf	___lwmod@dividend+1,w
  2494  02BA  00A1               	movwf	?___lwmod+1
  2495  02BB  0822               	movf	___lwmod@dividend,w
  2496  02BC  00A0               	movwf	?___lwmod
  2497  02BD  0008               	return
  2498  02BE                     __end_of___lwmod:	
  2499  02BE                     __ptext816:	
  2500 ;; =============== function ___lbmod ends ============
  2501                           
  2502                           
  2503 ;; *************** function ___lbdiv *****************
  2504 ;; Defined at:
  2505 ;;		line 5 in file "D:\Program Files (x86)\HI-TECH Software\PICC\9.83\sources\lbdiv.c"
  2506 ;; Parameters:    Size  Location     Type
  2507 ;;  dividend        1    wreg     unsigned char 
  2508 ;;  divisor         1    2[COMMON] unsigned char 
  2509 ;; Auto vars:     Size  Location     Type
  2510 ;;  dividend        1    3[COMMON] unsigned char 
  2511 ;;  quotient        1    5[COMMON] unsigned char 
  2512 ;;  counter         1    4[COMMON] unsigned char 
  2513 ;; Return value:  Size  Location     Type
  2514 ;;                  1    wreg      unsigned char 
  2515 ;; Registers used:
  2516 ;;		wreg, status,2, status,0
  2517 ;; Tracked objects:
  2518 ;;		On entry : 160/0
  2519 ;;		On exit  : 160/0
  2520 ;;		Unchanged: FFE9F/0
  2521 ;; Data sizes:     COMMON   BANK0   BANK1   BANK2
  2522 ;;      Params:         1       0       0       0
  2523 ;;      Locals:         3       0       0       0
  2524 ;;      Temps:          0       0       0       0
  2525 ;;      Totals:         4       0       0       0
  2526 ;;Total ram usage:        4 bytes
  2527 ;; Hardware stack levels used:    1
  2528 ;; Hardware stack levels required when called:    1
  2529 ;; This function calls:
  2530 ;;		Nothing
  2531 ;; This function is called by:
  2532 ;;		_LcdMenu_Setup
  2533 ;; This function uses a non-reentrant model
  2534 ;;
  2535  02BE                     ___lbdiv:	
  2536                           
  2537                           ; Regs used in ___lbdiv: [wreg+status,2+status,0]
  2538                           ;___lbdiv@dividend stored from wreg
  2539  02BE  00F4               	movwf	___lbdiv@dividend
  2540  02BF  01F6               	clrf	___lbdiv@quotient
  2541  02C0  0873               	movf	___lbdiv@divisor,w
  2542  02C1  1903               	btfsc	3,2
  2543  02C2  2AD7               	goto	l13789
  2544  02C3  01F5               	clrf	___lbdiv@counter
  2545  02C4                     l13775:	
  2546  02C4  0AF5               	incf	___lbdiv@counter,f
  2547  02C5  1BF3               	btfsc	___lbdiv@divisor,7
  2548  02C6  2ACA               	goto	l10715
  2549  02C7  1003               	clrc
  2550  02C8  0DF3               	rlf	___lbdiv@divisor,f
  2551  02C9  2AC4               	goto	l13775
  2552  02CA                     l10715:	
  2553  02CA  1003               	clrc
  2554  02CB  0DF6               	rlf	___lbdiv@quotient,f
  2555  02CC  0873               	movf	___lbdiv@divisor,w
  2556  02CD  0274               	subwf	___lbdiv@dividend,w
  2557  02CE  1C03               	skipc
  2558  02CF  2AD4               	goto	L22
  2559  02D0  0873               	movf	___lbdiv@divisor,w
  2560  02D1  02F4               	subwf	___lbdiv@dividend,f
  2561  02D2  1476               	bsf	___lbdiv@quotient,0
  2562  02D3  1003               	clrc
  2563  02D4                     L22:	
  2564  02D4  0CF3               	rrf	___lbdiv@divisor,f
  2565  02D5  0BF5               	decfsz	___lbdiv@counter,f
  2566  02D6  2ACA               	goto	l10715
  2567  02D7                     l13789:	
  2568  02D7  0876               	movf	___lbdiv@quotient,w
  2569  02D8  0008               	return
  2570  02D9                     __end_of___lbdiv:	
  2571  02D9                     __ptext805:	
  2572 ;; =============== function _LcdMenu_Welcome ends ============
  2573                           
  2574                           
  2575 ;; *************** function _Lcd_StrDisp *****************
  2576 ;; Defined at:
  2577 ;;		line 316 in file "Code/Driver/LCD/Lcd.c"
  2578 ;; Parameters:    Size  Location     Type
  2579 ;;  x               1    wreg     unsigned char 
  2580 ;;  y               1    0[BANK0 ] unsigned char 
  2581 ;;  s               1    1[BANK0 ] PTR const unsigned char 
  2582 ;;		 -> LcdMenu_StrTemp(20), 
  2583 ;; Auto vars:     Size  Location     Type
  2584 ;;  x               1    8[COMMON] unsigned char 
  2585 ;; Return value:  Size  Location     Type
  2586 ;;		None               void
  2587 ;; Registers used:
  2588 ;;		wreg, fsr0l, fsr0h, status,2, status,0, btemp+1, pclath, cstack
  2589 ;; Tracked objects:
  2590 ;;		On entry : 160/0
  2591 ;;		On exit  : 160/0
  2592 ;;		Unchanged: FFE00/0
  2593 ;; Data sizes:     COMMON   BANK0   BANK1   BANK2
  2594 ;;      Params:         0       2       0       0
  2595 ;;      Locals:         1       0       0       0
  2596 ;;      Temps:          0       3       0       0
  2597 ;;      Totals:         1       5       0       0
  2598 ;;Total ram usage:        6 bytes
  2599 ;; Hardware stack levels used:    1
  2600 ;; Hardware stack levels required when called:    4
  2601 ;; This function calls:
  2602 ;;		_Lcd_WriteCmd
  2603 ;;		_Lcd_WriteData
  2604 ;; This function is called by:
  2605 ;;		_LcdMenu_Welcome
  2606 ;;		_LcdMenu_Setup
  2607 ;; This function uses a non-reentrant model
  2608 ;;
  2609  02D9                     _Lcd_StrDisp:	
  2610                           
  2611                           ; Regs used in _Lcd_StrDisp: [wreg-fsr0h+status,2+status,0+btemp+1+pclath+cstack]
  2612                           ;Lcd_StrDisp@x stored from wreg
  2613  02D9  00F9               	movwf	Lcd_StrDisp@x
  2614                           
  2615                           ;Lcd.c: 317: Lcd_WriteCmd(addr_tab[8*x+y]);
  2616  02DA  00A2               	movwf	??_Lcd_StrDisp
  2617  02DB  1003               	clrc
  2618  02DC  0DA2               	rlf	??_Lcd_StrDisp,f
  2619  02DD  1003               	clrc
  2620  02DE  0DA2               	rlf	??_Lcd_StrDisp,f
  2621  02DF  1003               	clrc
  2622  02E0  0D22               	rlf	??_Lcd_StrDisp,w
  2623  02E1  3E12               	addlw	low (_addr_tab| (0+32768))
  2624  02E2  00A3               	movwf	??_Lcd_StrDisp+1
  2625  02E3  3086               	movlw	high (_addr_tab| (0+32768))
  2626  02E4  1803               	skipnc
  2627  02E5  3E01               	addlw	1
  2628  02E6  00A4               	movwf	??_Lcd_StrDisp+2
  2629  02E7  0820               	movf	Lcd_StrDisp@y,w
  2630  02E8  0723               	addwf	??_Lcd_StrDisp+1,w
  2631  02E9  0084               	movwf	4
  2632  02EA  0824               	movf	??_Lcd_StrDisp+2,w
  2633  02EB  1803               	skipnc
  2634  02EC  0A24               	incf	??_Lcd_StrDisp+2,w
  2635  02ED  00FF               	movwf	127
  2636  02EE  118A  2600  118A   	fcall	stringtab
  2637  02F1  2352  118A         	fcall	_Lcd_WriteCmd
  2638  02F3                     l14125:	
  2639                           ;Lcd.c: 319: while(*s>0)
  2640                           
  2641  02F3  0821               	movf	Lcd_StrDisp@s,w
  2642  02F4  0084               	movwf	4
  2643  02F5  1383               	bcf	3,7	;select IRP bank0
  2644  02F6  0880               	movf	0,f
  2645  02F7  1903               	btfsc	3,2
  2646  02F8  0008               	return
  2647                           
  2648                           ;Lcd.c: 320: {
  2649                           ;Lcd.c: 321: Lcd_WriteData(*s);
  2650  02F9  0821               	movf	Lcd_StrDisp@s,w
  2651  02FA  0084               	movwf	4
  2652  02FB  0800               	movf	0,w
  2653  02FC  2563  118A         	fcall	_Lcd_WriteData
  2654                           
  2655                           ;Lcd.c: 322: s++;
  2656  02FE  0AA1               	incf	Lcd_StrDisp@s,f
  2657  02FF  2AF3               	goto	l14125
  2658  0300                     __end_of_Lcd_StrDisp:	
  2659  0300                     __ptext821:	
  2660 ;; =============== function ___bmul ends ============
  2661                           
  2662                           
  2663 ;; *************** function _LcdMenu_NumMasK *****************
  2664 ;; Defined at:
  2665 ;;		line 201 in file "Code/Driver/LCD/LcdMenu.c"
  2666 ;; Parameters:    Size  Location     Type
  2667 ;;  Str             1    wreg     PTR unsigned char 
  2668 ;;		 -> LcdMenu_StrTemp(20), 
  2669 ;;  MaskBit         1    2[COMMON] unsigned char 
  2670 ;; Auto vars:     Size  Location     Type
  2671 ;;  Str             1    5[COMMON] PTR unsigned char 
  2672 ;;		 -> LcdMenu_StrTemp(20), 
  2673 ;;  i               1    6[COMMON] unsigned char 
  2674 ;;  count           1    4[COMMON] unsigned char 
  2675 ;; Return value:  Size  Location     Type
  2676 ;;		None               void
  2677 ;; Registers used:
  2678 ;;		wreg, fsr0l, fsr0h, status,2, status,0
  2679 ;; Tracked objects:
  2680 ;;		On entry : 160/0
  2681 ;;		On exit  : 160/0
  2682 ;;		Unchanged: FFE9F/0
  2683 ;; Data sizes:     COMMON   BANK0   BANK1   BANK2
  2684 ;;      Params:         1       0       0       0
  2685 ;;      Locals:         3       0       0       0
  2686 ;;      Temps:          1       0       0       0
  2687 ;;      Totals:         5       0       0       0
  2688 ;;Total ram usage:        5 bytes
  2689 ;; Hardware stack levels used:    1
  2690 ;; Hardware stack levels required when called:    1
  2691 ;; This function calls:
  2692 ;;		Nothing
  2693 ;; This function is called by:
  2694 ;;		_LcdMenu_Setup
  2695 ;; This function uses a non-reentrant model
  2696 ;;
  2697  0300                     _LcdMenu_NumMasK:	
  2698                           
  2699                           ; Regs used in _LcdMenu_NumMasK: [wreg-fsr0h+status,2+status,0]
  2700                           ;LcdMenu_NumMasK@Str stored from wreg
  2701  0300  00F6               	movwf	LcdMenu_NumMasK@Str
  2702                           
  2703                           ;LcdMenu.c: 202: u8 i = 0;
  2704  0301  01F7               	clrf	LcdMenu_NumMasK@i
  2705                           
  2706                           ;LcdMenu.c: 203: u8 count = 0;
  2707  0302  01F5               	clrf	LcdMenu_NumMasK@count
  2708  0303                     l13689:	
  2709                           ;LcdMenu.c: 204: while(Str[i] != '\0')
  2710                           
  2711  0303  0877               	movf	LcdMenu_NumMasK@i,w
  2712  0304  0776               	addwf	LcdMenu_NumMasK@Str,w
  2713  0305  00F4               	movwf	??_LcdMenu_NumMasK
  2714  0306  0084               	movwf	4
  2715  0307  0880               	movf	0,f
  2716  0308  1903               	btfsc	3,2
  2717  0309  0008               	return
  2718                           
  2719                           ;LcdMenu.c: 205: {
  2720                           ;LcdMenu.c: 206: if(Str[i] == ':')
  2721  030A  0877               	movf	LcdMenu_NumMasK@i,w
  2722  030B  0776               	addwf	LcdMenu_NumMasK@Str,w
  2723  030C  00F4               	movwf	??_LcdMenu_NumMasK
  2724  030D  0084               	movwf	4
  2725  030E  0800               	movf	0,w
  2726  030F  3A3A               	xorlw	58
  2727  0310  1903               	btfsc	3,2
  2728  0311  2B2E               	goto	l13671
  2729  0312  2B37               	goto	l13687
  2730  0313                     l13673:	
  2731                           ;LcdMenu.c: 209: while(Str[i] != 'm')
  2732                           
  2733                           
  2734                           ;LcdMenu.c: 210: {
  2735                           ;LcdMenu.c: 211: if(Str[i]>= '0' && Str[i] <= '9')
  2736  0313  0877               	movf	LcdMenu_NumMasK@i,w
  2737  0314  0776               	addwf	LcdMenu_NumMasK@Str,w
  2738  0315  00F4               	movwf	??_LcdMenu_NumMasK
  2739  0316  0084               	movwf	4
  2740  0317  3030               	movlw	48
  2741  0318  0200               	subwf	0,w
  2742  0319  1C03               	skipc
  2743  031A  2B2E               	goto	l13671
  2744  031B  0877               	movf	LcdMenu_NumMasK@i,w
  2745  031C  0776               	addwf	LcdMenu_NumMasK@Str,w
  2746  031D  00F4               	movwf	??_LcdMenu_NumMasK
  2747  031E  0084               	movwf	4
  2748  031F  303A               	movlw	58
  2749  0320  0200               	subwf	0,w
  2750  0321  1803               	skipnc
  2751  0322  2B2E               	goto	l13671
  2752                           
  2753                           ;LcdMenu.c: 212: {
  2754                           ;LcdMenu.c: 213: count++;
  2755  0323  0AF5               	incf	LcdMenu_NumMasK@count,f
  2756                           
  2757                           ;LcdMenu.c: 214: if(count == MaskBit)
  2758  0324  0875               	movf	LcdMenu_NumMasK@count,w
  2759  0325  0673               	xorwf	LcdMenu_NumMasK@MaskBit,w
  2760  0326  1D03               	skipz
  2761  0327  2B2E               	goto	l13671
  2762                           
  2763                           ;LcdMenu.c: 215: {
  2764                           ;LcdMenu.c: 216: Str[i] = ' ';
  2765  0328  0877               	movf	LcdMenu_NumMasK@i,w
  2766  0329  0776               	addwf	LcdMenu_NumMasK@Str,w
  2767  032A  00F4               	movwf	??_LcdMenu_NumMasK
  2768  032B  0084               	movwf	4
  2769  032C  3020               	movlw	32
  2770  032D  0080               	movwf	0
  2771  032E                     l13671:	
  2772                           
  2773                           ;LcdMenu.c: 207: {
  2774                           ;LcdMenu.c: 208: i++;
  2775  032E  0AF7               	incf	LcdMenu_NumMasK@i,f
  2776  032F  0877               	movf	LcdMenu_NumMasK@i,w
  2777  0330  0776               	addwf	LcdMenu_NumMasK@Str,w
  2778  0331  00F4               	movwf	??_LcdMenu_NumMasK
  2779  0332  0084               	movwf	4
  2780  0333  0800               	movf	0,w
  2781  0334  3A6D               	xorlw	109
  2782  0335  1D03               	skipz
  2783  0336  2B13               	goto	l13673
  2784  0337                     l13687:	
  2785                           
  2786                           ;LcdMenu.c: 220: }
  2787                           ;LcdMenu.c: 221: }
  2788                           ;LcdMenu.c: 222: i++;
  2789  0337  0AF7               	incf	LcdMenu_NumMasK@i,f
  2790  0338  2B03               	goto	l13689
  2791  0339                     __end_of_LcdMenu_NumMasK:	
  2792  0339                     __ptext819:	
  2793 ;; =============== function ___lwdiv ends ============
  2794                           
  2795                           
  2796 ;; *************** function ___wmul *****************
  2797 ;; Defined at:
  2798 ;;		line 3 in file "D:\Program Files (x86)\HI-TECH Software\PICC\9.83\sources\wmul.c"
  2799 ;; Parameters:    Size  Location     Type
  2800 ;;  multiplier      2    2[COMMON] unsigned int 
  2801 ;;  multiplicand    2    4[COMMON] unsigned int 
  2802 ;; Auto vars:     Size  Location     Type
  2803 ;;  product         2    6[COMMON] unsigned int 
  2804 ;; Return value:  Size  Location     Type
  2805 ;;                  2    2[COMMON] unsigned int 
  2806 ;; Registers used:
  2807 ;;		wreg, status,2, status,0
  2808 ;; Tracked objects:
  2809 ;;		On entry : 160/20
  2810 ;;		On exit  : 160/20
  2811 ;;		Unchanged: FFE9F/0
  2812 ;; Data sizes:     COMMON   BANK0   BANK1   BANK2
  2813 ;;      Params:         4       0       0       0
  2814 ;;      Locals:         2       0       0       0
  2815 ;;      Temps:          0       0       0       0
  2816 ;;      Totals:         6       0       0       0
  2817 ;;Total ram usage:        6 bytes
  2818 ;; Hardware stack levels used:    1
  2819 ;; Hardware stack levels required when called:    1
  2820 ;; This function calls:
  2821 ;;		Nothing
  2822 ;; This function is called by:
  2823 ;;		_LcdMenu_Setup
  2824 ;; This function uses a non-reentrant model
  2825 ;;
  2826  0339                     ___wmul:	
  2827                           
  2828                           ; Regs used in ___wmul: [wreg+status,2+status,0]
  2829  0339  01F7               	clrf	___wmul@product
  2830  033A  01F8               	clrf	___wmul@product+1
  2831  033B                     l13709:	
  2832  033B  1C73               	btfss	___wmul@multiplier,0
  2833  033C  2B43               	goto	l13713
  2834  033D  0875               	movf	___wmul@multiplicand,w
  2835  033E  07F7               	addwf	___wmul@product,f
  2836  033F  1803               	skipnc
  2837  0340  0AF8               	incf	___wmul@product+1,f
  2838  0341  0876               	movf	___wmul@multiplicand+1,w
  2839  0342  07F8               	addwf	___wmul@product+1,f
  2840  0343                     l13713:	
  2841  0343  1003               	clrc
  2842  0344  0DF5               	rlf	___wmul@multiplicand,f
  2843  0345  0DF6               	rlf	___wmul@multiplicand+1,f
  2844  0346  1003               	clrc
  2845  0347  0CF4               	rrf	___wmul@multiplier+1,f
  2846  0348  0CF3               	rrf	___wmul@multiplier,f
  2847  0349  0874               	movf	___wmul@multiplier+1,w
  2848  034A  0473               	iorwf	___wmul@multiplier,w
  2849  034B  1D03               	skipz
  2850  034C  2B3B               	goto	l13709
  2851  034D  0878               	movf	___wmul@product+1,w
  2852  034E  00F4               	movwf	?___wmul+1
  2853  034F  0877               	movf	___wmul@product,w
  2854  0350  00F3               	movwf	?___wmul
  2855  0351  0008               	return
  2856  0352                     __end_of___wmul:	
  2857  0352                     __ptext809:	
  2858 ;; =============== function _Lcd_WriteData ends ============
  2859                           
  2860                           
  2861 ;; *************** function _Lcd_WriteCmd *****************
  2862 ;; Defined at:
  2863 ;;		line 278 in file "Code/Driver/LCD/Lcd.c"
  2864 ;; Parameters:    Size  Location     Type
  2865 ;;  Cbyte           1    wreg     unsigned char 
  2866 ;; Auto vars:     Size  Location     Type
  2867 ;;  Cbyte           1    7[COMMON] unsigned char 
  2868 ;; Return value:  Size  Location     Type
  2869 ;;		None               void
  2870 ;; Registers used:
  2871 ;;		wreg, status,2, status,0, pclath, cstack
  2872 ;; Tracked objects:
  2873 ;;		On entry : 40/0
  2874 ;;		On exit  : 60/0
  2875 ;;		Unchanged: FFE00/0
  2876 ;; Data sizes:     COMMON   BANK0   BANK1   BANK2
  2877 ;;      Params:         0       0       0       0
  2878 ;;      Locals:         1       0       0       0
  2879 ;;      Temps:          0       0       0       0
  2880 ;;      Totals:         1       0       0       0
  2881 ;;Total ram usage:        1 bytes
  2882 ;; Hardware stack levels used:    1
  2883 ;; Hardware stack levels required when called:    3
  2884 ;; This function calls:
  2885 ;;		_CheckBusy
  2886 ;;		_SendByte
  2887 ;; This function is called by:
  2888 ;;		_Lcd_Init
  2889 ;;		_Lcd_StrDisp
  2890 ;; This function uses a non-reentrant model
  2891 ;;
  2892  0352                     _Lcd_WriteCmd:	
  2893                           
  2894                           ; Regs used in _Lcd_WriteCmd: [wreg+status,2+status,0+pclath+cstack]
  2895                           ;Lcd_WriteCmd@Cbyte stored from wreg
  2896  0352  00F8               	movwf	Lcd_WriteCmd@Cbyte
  2897                           
  2898                           ;Lcd.c: 280: (TRISE2=(0));
  2899                           
  2900                           ;Lcd.c: 281: (RE2=(1));
  2901  0353  25C4  118A         	fcall	PL13	;call to abstracted procedure
  2902                           
  2903                           ;Lcd.c: 282: CheckBusy();
  2904  0355  2363  118A         	fcall	_CheckBusy
  2905                           
  2906                           ;Lcd.c: 283: SendByte(0xf8);
  2907  0357  30F8               	movlw	248
  2908  0358  2521  118A         	fcall	_SendByte
  2909                           
  2910                           ;Lcd.c: 284: SendByte(0xf0&Cbyte);
  2911  035A  0878               	movf	Lcd_WriteCmd@Cbyte,w
  2912  035B  39F0               	andlw	240
  2913  035C  2521  118A         	fcall	_SendByte
  2914                           
  2915                           ;Lcd.c: 285: SendByte(0xf0&Cbyte<<4);
  2916  035E  0E78               	swapf	Lcd_WriteCmd@Cbyte,w
  2917  035F  39F0               	andlw	240
  2918  0360  2521               	fcall	_SendByte
  2919                           
  2920                           ;Lcd.c: 286: (RE2=(0));
  2921  0361  1109               	bcf	9,2
  2922  0362  0008               	return
  2923  0363                     __end_of_Lcd_WriteCmd:	
  2924  0363                     __ptext812:	
  2925 ;; =============== function _myitoa ends ============
  2926                           
  2927                           
  2928 ;; *************** function _CheckBusy *****************
  2929 ;; Defined at:
  2930 ;;		line 261 in file "Code/Driver/LCD/Lcd.c"
  2931 ;; Parameters:    Size  Location     Type
  2932 ;;		None
  2933 ;; Auto vars:     Size  Location     Type
  2934 ;;		None
  2935 ;; Return value:  Size  Location     Type
  2936 ;;		None               void
  2937 ;; Registers used:
  2938 ;;		wreg, status,2, status,0, pclath, cstack
  2939 ;; Tracked objects:
  2940 ;;		On entry : 60/0
  2941 ;;		On exit  : 60/0
  2942 ;;		Unchanged: FFE00/0
  2943 ;; Data sizes:     COMMON   BANK0   BANK1   BANK2
  2944 ;;      Params:         0       0       0       0
  2945 ;;      Locals:         0       0       0       0
  2946 ;;      Temps:          1       0       0       0
  2947 ;;      Totals:         1       0       0       0
  2948 ;;Total ram usage:        1 bytes
  2949 ;; Hardware stack levels used:    1
  2950 ;; Hardware stack levels required when called:    2
  2951 ;; This function calls:
  2952 ;;		_SendByte
  2953 ;;		_ReceiveByte
  2954 ;; This function is called by:
  2955 ;;		_Lcd_WriteCmd
  2956 ;;		_Lcd_WriteData
  2957 ;; This function uses a non-reentrant model
  2958 ;;
  2959  0363                     _CheckBusy:	
  2960  0363                     l6098:	
  2961                           ; Regs used in _CheckBusy: [wreg+status,2+status,0+pclath+cstack]
  2962                           ;Lcd.c: 262: do SendByte(0xfc);
  2963                           
  2964  0363  30FC               	movlw	252
  2965  0364  2521  118A         	fcall	_SendByte
  2966                           
  2967                           ;Lcd.c: 263: while(0x80&ReceiveByte());
  2968  0366  2540  118A         	fcall	_ReceiveByte
  2969  0368  00F7               	movwf	??_CheckBusy
  2970  0369  1FF7               	btfss	??_CheckBusy,7
  2971  036A  0008               	return
  2972  036B  2B63               	goto	l6098
  2973  036C                     __end_of_CheckBusy:	
  2974  036C                     __ptext807:	
  2975 ;; =============== function _Lcd_Init ends ============
  2976                           
  2977                           
  2978 ;; *************** function _LcdMenu_VPrintf *****************
  2979 ;; Defined at:
  2980 ;;		line 95 in file "Code/Driver/LCD/LcdMenu.c"
  2981 ;; Parameters:    Size  Location     Type
  2982 ;;  String          2   22[BANK0 ] PTR const unsigned char 
  2983 ;;		 -> STR_14(26), STR_13(26), STR_12(24), STR_11(9), 
  2984 ;;		 -> STR_10(21), STR_9(21), STR_8(18), STR_7(9), 
  2985 ;;		 -> STR_6(12), STR_5(12), STR_4(14), STR_3(13), 
  2986 ;;		 -> STR_2(12), STR_1(17), 
  2987 ;; Auto vars:     Size  Location     Type
  2988 ;;  StrBuf         20   33[BANK0 ] unsigned char [20]
  2989 ;;  index           2   61[BANK0 ] unsigned int 
  2990 ;;  d2              2   55[BANK0 ] int 
  2991 ;;  d1              2   53[BANK0 ] unsigned int 
  2992 ;;  i               1   60[BANK0 ] unsigned char 
  2993 ;;  pv_Start        1   59[BANK0 ] PTR void [1]
  2994 ;;		 -> ?_LcdMenu_VPrintf(0), 
  2995 ;;  p_Str           1   58[BANK0 ] PTR const unsigned char 
  2996 ;;  ch              1   57[BANK0 ] unsigned char 
  2997 ;; Return value:  Size  Location     Type
  2998 ;;		None               void
  2999 ;; Registers used:
  3000 ;;		wreg, fsr0l, fsr0h, status,2, status,0, btemp+1, pclath, cstack
  3001 ;; Tracked objects:
  3002 ;;		On entry : 60/0
  3003 ;;		On exit  : 160/0
  3004 ;;		Unchanged: FFE00/0
  3005 ;; Data sizes:     COMMON   BANK0   BANK1   BANK2
  3006 ;;      Params:         0      10       0       0
  3007 ;;      Locals:         0      30       0       0
  3008 ;;      Temps:          0       1       0       0
  3009 ;;      Totals:         0      41       0       0
  3010 ;;Total ram usage:       41 bytes
  3011 ;; Hardware stack levels used:    1
  3012 ;; Hardware stack levels required when called:    3
  3013 ;; This function calls:
  3014 ;;		_myitoa
  3015 ;; This function is called by:
  3016 ;;		_LcdMenu_Welcome
  3017 ;;		_LcdMenu_Setup
  3018 ;; This function uses a non-reentrant model
  3019 ;;
  3020  036C                     _LcdMenu_VPrintf:	
  3021  036C  3038               	movlw	(?_LcdMenu_VPrintf+2)& (0+255)
  3022                           
  3023                           ;LcdMenu.c: 96: va_list pv_Start;
  3024                           ;LcdMenu.c: 97: char ch;
  3025                           ;LcdMenu.c: 98: const char *p_Str;
  3026                           ;LcdMenu.c: 99: char StrBuf[20];
  3027                           ;LcdMenu.c: 100: unsigned int d1;
  3028                           ;LcdMenu.c: 101: int d2;
  3029                           ;LcdMenu.c: 102: unsigned index = 0;
  3030                           
  3031                           ; Regs used in _LcdMenu_VPrintf: [wreg-fsr0h+status,2+status,0+btemp+1+pclath+cstack]
  3032  036D  01DD               	clrf	LcdMenu_VPrintf@index
  3033  036E  01DE               	clrf	LcdMenu_VPrintf@index+1
  3034                           
  3035                           ;LcdMenu.c: 105: *pv_Start = __va_start();
  3036  036F  00DB               	movwf	LcdMenu_VPrintf@pv_Start
  3037  0370                     l14095:	
  3038                           ;LcdMenu.c: 107: while(*String)
  3039                           
  3040  0370  25D2               	fcall	PL16	;call to abstracted procedure
  3041  0371  118A  2600  118A   	fcall	stringtab
  3042  0374  3800               	iorlw	0
  3043  0375  1903               	btfsc	3,2
  3044  0376  2C1C               	goto	l14097
  3045                           
  3046                           ;LcdMenu.c: 108: {
  3047                           ;LcdMenu.c: 109: if((*String) != '%')
  3048  0377  0837               	movf	LcdMenu_VPrintf@String+1,w
  3049  0378  00FF               	movwf	127
  3050  0379  0836               	movf	LcdMenu_VPrintf@String,w
  3051  037A  0084               	movwf	4
  3052  037B  118A  2600  118A   	fcall	stringtab
  3053  037E  3A25               	xorlw	37
  3054  037F  1903               	skipnz
  3055  0380  2C01               	goto	l14091
  3056                           
  3057                           ;LcdMenu.c: 110: {
  3058                           ;LcdMenu.c: 111: LcdMenu_StrTemp[index] = *String++;
  3059  0381  0837               	movf	LcdMenu_VPrintf@String+1,w
  3060  0382  00FF               	movwf	127
  3061  0383  0836               	movf	LcdMenu_VPrintf@String,w
  3062  0384  0084               	movwf	4
  3063  0385  118A  2600  118A   	fcall	stringtab
  3064  0388  2597  118A         	fcall	PL6	;call to abstracted procedure
  3065  038A  1383               	bcf	3,7	;select IRP bank1
  3066  038B  0080               	movwf	0
  3067  038C  0AB6               	incf	LcdMenu_VPrintf@String,f
  3068  038D  1903               	skipnz
  3069  038E  0AB7               	incf	LcdMenu_VPrintf@String+1,f
  3070                           
  3071                           ;LcdMenu.c: 112: index++;
  3072  038F  0ADD               	incf	LcdMenu_VPrintf@index,f
  3073  0390  1903               	skipnz
  3074  0391  0ADE               	incf	LcdMenu_VPrintf@index+1,f
  3075                           
  3076                           ;LcdMenu.c: 113: }
  3077  0392  2B70               	goto	l14095
  3078  0393                     l14039:	
  3079                           
  3080                           ;LcdMenu.c: 120: p_Str = (*(const char* *)__va_arg((*(const char* **)pv_Start), (const c
      +                          har*)0));
  3081  0393  085B               	movf	LcdMenu_VPrintf@pv_Start,w
  3082  0394  0084               	movwf	4
  3083  0395  1383               	bcf	3,7	;select IRP bank0
  3084  0396  0800               	movf	0,w
  3085  0397  00DA               	movwf	LcdMenu_VPrintf@p_Str
  3086  0398  0ADB               	incf	LcdMenu_VPrintf@pv_Start,f
  3087  0399                     l7640:	
  3088                           ;LcdMenu.c: 122: while(*p_Str)
  3089                           
  3090  0399  085A               	movf	LcdMenu_VPrintf@p_Str,w
  3091  039A  0084               	movwf	4
  3092  039B  0880               	movf	0,f
  3093  039C  1903               	btfsc	3,2
  3094  039D  2C18               	goto	l14093
  3095                           
  3096                           ;LcdMenu.c: 123: {
  3097                           ;LcdMenu.c: 124: LcdMenu_StrTemp[index] = *p_Str++;
  3098  039E  085A               	movf	LcdMenu_VPrintf@p_Str,w
  3099  039F  0084               	movwf	4
  3100  03A0  0800               	movf	0,w
  3101  03A1  2597  118A         	fcall	PL6	;call to abstracted procedure
  3102  03A3  0080               	movwf	0
  3103  03A4  0ADA               	incf	LcdMenu_VPrintf@p_Str,f
  3104                           
  3105                           ;LcdMenu.c: 125: index++;
  3106  03A5  0ADD               	incf	LcdMenu_VPrintf@index,f
  3107  03A6  1903               	skipnz
  3108  03A7  0ADE               	incf	LcdMenu_VPrintf@index+1,f
  3109  03A8  2B99               	goto	l7640
  3110  03A9                     l14049:	
  3111                           
  3112                           ;LcdMenu.c: 132: d1 = (*(unsigned int *)__va_arg((*(unsigned int **)pv_Start), (unsigned
      +                           int)0));
  3113  03A9  085B               	movf	LcdMenu_VPrintf@pv_Start,w
  3114  03AA  0084               	movwf	4
  3115  03AB  1383               	bcf	3,7	;select IRP bank0
  3116  03AC  0800               	movf	0,w
  3117  03AD  00D5               	movwf	LcdMenu_VPrintf@d1
  3118  03AE  0A84               	incf	4,f
  3119  03AF  0800               	movf	0,w
  3120  03B0  00D6               	movwf	LcdMenu_VPrintf@d1+1
  3121  03B1  0ADB               	incf	LcdMenu_VPrintf@pv_Start,f
  3122  03B2  0ADB               	incf	LcdMenu_VPrintf@pv_Start,f
  3123                           
  3124                           ;LcdMenu.c: 134: myitoa(d1,StrBuf,16);
  3125  03B3  00A6               	movwf	?_myitoa+1
  3126  03B4  0855               	movf	LcdMenu_VPrintf@d1,w
  3127  03B5  00A5               	movwf	?_myitoa
  3128  03B6  3041               	movlw	LcdMenu_VPrintf@StrBuf& (0+255)
  3129  03B7  00A7               	movwf	?_myitoa+2
  3130  03B8  3010               	movlw	16
  3131  03B9  00A8               	movwf	?_myitoa+3
  3132  03BA  01A9               	clrf	?_myitoa+4
  3133  03BB  2422  118A         	fcall	_myitoa
  3134                           
  3135                           ;LcdMenu.c: 136: i = 0;
  3136  03BD  01DC               	clrf	LcdMenu_VPrintf@i
  3137  03BE                     l7645:	
  3138                           ;LcdMenu.c: 137: while(StrBuf[i] != '\0')
  3139                           
  3140  03BE  25CD  118A         	fcall	PL15	;call to abstracted procedure
  3141  03C0  1903               	btfsc	3,2
  3142  03C1  2C18               	goto	l14093
  3143                           
  3144                           ;LcdMenu.c: 138: {
  3145                           ;LcdMenu.c: 139: LcdMenu_StrTemp[index] = StrBuf[i];
  3146  03C2  085C               	movf	LcdMenu_VPrintf@i,w
  3147                           
  3148                           ;LcdMenu.c: 140: i++;
  3149                           
  3150                           ;LcdMenu.c: 141: index++;
  3151  03C3  2583  118A         	fcall	PL4	;call to abstracted procedure
  3152  03C5  1903               	skipnz
  3153  03C6  0ADE               	incf	LcdMenu_VPrintf@index+1,f
  3154  03C7  2BBE               	goto	l7645
  3155  03C8                     l14063:	
  3156                           
  3157                           ;LcdMenu.c: 149: d2 = (*(char *)__va_arg((*(char **)pv_Start), (char)0));
  3158  03C8  085B               	movf	LcdMenu_VPrintf@pv_Start,w
  3159  03C9  0084               	movwf	4
  3160  03CA  1383               	bcf	3,7	;select IRP bank0
  3161  03CB  0800               	movf	0,w
  3162  03CC  00D7               	movwf	LcdMenu_VPrintf@d2
  3163  03CD  01D8               	clrf	LcdMenu_VPrintf@d2+1
  3164  03CE  0ADB               	incf	LcdMenu_VPrintf@pv_Start,f
  3165  03CF  0ADB               	incf	LcdMenu_VPrintf@pv_Start,f
  3166                           
  3167                           ;LcdMenu.c: 151: myitoa(d2,StrBuf,10);
  3168  03D0  0858               	movf	LcdMenu_VPrintf@d2+1,w
  3169  03D1  00A6               	movwf	?_myitoa+1
  3170  03D2  0857               	movf	LcdMenu_VPrintf@d2,w
  3171  03D3  00A5               	movwf	?_myitoa
  3172  03D4  3041               	movlw	LcdMenu_VPrintf@StrBuf& (0+255)
  3173  03D5  00A7               	movwf	?_myitoa+2
  3174  03D6  300A               	movlw	10
  3175  03D7  00A8               	movwf	?_myitoa+3
  3176  03D8  01A9               	clrf	?_myitoa+4
  3177  03D9  2422  118A         	fcall	_myitoa
  3178                           
  3179                           ;LcdMenu.c: 153: i = 0;
  3180  03DB  01DC               	clrf	LcdMenu_VPrintf@i
  3181  03DC                     l7649:	
  3182                           ;LcdMenu.c: 154: while(StrBuf[i] != '\0')
  3183                           
  3184  03DC  25CD  118A         	fcall	PL15	;call to abstracted procedure
  3185  03DE  1903               	btfsc	3,2
  3186  03DF  2C18               	goto	l14093
  3187                           
  3188                           ;LcdMenu.c: 155: {
  3189                           ;LcdMenu.c: 156: LcdMenu_StrTemp[index] = StrBuf[i];
  3190  03E0  085C               	movf	LcdMenu_VPrintf@i,w
  3191                           
  3192                           ;LcdMenu.c: 157: i++;
  3193                           
  3194                           ;LcdMenu.c: 158: index++;
  3195  03E1  2583  118A         	fcall	PL4	;call to abstracted procedure
  3196  03E3  1903               	skipnz
  3197  03E4  0ADE               	incf	LcdMenu_VPrintf@index+1,f
  3198  03E5  2BDC               	goto	l7649
  3199  03E6                     l14077:	
  3200                           
  3201                           ;LcdMenu.c: 165: ch = (*(char *)__va_arg((*(char **)pv_Start), (char)0));
  3202  03E6  085B               	movf	LcdMenu_VPrintf@pv_Start,w
  3203  03E7  0084               	movwf	4
  3204  03E8  1383               	bcf	3,7	;select IRP bank0
  3205  03E9  0800               	movf	0,w
  3206  03EA  00D9               	movwf	LcdMenu_VPrintf@ch
  3207  03EB  0ADB               	incf	LcdMenu_VPrintf@pv_Start,f
  3208  03EC  0ADB               	incf	LcdMenu_VPrintf@pv_Start,f
  3209                           
  3210                           ;LcdMenu.c: 167: LcdMenu_StrTemp[index] = ch;
  3211  03ED  085D               	movf	LcdMenu_VPrintf@index,w
  3212  03EE  3EAE               	addlw	_LcdMenu_StrTemp& (0+255)
  3213  03EF  0084               	movwf	4
  3214  03F0  0859               	movf	LcdMenu_VPrintf@ch,w
  3215  03F1                     L3:	
  3216  03F1  0080               	movwf	0
  3217                           
  3218                           ;LcdMenu.c: 169: index++;
  3219  03F2  0ADD               	incf	LcdMenu_VPrintf@index,f
  3220  03F3  1903               	skipnz
  3221  03F4  0ADE               	incf	LcdMenu_VPrintf@index+1,f
  3222                           
  3223                           ;LcdMenu.c: 171: break;
  3224  03F5  2C18               	goto	l14093
  3225  03F6                     l14083:	
  3226                           
  3227                           ;LcdMenu.c: 175: ch = *String;
  3228  03F6  25D2               	fcall	PL16	;call to abstracted procedure
  3229  03F7  118A  2600  118A   	fcall	stringtab
  3230  03FA  00D9               	movwf	LcdMenu_VPrintf@ch
  3231                           
  3232                           ;LcdMenu.c: 177: LcdMenu_StrTemp[index] = ch;
  3233  03FB  085D               	movf	LcdMenu_VPrintf@index,w
  3234  03FC  3EAE               	addlw	_LcdMenu_StrTemp& (0+255)
  3235  03FD  0084               	movwf	4
  3236  03FE  0859               	movf	LcdMenu_VPrintf@ch,w
  3237  03FF  1383               	bcf	3,7	;select IRP bank1
  3238  0400  2BF1               	goto	L3
  3239  0401                     l14091:	
  3240  0401  0AB6               	incf	LcdMenu_VPrintf@String,f
  3241  0402  1903               	skipnz
  3242  0403  0AB7               	incf	LcdMenu_VPrintf@String+1,f
  3243  0404  0837               	movf	LcdMenu_VPrintf@String+1,w
  3244  0405  00FF               	movwf	127
  3245  0406  0836               	movf	LcdMenu_VPrintf@String,w
  3246  0407  0084               	movwf	4
  3247  0408  118A  2600  118A   	fcall	stringtab
  3248                           
  3249                           ; Switch size 1, requested type "space"
  3250                           ; Number of cases is 4, Range of values is 99 to 120
  3251                           ; switch strategies available:
  3252                           ; Name         Instructions Cycles
  3253                           ; simple_byte           13     7 (average)
  3254                           ; direct_byte           54    10 (fixed)
  3255                           ; jumptable            263     9 (fixed)
  3256                           ;	Chosen strategy is simple_byte
  3257  040B  3A63               	xorlw	99	; case 99
  3258  040C  1903               	skipnz
  3259  040D  2BE6               	goto	l14077
  3260  040E  3A07               	xorlw	7	; case 100
  3261  040F  1903               	skipnz
  3262  0410  2BC8               	goto	l14063
  3263  0411  3A17               	xorlw	23	; case 115
  3264  0412  1903               	skipnz
  3265  0413  2B93               	goto	l14039
  3266  0414  3A0B               	xorlw	11	; case 120
  3267  0415  1903               	skipnz
  3268  0416  2BA9               	goto	l14049
  3269  0417  2BF6               	goto	l14083
  3270  0418                     l14093:	
  3271                           
  3272                           ;LcdMenu.c: 184: String++;
  3273  0418  0AB6               	incf	LcdMenu_VPrintf@String,f
  3274  0419  1903               	skipnz
  3275  041A  0AB7               	incf	LcdMenu_VPrintf@String+1,f
  3276  041B  2B70               	goto	l14095
  3277  041C                     l14097:	
  3278                           
  3279                           ;LcdMenu.c: 185: }
  3280                           ;LcdMenu.c: 186: }
  3281                           ;LcdMenu.c: 188: LcdMenu_StrTemp[index] = '\0';
  3282  041C  085D               	movf	LcdMenu_VPrintf@index,w
  3283  041D  3EAE               	addlw	_LcdMenu_StrTemp& (0+255)
  3284  041E  0084               	movwf	4
  3285  041F  1383               	bcf	3,7	;select IRP bank1
  3286  0420  0180               	clrf	0
  3287  0421  0008               	return
  3288  0422                     __end_of_LcdMenu_VPrintf:	
  3289  0422                     __ptext811:	
  3290 ;; =============== function _Key_Debounce ends ============
  3291                           
  3292                           
  3293 ;; *************** function _myitoa *****************
  3294 ;; Defined at:
  3295 ;;		line 41 in file "Code/Driver/LCD/LcdMenu.c"
  3296 ;; Parameters:    Size  Location     Type
  3297 ;;  value           2    5[BANK0 ] int 
  3298 ;;  str             1    7[BANK0 ] PTR unsigned char 
  3299 ;;		 -> LcdMenu_VPrintf@StrBuf(20), 
  3300 ;;  radix           2    8[BANK0 ] int 
  3301 ;; Auto vars:     Size  Location     Type
  3302 ;;  nIndex          2   19[BANK0 ] int 
  3303 ;;  nCount          2   17[BANK0 ] int 
  3304 ;;  nValue          2   15[BANK0 ] unsigned int 
  3305 ;;  pStr            1   21[BANK0 ] PTR unsigned char 
  3306 ;;		 -> LcdMenu_VPrintf@StrBuf(20), 
  3307 ;;  nTemp           1   14[BANK0 ] unsigned char 
  3308 ;; Return value:  Size  Location     Type
  3309 ;;                  1    wreg      PTR unsigned char 
  3310 ;; Registers used:
  3311 ;;		wreg, fsr0l, fsr0h, status,2, status,0, btemp+1, pclath, cstack
  3312 ;; Tracked objects:
  3313 ;;		On entry : 160/0
  3314 ;;		On exit  : 160/0
  3315 ;;		Unchanged: FFE00/0
  3316 ;; Data sizes:     COMMON   BANK0   BANK1   BANK2
  3317 ;;      Params:         0       5       0       0
  3318 ;;      Locals:         0       8       0       0
  3319 ;;      Temps:          0       4       0       0
  3320 ;;      Totals:         0      17       0       0
  3321 ;;Total ram usage:       17 bytes
  3322 ;; Hardware stack levels used:    1
  3323 ;; Hardware stack levels required when called:    2
  3324 ;; This function calls:
  3325 ;;		___lwmod
  3326 ;;		___lwdiv
  3327 ;;		___awdiv
  3328 ;; This function is called by:
  3329 ;;		_LcdMenu_VPrintf
  3330 ;; This function uses a non-reentrant model
  3331 ;;
  3332  0422                     _myitoa:	
  3333                           
  3334                           ;LcdMenu.c: 42: int nCount = -1, nIndex;
  3335                           
  3336                           ; Regs used in _myitoa: [wreg-fsr0h+status,2+status,0+btemp+1+pclath+cstack]
  3337  0422  30FF               	movlw	255
  3338  0423  00B1               	movwf	myitoa@nCount
  3339  0424  00B2               	movwf	myitoa@nCount+1
  3340                           
  3341                           ;LcdMenu.c: 43: char *pStr = str, nTemp;
  3342  0425  0827               	movf	myitoa@str,w
  3343  0426  00B5               	movwf	myitoa@pStr
  3344                           
  3345                           ;LcdMenu.c: 44: unsigned int nValue;
  3346                           ;LcdMenu.c: 47: static char szMap[] =
  3347                           ;LcdMenu.c: 48: {
  3348                           ;LcdMenu.c: 49: '0', '1', '2', '3', '4', '5',
  3349                           ;LcdMenu.c: 50: '6', '7', '8', '9', 'a', 'b',
  3350                           ;LcdMenu.c: 51: 'c', 'd', 'e', 'f', 'g', 'h',
  3351                           ;LcdMenu.c: 52: 'i', 'j', 'k', 'l', 'm', 'n',
  3352                           ;LcdMenu.c: 53: 'o', 'p', 'q', 'r', 's', 't',
  3353                           ;LcdMenu.c: 54: 'u', 'v', 'w', 'x', 'y', 'z'
  3354                           ;LcdMenu.c: 55: };
  3355                           ;LcdMenu.c: 57: if(radix >= 2 && radix <= 36)
  3356  0427  25B5  118A         	fcall	PL10	;call to abstracted procedure
  3357  0429  1D03               	skipz
  3358  042A  2C2D               	goto	u2535
  3359  042B  3002               	movlw	2
  3360  042C  0228               	subwf	myitoa@radix,w
  3361  042D                     u2535:	
  3362  042D  1C03               	skipc
  3363  042E  2CA8               	goto	l13979
  3364  042F  1283               	bcf	3,5	;RP0=0, select bank0
  3365  0430  1303               	bcf	3,6	;RP1=0, select bank0
  3366  0431  25B5  118A         	fcall	PL10	;call to abstracted procedure
  3367  0433  1D03               	skipz
  3368  0434  2C37               	goto	u2545
  3369  0435  3025               	movlw	37
  3370  0436  0228               	subwf	myitoa@radix,w
  3371  0437                     u2545:	
  3372  0437  1803               	skipnc
  3373  0438  2CA8               	goto	l13979
  3374                           
  3375                           ;LcdMenu.c: 58: {
  3376                           ;LcdMenu.c: 59: if( value < 0 && radix == 10 )
  3377  0439  1283               	bcf	3,5	;RP0=0, select bank0
  3378  043A  1303               	bcf	3,6	;RP1=0, select bank0
  3379  043B  1FA6               	btfss	myitoa@value+1,7
  3380  043C  2C4D               	goto	l13967
  3381  043D  0828               	movf	myitoa@radix,w
  3382  043E  3A0A               	xorlw	10
  3383  043F  0429               	iorwf	myitoa@radix+1,w
  3384  0440  1D03               	skipz
  3385  0441  2C4D               	goto	l13967
  3386                           
  3387                           ;LcdMenu.c: 60: {
  3388                           ;LcdMenu.c: 61: *pStr++ = '-';
  3389  0442  0835               	movf	myitoa@pStr,w
  3390  0443  0084               	movwf	4
  3391  0444  302D               	movlw	45
  3392  0445  1383               	bcf	3,7	;select IRP bank0
  3393  0446  0080               	movwf	0
  3394  0447  0AB5               	incf	myitoa@pStr,f
  3395                           
  3396                           ;LcdMenu.c: 62: value = -value;
  3397  0448  09A5               	comf	myitoa@value,f
  3398  0449  09A6               	comf	myitoa@value+1,f
  3399  044A  0AA5               	incf	myitoa@value,f
  3400  044B  1903               	skipnz
  3401  044C  0AA6               	incf	myitoa@value+1,f
  3402  044D                     l13967:	
  3403                           
  3404                           ;LcdMenu.c: 63: }
  3405                           ;LcdMenu.c: 65: nValue = *(unsigned *)&value;
  3406  044D  0826               	movf	myitoa@value+1,w
  3407  044E  00B0               	movwf	myitoa@nValue+1
  3408  044F  0825               	movf	myitoa@value,w
  3409  0450  00AF               	movwf	myitoa@nValue
  3410  0451                     l13969:	
  3411                           
  3412                           ;LcdMenu.c: 68: {
  3413                           ;LcdMenu.c: 69: pStr[ ++nCount ] = szMap[ nValue % radix ];
  3414  0451  0829               	movf	myitoa@radix+1,w
  3415  0452  00A1               	movwf	?___lwmod+1
  3416  0453  0828               	movf	myitoa@radix,w
  3417  0454  00A0               	movwf	?___lwmod
  3418  0455  0830               	movf	myitoa@nValue+1,w
  3419  0456  00A3               	movwf	?___lwmod+3
  3420  0457  082F               	movf	myitoa@nValue,w
  3421  0458  00A2               	movwf	?___lwmod+2
  3422  0459  229A  118A         	fcall	___lwmod
  3423  045B  0820               	movf	?___lwmod,w
  3424  045C  3E20               	addlw	myitoa@szMap& (0+255)
  3425  045D  0084               	movwf	4
  3426  045E  1783               	bsf	3,7	;select IRP bank2
  3427  045F  0800               	movf	0,w
  3428  0460  00AA               	movwf	??_myitoa
  3429  0461  0AB1               	incf	myitoa@nCount,f
  3430  0462  1903               	skipnz
  3431  0463  0AB2               	incf	myitoa@nCount+1,f
  3432  0464  0831               	movf	myitoa@nCount,w
  3433  0465  0735               	addwf	myitoa@pStr,w
  3434  0466  00AB               	movwf	??_myitoa+1
  3435  0467  0084               	movwf	4
  3436  0468  082A               	movf	??_myitoa,w
  3437  0469  1383               	bcf	3,7	;select IRP bank0
  3438  046A  0080               	movwf	0
  3439                           
  3440                           ;LcdMenu.c: 70: nValue /= radix;
  3441  046B  0829               	movf	myitoa@radix+1,w
  3442  046C  00F4               	movwf	?___lwdiv+1
  3443  046D  0828               	movf	myitoa@radix,w
  3444  046E  00F3               	movwf	?___lwdiv
  3445  046F  0830               	movf	myitoa@nValue+1,w
  3446  0470  00F6               	movwf	?___lwdiv+3
  3447  0471  082F               	movf	myitoa@nValue,w
  3448  0472  00F5               	movwf	?___lwdiv+2
  3449  0473  24B2  118A         	fcall	___lwdiv
  3450  0475  0874               	movf	?___lwdiv+1,w
  3451  0476  00B0               	movwf	myitoa@nValue+1
  3452  0477  0873               	movf	?___lwdiv,w
  3453  0478  00AF               	movwf	myitoa@nValue
  3454                           
  3455                           ;LcdMenu.c: 71: } while( nValue > 0 );
  3456  0479  0430               	iorwf	myitoa@nValue+1,w
  3457  047A  1D03               	skipz
  3458  047B  2C51               	goto	l13969
  3459                           
  3460                           ;LcdMenu.c: 73: nIndex = ( nCount + 1 ) / 2;
  3461  047C  3002               	movlw	2
  3462  047D  00F3               	movwf	?___awdiv
  3463  047E  01F4               	clrf	?___awdiv+1
  3464  047F  0831               	movf	myitoa@nCount,w
  3465  0480  3E01               	addlw	1
  3466  0481  00F5               	movwf	?___awdiv+2
  3467  0482  0832               	movf	myitoa@nCount+1,w
  3468  0483  1803               	skipnc
  3469  0484  3E01               	addlw	1
  3470  0485  3E00               	addlw	0
  3471  0486  00F6               	movwf	?___awdiv+3
  3472  0487  24DC  118A         	fcall	___awdiv
  3473  0489  0874               	movf	?___awdiv+1,w
  3474  048A  00B4               	movwf	myitoa@nIndex+1
  3475  048B  0873               	movf	?___awdiv,w
  3476  048C  00B3               	movwf	myitoa@nIndex
  3477  048D                     l13977:	
  3478                           ;LcdMenu.c: 75: while( nIndex-- > 0 )
  3479                           
  3480  048D  30FF               	movlw	-1
  3481  048E  07B3               	addwf	myitoa@nIndex,f
  3482  048F  1C03               	skipc
  3483  0490  03B4               	decf	myitoa@nIndex+1,f
  3484  0491  1BB4               	btfsc	myitoa@nIndex+1,7
  3485  0492  2CA8               	goto	l13979
  3486                           
  3487                           ;LcdMenu.c: 76: {
  3488                           ;LcdMenu.c: 77: nTemp = pStr[ nIndex ];
  3489  0493  0833               	movf	myitoa@nIndex,w
  3490  0494  0735               	addwf	myitoa@pStr,w
  3491  0495  00AA               	movwf	??_myitoa
  3492  0496  0084               	movwf	4
  3493  0497  0800               	movf	0,w
  3494  0498  00AE               	movwf	myitoa@nTemp
  3495                           
  3496                           ;LcdMenu.c: 78: pStr[ nIndex ] = pStr[ nCount - nIndex ];
  3497  0499  25AC  118A         	fcall	PL9	;call to abstracted procedure
  3498  049B  0800               	movf	0,w
  3499  049C  00AC               	movwf	??_myitoa+2
  3500  049D  0833               	movf	myitoa@nIndex,w
  3501  049E  0735               	addwf	myitoa@pStr,w
  3502  049F  00AD               	movwf	??_myitoa+3
  3503  04A0  0084               	movwf	4
  3504  04A1  082C               	movf	??_myitoa+2,w
  3505  04A2  0080               	movwf	0
  3506                           
  3507                           ;LcdMenu.c: 79: pStr[ nCount - nIndex ] = nTemp;
  3508  04A3  25AC  118A         	fcall	PL9	;call to abstracted procedure
  3509  04A5  082E               	movf	myitoa@nTemp,w
  3510  04A6  0080               	movwf	0
  3511  04A7  2C8D               	goto	l13977
  3512  04A8                     l13979:	
  3513                           
  3514                           ;LcdMenu.c: 80: }
  3515                           ;LcdMenu.c: 81: }
  3516                           ;LcdMenu.c: 83: pStr[ nCount + 1 ] = '\0';
  3517  04A8  1283               	bcf	3,5	;RP0=0, select bank0
  3518  04A9  1303               	bcf	3,6	;RP1=0, select bank0
  3519  04AA  0831               	movf	myitoa@nCount,w
  3520  04AB  0735               	addwf	myitoa@pStr,w
  3521  04AC  00AA               	movwf	??_myitoa
  3522  04AD  3E01               	addlw	1
  3523  04AE  0084               	movwf	4
  3524  04AF  1383               	bcf	3,7	;select IRP bank0
  3525  04B0  0180               	clrf	0
  3526  04B1  0008               	return
  3527  04B2                     __end_of_myitoa:	
  3528  04B2                     __ptext818:	
  3529 ;; =============== function ___lwmod ends ============
  3530                           
  3531                           
  3532 ;; *************** function ___lwdiv *****************
  3533 ;; Defined at:
  3534 ;;		line 5 in file "D:\Program Files (x86)\HI-TECH Software\PICC\9.83\sources\lwdiv.c"
  3535 ;; Parameters:    Size  Location     Type
  3536 ;;  divisor         2    2[COMMON] unsigned int 
  3537 ;;  dividend        2    4[COMMON] unsigned int 
  3538 ;; Auto vars:     Size  Location     Type
  3539 ;;  quotient        2    7[COMMON] unsigned int 
  3540 ;;  counter         1    6[COMMON] unsigned char 
  3541 ;; Return value:  Size  Location     Type
  3542 ;;                  2    2[COMMON] unsigned int 
  3543 ;; Registers used:
  3544 ;;		wreg, status,2, status,0
  3545 ;; Tracked objects:
  3546 ;;		On entry : 160/0
  3547 ;;		On exit  : 160/0
  3548 ;;		Unchanged: FFE9F/0
  3549 ;; Data sizes:     COMMON   BANK0   BANK1   BANK2
  3550 ;;      Params:         4       0       0       0
  3551 ;;      Locals:         3       0       0       0
  3552 ;;      Temps:          0       0       0       0
  3553 ;;      Totals:         7       0       0       0
  3554 ;;Total ram usage:        7 bytes
  3555 ;; Hardware stack levels used:    1
  3556 ;; Hardware stack levels required when called:    1
  3557 ;; This function calls:
  3558 ;;		Nothing
  3559 ;; This function is called by:
  3560 ;;		_myitoa
  3561 ;;		_LcdMenu_Setup
  3562 ;; This function uses a non-reentrant model
  3563 ;;
  3564  04B2                     ___lwdiv:	
  3565                           
  3566                           ; Regs used in ___lwdiv: [wreg+status,2+status,0]
  3567  04B2  01F8               	clrf	___lwdiv@quotient
  3568  04B3  01F9               	clrf	___lwdiv@quotient+1
  3569  04B4  0874               	movf	___lwdiv@divisor+1,w
  3570  04B5  0473               	iorwf	___lwdiv@divisor,w
  3571  04B6  1903               	skipnz
  3572  04B7  2CD7               	goto	l13745
  3573  04B8  01F7               	clrf	___lwdiv@counter
  3574  04B9                     L25:	
  3575  04B9  0AF7               	incf	___lwdiv@counter,f
  3576  04BA  1BF4               	btfsc	___lwdiv@divisor+1,7
  3577  04BB  2CC0               	goto	l13733
  3578  04BC  1003               	clrc
  3579  04BD  0DF3               	rlf	___lwdiv@divisor,f
  3580  04BE  0DF4               	rlf	___lwdiv@divisor+1,f
  3581  04BF  2CB9               	goto	L25
  3582  04C0                     l13733:	
  3583  04C0  1003               	clrc
  3584  04C1  0DF8               	rlf	___lwdiv@quotient,f
  3585  04C2  0DF9               	rlf	___lwdiv@quotient+1,f
  3586  04C3  0874               	movf	___lwdiv@divisor+1,w
  3587  04C4  0276               	subwf	___lwdiv@dividend+1,w
  3588  04C5  1D03               	skipz
  3589  04C6  2CC9               	goto	u2325
  3590  04C7  0873               	movf	___lwdiv@divisor,w
  3591  04C8  0275               	subwf	___lwdiv@dividend,w
  3592  04C9                     u2325:	
  3593  04C9  1C03               	skipc
  3594  04CA  2CD3               	goto	L26
  3595  04CB  0873               	movf	___lwdiv@divisor,w
  3596  04CC  02F5               	subwf	___lwdiv@dividend,f
  3597  04CD  0874               	movf	___lwdiv@divisor+1,w
  3598  04CE  1C03               	skipc
  3599  04CF  03F6               	decf	___lwdiv@dividend+1,f
  3600  04D0  02F6               	subwf	___lwdiv@dividend+1,f
  3601  04D1  1478               	bsf	___lwdiv@quotient,0
  3602  04D2  1003               	clrc
  3603  04D3                     L26:	
  3604  04D3  0CF4               	rrf	___lwdiv@divisor+1,f
  3605  04D4  0CF3               	rrf	___lwdiv@divisor,f
  3606  04D5  0BF7               	decfsz	___lwdiv@counter,f
  3607  04D6  2CC0               	goto	l13733
  3608  04D7                     l13745:	
  3609  04D7  0879               	movf	___lwdiv@quotient+1,w
  3610  04D8  00F4               	movwf	?___lwdiv+1
  3611  04D9  0878               	movf	___lwdiv@quotient,w
  3612  04DA  00F3               	movwf	?___lwdiv
  3613  04DB  0008               	return
  3614  04DC                     __end_of___lwdiv:	
  3615  04DC                     __ptext814:	
  3616 ;; =============== function _Key_PutEvent ends ============
  3617                           
  3618                           
  3619 ;; *************** function ___awdiv *****************
  3620 ;; Defined at:
  3621 ;;		line 5 in file "D:\Program Files (x86)\HI-TECH Software\PICC\9.83\sources\awdiv.c"
  3622 ;; Parameters:    Size  Location     Type
  3623 ;;  divisor         2    2[COMMON] int 
  3624 ;;  dividend        2    4[COMMON] int 
  3625 ;; Auto vars:     Size  Location     Type
  3626 ;;  quotient        2    2[BANK0 ] int 
  3627 ;;  sign            1    1[BANK0 ] unsigned char 
  3628 ;;  counter         1    0[BANK0 ] unsigned char 
  3629 ;; Return value:  Size  Location     Type
  3630 ;;                  2    2[COMMON] int 
  3631 ;; Registers used:
  3632 ;;		wreg, status,2, status,0
  3633 ;; Tracked objects:
  3634 ;;		On entry : 160/0
  3635 ;;		On exit  : 160/0
  3636 ;;		Unchanged: FFE9F/0
  3637 ;; Data sizes:     COMMON   BANK0   BANK1   BANK2
  3638 ;;      Params:         4       0       0       0
  3639 ;;      Locals:         0       4       0       0
  3640 ;;      Temps:          0       0       0       0
  3641 ;;      Totals:         4       4       0       0
  3642 ;;Total ram usage:        8 bytes
  3643 ;; Hardware stack levels used:    1
  3644 ;; Hardware stack levels required when called:    1
  3645 ;; This function calls:
  3646 ;;		Nothing
  3647 ;; This function is called by:
  3648 ;;		_myitoa
  3649 ;; This function uses a non-reentrant model
  3650 ;;
  3651  04DC                     ___awdiv:	
  3652                           
  3653                           ; Regs used in ___awdiv: [wreg+status,2+status,0]
  3654  04DC  01A1               	clrf	___awdiv@sign
  3655  04DD  1FF4               	btfss	___awdiv@divisor+1,7
  3656  04DE  2CE6               	goto	l13819
  3657  04DF  09F3               	comf	___awdiv@divisor,f
  3658  04E0  09F4               	comf	___awdiv@divisor+1,f
  3659  04E1  0AF3               	incf	___awdiv@divisor,f
  3660  04E2  1903               	skipnz
  3661  04E3  0AF4               	incf	___awdiv@divisor+1,f
  3662  04E4  01A1               	clrf	___awdiv@sign
  3663  04E5  0AA1               	incf	___awdiv@sign,f
  3664  04E6                     l13819:	
  3665  04E6  1FF6               	btfss	___awdiv@dividend+1,7
  3666  04E7  2CEF               	goto	l13825
  3667  04E8  09F5               	comf	___awdiv@dividend,f
  3668  04E9  09F6               	comf	___awdiv@dividend+1,f
  3669  04EA  0AF5               	incf	___awdiv@dividend,f
  3670  04EB  1903               	skipnz
  3671  04EC  0AF6               	incf	___awdiv@dividend+1,f
  3672  04ED  3001               	movlw	1
  3673  04EE  06A1               	xorwf	___awdiv@sign,f
  3674  04EF                     l13825:	
  3675  04EF  01A2               	clrf	___awdiv@quotient
  3676  04F0  01A3               	clrf	___awdiv@quotient+1
  3677  04F1  0874               	movf	___awdiv@divisor+1,w
  3678  04F2  0473               	iorwf	___awdiv@divisor,w
  3679  04F3  1903               	skipnz
  3680  04F4  2D14               	goto	l13847
  3681  04F5  01A0               	clrf	___awdiv@counter
  3682  04F6                     L19:	
  3683  04F6  0AA0               	incf	___awdiv@counter,f
  3684  04F7  1BF4               	btfsc	___awdiv@divisor+1,7
  3685  04F8  2CFD               	goto	l13835
  3686  04F9  1003               	clrc
  3687  04FA  0DF3               	rlf	___awdiv@divisor,f
  3688  04FB  0DF4               	rlf	___awdiv@divisor+1,f
  3689  04FC  2CF6               	goto	L19
  3690  04FD                     l13835:	
  3691  04FD  1003               	clrc
  3692  04FE  0DA2               	rlf	___awdiv@quotient,f
  3693  04FF  0DA3               	rlf	___awdiv@quotient+1,f
  3694  0500  0874               	movf	___awdiv@divisor+1,w
  3695  0501  0276               	subwf	___awdiv@dividend+1,w
  3696  0502  1D03               	skipz
  3697  0503  2D06               	goto	u2495
  3698  0504  0873               	movf	___awdiv@divisor,w
  3699  0505  0275               	subwf	___awdiv@dividend,w
  3700  0506                     u2495:	
  3701  0506  1C03               	skipc
  3702  0507  2D10               	goto	L20
  3703  0508  0873               	movf	___awdiv@divisor,w
  3704  0509  02F5               	subwf	___awdiv@dividend,f
  3705  050A  0874               	movf	___awdiv@divisor+1,w
  3706  050B  1C03               	skipc
  3707  050C  03F6               	decf	___awdiv@dividend+1,f
  3708  050D  02F6               	subwf	___awdiv@dividend+1,f
  3709  050E  1422               	bsf	___awdiv@quotient,0
  3710  050F  1003               	clrc
  3711  0510                     L20:	
  3712  0510  0CF4               	rrf	___awdiv@divisor+1,f
  3713  0511  0CF3               	rrf	___awdiv@divisor,f
  3714  0512  0BA0               	decfsz	___awdiv@counter,f
  3715  0513  2CFD               	goto	l13835
  3716  0514                     l13847:	
  3717  0514  0821               	movf	___awdiv@sign,w
  3718  0515  1903               	btfsc	3,2
  3719  0516  2D1C               	goto	l13851
  3720  0517  09A2               	comf	___awdiv@quotient,f
  3721  0518  09A3               	comf	___awdiv@quotient+1,f
  3722  0519  0AA2               	incf	___awdiv@quotient,f
  3723  051A  1903               	skipnz
  3724  051B  0AA3               	incf	___awdiv@quotient+1,f
  3725  051C                     l13851:	
  3726  051C  0823               	movf	___awdiv@quotient+1,w
  3727  051D  00F4               	movwf	?___awdiv+1
  3728  051E  0822               	movf	___awdiv@quotient,w
  3729  051F  00F3               	movwf	?___awdiv
  3730  0520  0008               	return
  3731  0521                     __end_of___awdiv:	
  3732  0521                     __ptext823:	
  3733 ;; =============== function _ReceiveByte ends ============
  3734                           
  3735                           
  3736 ;; *************** function _SendByte *****************
  3737 ;; Defined at:
  3738 ;;		line 200 in file "Code/Driver/LCD/Lcd.c"
  3739 ;; Parameters:    Size  Location     Type
  3740 ;;  Dbyte           1    wreg     unsigned char 
  3741 ;; Auto vars:     Size  Location     Type
  3742 ;;  Dbyte           1    2[COMMON] unsigned char 
  3743 ;;  i               1    4[COMMON] unsigned char 
  3744 ;;  temp            1    3[COMMON] unsigned char 
  3745 ;; Return value:  Size  Location     Type
  3746 ;;		None               void
  3747 ;; Registers used:
  3748 ;;		wreg, status,2, status,0
  3749 ;; Tracked objects:
  3750 ;;		On entry : 60/0
  3751 ;;		On exit  : 60/0
  3752 ;;		Unchanged: FFE00/0
  3753 ;; Data sizes:     COMMON   BANK0   BANK1   BANK2
  3754 ;;      Params:         0       0       0       0
  3755 ;;      Locals:         3       0       0       0
  3756 ;;      Temps:          0       0       0       0
  3757 ;;      Totals:         3       0       0       0
  3758 ;;Total ram usage:        3 bytes
  3759 ;; Hardware stack levels used:    1
  3760 ;; Hardware stack levels required when called:    1
  3761 ;; This function calls:
  3762 ;;		Nothing
  3763 ;; This function is called by:
  3764 ;;		_CheckBusy
  3765 ;;		_Lcd_WriteCmd
  3766 ;;		_Lcd_WriteData
  3767 ;; This function uses a non-reentrant model
  3768 ;;
  3769  0521                     _SendByte:	
  3770                           
  3771                           ; Regs used in _SendByte: [wreg+status,2+status,0]
  3772                           ;SendByte@Dbyte stored from wreg
  3773  0521  00F3               	movwf	SendByte@Dbyte
  3774                           
  3775                           ;Lcd.c: 201: u8 i;
  3776                           ;Lcd.c: 202: u8 temp;
  3777                           ;Lcd.c: 203: for(i=0;i<8;i++)
  3778  0522  01F5               	clrf	SendByte@i
  3779  0523                     l6084:	
  3780                           
  3781                           ;Lcd.c: 204: {
  3782                           ;Lcd.c: 205: (TRISE0=(0));
  3783  0523  1683               	bsf	3,5	;RP0=1, select bank1
  3784  0524  1009               	bcf	9,0
  3785                           
  3786                           ;Lcd.c: 206: (RE0=(0));
  3787  0525  1283               	bcf	3,5	;RP0=0, select bank0
  3788  0526  1009               	bcf	9,0
  3789                           
  3790                           ;Lcd.c: 208: (TRISE1=(0));
  3791  0527  1683               	bsf	3,5	;RP0=1, select bank1
  3792  0528  3000               	movlw	0
  3793  0529  1089               	bcf	9,1
  3794                           
  3795                           ;Lcd.c: 209: temp = (Dbyte&0x80) ? 1 : 0 ;
  3796  052A  1BF3               	btfsc	SendByte@Dbyte,7
  3797  052B  3001               	movlw	1
  3798  052C  00F4               	movwf	SendByte@temp
  3799                           
  3800                           ;Lcd.c: 210: (RE1=(temp));
  3801  052D  1C74               	btfss	SendByte@temp,0
  3802  052E  2D33               	goto	u2130
  3803  052F  1283               	bcf	3,5	;RP0=0, select bank0
  3804  0530  1303               	bcf	3,6	;RP1=0, select bank0
  3805  0531  1489               	bsf	9,1
  3806  0532  2D36               	goto	l13633
  3807  0533                     u2130:	
  3808  0533  1283               	bcf	3,5	;RP0=0, select bank0
  3809  0534  1303               	bcf	3,6	;RP1=0, select bank0
  3810  0535  1089               	bcf	9,1
  3811  0536                     l13633:	
  3812  0536  3008               	movlw	8
  3813                           
  3814                           ;Lcd.c: 211: (RE0=(1));
  3815  0537  1409               	bsf	9,0
  3816                           
  3817                           ;Lcd.c: 213: (RE0=(0));
  3818  0538  1009               	bcf	9,0
  3819                           
  3820                           ;Lcd.c: 214: Dbyte=Dbyte<<1;
  3821  0539  1003               	clrc
  3822  053A  0DF3               	rlf	SendByte@Dbyte,f
  3823  053B  0AF5               	incf	SendByte@i,f
  3824  053C  0275               	subwf	SendByte@i,w
  3825  053D  1803               	btfsc	3,0
  3826  053E  0008               	return
  3827  053F  2D23               	goto	l6084
  3828  0540                     __end_of_SendByte:	
  3829  0540                     __ptext822:	
  3830 ;; =============== function _LcdMenu_NumMasK ends ============
  3831                           
  3832                           
  3833 ;; *************** function _ReceiveByte *****************
  3834 ;; Defined at:
  3835 ;;		line 223 in file "Code/Driver/LCD/Lcd.c"
  3836 ;; Parameters:    Size  Location     Type
  3837 ;;		None
  3838 ;; Auto vars:     Size  Location     Type
  3839 ;;  i               1    5[COMMON] unsigned char 
  3840 ;;  temp2           1    4[COMMON] unsigned char 
  3841 ;;  temp1           1    3[COMMON] unsigned char 
  3842 ;; Return value:  Size  Location     Type
  3843 ;;                  1    wreg      unsigned char 
  3844 ;; Registers used:
  3845 ;;		wreg, status,2, status,0
  3846 ;; Tracked objects:
  3847 ;;		On entry : 60/0
  3848 ;;		On exit  : 60/0
  3849 ;;		Unchanged: FFF9F/0
  3850 ;; Data sizes:     COMMON   BANK0   BANK1   BANK2
  3851 ;;      Params:         0       0       0       0
  3852 ;;      Locals:         3       0       0       0
  3853 ;;      Temps:          1       0       0       0
  3854 ;;      Totals:         4       0       0       0
  3855 ;;Total ram usage:        4 bytes
  3856 ;; Hardware stack levels used:    1
  3857 ;; Hardware stack levels required when called:    1
  3858 ;; This function calls:
  3859 ;;		Nothing
  3860 ;; This function is called by:
  3861 ;;		_CheckBusy
  3862 ;; This function uses a non-reentrant model
  3863 ;;
  3864  0540                     _ReceiveByte:	
  3865                           
  3866                           ;Lcd.c: 224: u8 i,temp1,temp2;
  3867                           ;Lcd.c: 225: temp1 = 0;
  3868                           
  3869                           ; Regs used in _ReceiveByte: [wreg+status,2+status,0]
  3870  0540  01F4               	clrf	ReceiveByte@temp1
  3871                           
  3872                           ;Lcd.c: 226: temp2 = 0;
  3873  0541  01F5               	clrf	ReceiveByte@temp2
  3874                           
  3875                           ;Lcd.c: 227: for(i=0;i<8;i++)
  3876  0542  01F6               	clrf	ReceiveByte@i
  3877                           
  3878                           ;Lcd.c: 228: {
  3879                           ;Lcd.c: 229: temp1=temp1<<1;
  3880  0543  1003               	clrc
  3881  0544                     L27:	
  3882  0544  0DF4               	rlf	ReceiveByte@temp1,f
  3883                           
  3884                           ;Lcd.c: 230: (TRISE0=(0));
  3885  0545  1683               	bsf	3,5	;RP0=1, select bank1
  3886                           
  3887                           ;Lcd.c: 231: (RE0=(0));
  3888                           
  3889                           ;Lcd.c: 233: (RE0=(1));
  3890                           
  3891                           ;Lcd.c: 235: (RE0=(0));
  3892                           
  3893                           ;Lcd.c: 236: (TRISE1=(1));
  3894                           
  3895                           ;Lcd.c: 237: if((RE1)) temp1++;
  3896  0546  259D  118A         	fcall	PL7	;call to abstracted procedure
  3897  0548  1889               	btfsc	9,1
  3898  0549  0AF4               	incf	ReceiveByte@temp1,f
  3899  054A  3008               	movlw	8
  3900  054B  0AF6               	incf	ReceiveByte@i,f
  3901  054C  0276               	subwf	ReceiveByte@i,w
  3902  054D  1C03               	skipc
  3903  054E  2D44               	goto	L27
  3904                           
  3905                           ;Lcd.c: 238: }
  3906                           ;Lcd.c: 240: for(i=0;i<8;i++)
  3907  054F  01F6               	clrf	ReceiveByte@i
  3908                           
  3909                           ;Lcd.c: 241: {
  3910                           ;Lcd.c: 242: temp2=temp2<<1;
  3911  0550  1003               	clrc
  3912  0551                     L28:	
  3913  0551  0DF5               	rlf	ReceiveByte@temp2,f
  3914                           
  3915                           ;Lcd.c: 243: (TRISE0=(0));
  3916  0552  1683               	bsf	3,5	;RP0=1, select bank1
  3917                           
  3918                           ;Lcd.c: 244: (RE0=(0));
  3919                           
  3920                           ;Lcd.c: 246: (RE0=(1));
  3921                           
  3922                           ;Lcd.c: 248: (RE0=(0));
  3923                           
  3924                           ;Lcd.c: 249: (TRISE1=(1));
  3925                           
  3926                           ;Lcd.c: 250: if((RE1)) temp2++;
  3927  0553  259D  118A         	fcall	PL7	;call to abstracted procedure
  3928  0555  1889               	btfsc	9,1
  3929  0556  0AF5               	incf	ReceiveByte@temp2,f
  3930  0557  3008               	movlw	8
  3931  0558  0AF6               	incf	ReceiveByte@i,f
  3932  0559  0276               	subwf	ReceiveByte@i,w
  3933  055A  1C03               	skipc
  3934  055B  2D51               	goto	L28
  3935                           
  3936                           ;Lcd.c: 251: }
  3937                           ;Lcd.c: 253: return ((0xf0&temp1)+(0x0f&(temp2>>4));
  3938  055C  30F0               	movlw	240
  3939  055D  0574               	andwf	ReceiveByte@temp1,w
  3940  055E  00F3               	movwf	??_ReceiveByte
  3941  055F  0E75               	swapf	ReceiveByte@temp2,w
  3942  0560  390F               	andlw	15
  3943  0561  0773               	addwf	??_ReceiveByte,w
  3944  0562  0008               	return
  3945  0563                     __end_of_ReceiveByte:	
  3946  0563                     __ptext808:	
  3947 ;; =============== function _LcdMenu_VPrintf ends ============
  3948                           
  3949                           
  3950 ;; *************** function _Lcd_WriteData *****************
  3951 ;; Defined at:
  3952 ;;		line 290 in file "Code/Driver/LCD/Lcd.c"
  3953 ;; Parameters:    Size  Location     Type
  3954 ;;  Dbyte           1    wreg     unsigned char 
  3955 ;; Auto vars:     Size  Location     Type
  3956 ;;  Dbyte           1    7[COMMON] unsigned char 
  3957 ;; Return value:  Size  Location     Type
  3958 ;;		None               void
  3959 ;; Registers used:
  3960 ;;		wreg, status,2, status,0, pclath, cstack
  3961 ;; Tracked objects:
  3962 ;;		On entry : 160/0
  3963 ;;		On exit  : 60/0
  3964 ;;		Unchanged: FFE00/0
  3965 ;; Data sizes:     COMMON   BANK0   BANK1   BANK2
  3966 ;;      Params:         0       0       0       0
  3967 ;;      Locals:         1       0       0       0
  3968 ;;      Temps:          0       0       0       0
  3969 ;;      Totals:         1       0       0       0
  3970 ;;Total ram usage:        1 bytes
  3971 ;; Hardware stack levels used:    1
  3972 ;; Hardware stack levels required when called:    3
  3973 ;; This function calls:
  3974 ;;		_CheckBusy
  3975 ;;		_SendByte
  3976 ;; This function is called by:
  3977 ;;		_Lcd_StrDisp
  3978 ;; This function uses a non-reentrant model
  3979 ;;
  3980  0563                     _Lcd_WriteData:	
  3981                           
  3982                           ; Regs used in _Lcd_WriteData: [wreg+status,2+status,0+pclath+cstack]
  3983                           ;Lcd_WriteData@Dbyte stored from wreg
  3984  0563  00F8               	movwf	Lcd_WriteData@Dbyte
  3985                           
  3986                           ;Lcd.c: 291: (TRISE2=(0));
  3987                           
  3988                           ;Lcd.c: 292: (RE2=(1));
  3989  0564  25C4  118A         	fcall	PL13	;call to abstracted procedure
  3990                           
  3991                           ;Lcd.c: 293: CheckBusy();
  3992  0566  2363  118A         	fcall	_CheckBusy
  3993                           
  3994                           ;Lcd.c: 294: SendByte(0xfa);
  3995  0568  30FA               	movlw	250
  3996  0569  2521  118A         	fcall	_SendByte
  3997                           
  3998                           ;Lcd.c: 295: SendByte(0xf0&Dbyte);
  3999  056B  0878               	movf	Lcd_WriteData@Dbyte,w
  4000  056C  39F0               	andlw	240
  4001  056D  2521  118A         	fcall	_SendByte
  4002                           
  4003                           ;Lcd.c: 296: SendByte(0xf0&Dbyte<<4);
  4004  056F  0E78               	swapf	Lcd_WriteData@Dbyte,w
  4005  0570  39F0               	andlw	240
  4006  0571  2521               	fcall	_SendByte
  4007                           
  4008                           ;Lcd.c: 297: (RE2=(0));
  4009  0572  1109               	bcf	9,2
  4010  0573  0008               	return
  4011  0574                     __end_of_Lcd_WriteData:	
  4012  0574                     PL2:	
  4013  0574  0DE0               	rlf	??_LcdMenu_Setup,f
  4014  0575  1003               	clrc
  4015  0576  0DE0               	rlf	??_LcdMenu_Setup,f
  4016  0577  0760               	addwf	??_LcdMenu_Setup,w
  4017  0578  00E1               	movwf	??_LcdMenu_Setup+1
  4018  0579  086C               	movf	LcdMenu_Setup@Section,w
  4019  057A  0761               	addwf	??_LcdMenu_Setup+1,w
  4020  057B  00E2               	movwf	??_LcdMenu_Setup+2
  4021  057C  0084               	movwf	4
  4022  057D  0008               	return
  4023  057E                     PL3:	
  4024  057E  086B               	movf	LcdMenu_Setup@Index,w
  4025  057F  00E0               	movwf	??_LcdMenu_Setup
  4026  0580  30C8               	movlw	LcdMenu_Setup@num& (0+255)
  4027  0581  1003               	clrc
  4028  0582  0008               	return
  4029  0583                     PL4:	
  4030  0583  3E41               	addlw	LcdMenu_VPrintf@StrBuf& (0+255)
  4031  0584  0084               	movwf	4
  4032  0585  0800               	movf	0,w
  4033  0586  00C0               	movwf	??_LcdMenu_VPrintf
  4034  0587  085D               	movf	LcdMenu_VPrintf@index,w
  4035  0588  3EAE               	addlw	_LcdMenu_StrTemp& (0+255)
  4036  0589  0084               	movwf	4
  4037  058A  0840               	movf	??_LcdMenu_VPrintf,w
  4038  058B  0080               	movwf	0
  4039  058C  0ADC               	incf	LcdMenu_VPrintf@i,f
  4040  058D  0ADD               	incf	LcdMenu_VPrintf@index,f
  4041  058E  0008               	return
  4042  058F                     PL5:	
  4043  058F  085F               	movf	LcdMenu_Setup@pParam,w
  4044  0590  0084               	movwf	4
  4045  0591  0800               	movf	0,w
  4046  0592  00F5               	movwf	?___lwdiv+2
  4047  0593  0A84               	incf	4,f
  4048  0594  0800               	movf	0,w
  4049  0595  00F6               	movwf	?___lwdiv+3
  4050  0596  0008               	return
  4051  0597                     PL6:	
  4052  0597  00C0               	movwf	??_LcdMenu_VPrintf
  4053  0598  085D               	movf	LcdMenu_VPrintf@index,w
  4054  0599  3EAE               	addlw	_LcdMenu_StrTemp& (0+255)
  4055  059A  0084               	movwf	4
  4056  059B  0840               	movf	??_LcdMenu_VPrintf,w
  4057  059C  0008               	return
  4058  059D                     PL7:	
  4059  059D  1009               	bcf	9,0
  4060  059E  1283               	bcf	3,5	;RP0=0, select bank0
  4061  059F  1009               	bcf	9,0
  4062  05A0  1409               	bsf	9,0
  4063  05A1  1009               	bcf	9,0
  4064  05A2  1683               	bsf	3,5	;RP0=1, select bank1
  4065  05A3  1489               	bsf	9,1
  4066  05A4  1283               	bcf	3,5	;RP0=0, select bank0
  4067  05A5  0008               	return
  4068  05A6                     PL8:	
  4069  05A6  300A               	movlw	10
  4070  05A7  00F7               	movwf	?___lbmod
  4071  05A8  00F3               	movwf	?___lbdiv
  4072  05A9  1283               	bcf	3,5	;RP0=0, select bank0
  4073  05AA  085F               	movf	LcdMenu_Setup@pParam,w
  4074  05AB  0008               	return
  4075  05AC                     PL9:	
  4076  05AC  0835               	movf	myitoa@pStr,w
  4077  05AD  00AA               	movwf	??_myitoa
  4078  05AE  0833               	movf	myitoa@nIndex,w
  4079  05AF  02AA               	subwf	??_myitoa,f
  4080  05B0  0831               	movf	myitoa@nCount,w
  4081  05B1  072A               	addwf	??_myitoa,w
  4082  05B2  00AB               	movwf	??_myitoa+1
  4083  05B3  0084               	movwf	4
  4084  05B4  0008               	return
  4085  05B5                     PL10:	
  4086  05B5  0829               	movf	myitoa@radix+1,w
  4087  05B6  3A80               	xorlw	128
  4088  05B7  00FF               	movwf	127
  4089  05B8  3080               	movlw	128
  4090  05B9  027F               	subwf	127,w
  4091  05BA  0008               	return
  4092  05BB                     PL11:	
  4093  05BB  0874               	movf	?___lwdiv+1,w
  4094  05BC  00A3               	movwf	?___lwmod+3
  4095  05BD  0873               	movf	?___lwdiv,w
  4096  05BE  00A2               	movwf	?___lwmod+2
  4097  05BF  0008               	return
  4098  05C0                     PL12:	
  4099  05C0  30AE               	movlw	_LcdMenu_StrTemp& (0+255)
  4100  05C1  01A0               	clrf	?_Lcd_StrDisp
  4101  05C2  00A1               	movwf	?_Lcd_StrDisp+1
  4102  05C3  3401               	retlw	1
  4103  05C4                     PL13:	
  4104  05C4  1683               	bsf	3,5	;RP0=1, select bank1
  4105  05C5  1109               	bcf	9,2
  4106  05C6  1283               	bcf	3,5	;RP0=0, select bank0
  4107  05C7  1509               	bsf	9,2
  4108  05C8  0008               	return
  4109  05C9                     PL14:	
  4110  05C9  30AE               	movlw	_LcdMenu_StrTemp& (0+255)
  4111  05CA  01A0               	clrf	?_Lcd_StrDisp
  4112  05CB  00A1               	movwf	?_Lcd_StrDisp+1
  4113  05CC  3400               	retlw	0
  4114  05CD                     PL15:	
  4115  05CD  085C               	movf	LcdMenu_VPrintf@i,w
  4116  05CE  3E41               	addlw	LcdMenu_VPrintf@StrBuf& (0+255)
  4117  05CF  0084               	movwf	4
  4118  05D0  0880               	movf	0,f
  4119  05D1  0008               	return
  4120  05D2                     PL16:	
  4121  05D2  0837               	movf	LcdMenu_VPrintf@String+1,w
  4122  05D3  00FF               	movwf	127
  4123  05D4  0836               	movf	LcdMenu_VPrintf@String,w
  4124  05D5  0084               	movwf	4
  4125  05D6  0008               	return
  4126                           
  4127                           	psect	text810
  4128  0DF2                     __ptext810:	
  4129 ;; =============== function _Lcd_WriteCmd ends ============
  4130                           
  4131                           
  4132 ;; *************** function _Key_Debounce *****************
  4133 ;; Defined at:
  4134 ;;		line 260 in file "Code/Driver/Key/Key.c"
  4135 ;; Parameters:    Size  Location     Type
  4136 ;;  KeyState        2    6[COMMON] unsigned short 
  4137 ;; Auto vars:     Size  Location     Type
  4138 ;;  TrigKey         2    2[BANK0 ] unsigned short 
  4139 ;; Return value:  Size  Location     Type
  4140 ;;		None               void
  4141 ;; Registers used:
  4142 ;;		wreg, fsr0l, fsr0h, status,2, status,0, pclath, cstack
  4143 ;; Tracked objects:
  4144 ;;		On entry : 160/20
  4145 ;;		On exit  : 140/0
  4146 ;;		Unchanged: FFE9F/0
  4147 ;; Data sizes:     COMMON   BANK0   BANK1   BANK2
  4148 ;;      Params:         2       0       0       0
  4149 ;;      Locals:         0       2       0       0
  4150 ;;      Temps:          0       2       0       0
  4151 ;;      Totals:         2       4       0       0
  4152 ;;Total ram usage:        6 bytes
  4153 ;; Hardware stack levels used:    1
  4154 ;; Hardware stack levels required when called:    3
  4155 ;; This function calls:
  4156 ;;		_Key_PutEvent
  4157 ;; This function is called by:
  4158 ;;		_main
  4159 ;; This function uses a non-reentrant model
  4160 ;;
  4161  0DF2                     _Key_Debounce:	
  4162                           
  4163                           ;Key.c: 262: static u16 KeyStateBuf = 0x0000;
  4164                           ;Key.c: 263: static u16 ContKey = 0x0000;
  4165                           ;Key.c: 264: static u16 ContKeyBuf = 0x0000;
  4166                           ;Key.c: 265: static u8 ShortDebounce;
  4167                           ;Key.c: 266: static u16 LongDebounce;
  4168                           ;Key.c: 268: if(KeyState != KeyStateBuf)
  4169                           
  4170                           ; Regs used in _Key_Debounce: [wreg-fsr0h+status,2+status,0+pclath+cstack]
  4171  0DF2  0829               	movf	(Key_Debounce@KeyStateBuf+1)^(0+128),w
  4172  0DF3  0678               	xorwf	Key_Debounce@KeyState+1,w
  4173  0DF4  1D03               	skipz
  4174  0DF5  2DF8               	goto	u2595
  4175  0DF6  0828               	movf	Key_Debounce@KeyStateBuf^(0+128),w
  4176  0DF7  0677               	xorwf	Key_Debounce@KeyState,w
  4177  0DF8                     u2595:	
  4178  0DF8  1903               	skipnz
  4179  0DF9  2E00               	goto	l13991
  4180                           
  4181                           ;Key.c: 269: {
  4182                           ;Key.c: 270: KeyStateBuf = KeyState;
  4183  0DFA  0878               	movf	Key_Debounce@KeyState+1,w
  4184  0DFB  00A9               	movwf	(Key_Debounce@KeyStateBuf+1)^(0+128)
  4185  0DFC  0877               	movf	Key_Debounce@KeyState,w
  4186  0DFD  00A8               	movwf	Key_Debounce@KeyStateBuf^(0+128)
  4187                           
  4188                           ;Key.c: 271: ShortDebounce = 0;
  4189  0DFE  01AD               	clrf	Key_Debounce@ShortDebounce^(0+128)
  4190                           
  4191                           ;Key.c: 272: }
  4192  0DFF  0008               	return
  4193  0E00                     l13991:	
  4194                           
  4195                           ;Key.c: 273: else if(ShortDebounce < 8)
  4196  0E00  3008               	movlw	8
  4197  0E01  022D               	subwf	Key_Debounce@ShortDebounce^(0+128),w
  4198  0E02  1803               	skipnc
  4199  0E03  2E06               	goto	l13995
  4200                           
  4201                           ;Key.c: 274: {
  4202                           ;Key.c: 275: ShortDebounce++;
  4203  0E04  0AAD               	incf	Key_Debounce@ShortDebounce^(0+128),f
  4204                           
  4205                           ;Key.c: 276: }
  4206  0E05  0008               	return
  4207  0E06                     l13995:	
  4208                           
  4209                           ;Key.c: 277: else
  4210                           ;Key.c: 278: {
  4211                           ;Key.c: 280: KeyState = KeyStateBuf^0xffff;
  4212  0E06  0829               	movf	(Key_Debounce@KeyStateBuf+1)^(0+128),w
  4213  0E07  1283               	bcf	3,5	;RP0=0, select bank0
  4214  0E08  00A1               	movwf	??_Key_Debounce+1
  4215  0E09  1683               	bsf	3,5	;RP0=1, select bank1
  4216  0E0A  0828               	movf	Key_Debounce@KeyStateBuf^(0+128),w
  4217  0E0B  1283               	bcf	3,5	;RP0=0, select bank0
  4218  0E0C  00A0               	movwf	??_Key_Debounce
  4219  0E0D  09A0               	comf	??_Key_Debounce,f
  4220  0E0E  09A1               	comf	??_Key_Debounce+1,f
  4221  0E0F  0820               	movf	??_Key_Debounce,w
  4222  0E10  00F7               	movwf	Key_Debounce@KeyState
  4223  0E11  0821               	movf	??_Key_Debounce+1,w
  4224  0E12  00F8               	movwf	Key_Debounce@KeyState+1
  4225                           
  4226                           ;Key.c: 281: TrigKey = KeyState&(KeyState^ContKey);
  4227  0E13  087A               	movf	Key_Debounce@ContKey,w
  4228  0E14  0677               	xorwf	Key_Debounce@KeyState,w
  4229  0E15  00A0               	movwf	??_Key_Debounce
  4230  0E16  087B               	movf	Key_Debounce@ContKey+1,w
  4231  0E17  0678               	xorwf	Key_Debounce@KeyState+1,w
  4232  0E18  00A1               	movwf	??_Key_Debounce+1
  4233  0E19  0877               	movf	Key_Debounce@KeyState,w
  4234  0E1A  0520               	andwf	??_Key_Debounce,w
  4235  0E1B  00A2               	movwf	Key_Debounce@TrigKey
  4236  0E1C  0878               	movf	Key_Debounce@KeyState+1,w
  4237  0E1D  0521               	andwf	??_Key_Debounce+1,w
  4238  0E1E  00A3               	movwf	Key_Debounce@TrigKey+1
  4239                           
  4240                           ;Key.c: 282: ContKey = KeyState;
  4241  0E1F  0878               	movf	Key_Debounce@KeyState+1,w
  4242  0E20  00FB               	movwf	Key_Debounce@ContKey+1
  4243  0E21  0877               	movf	Key_Debounce@KeyState,w
  4244  0E22  00FA               	movwf	Key_Debounce@ContKey
  4245                           
  4246                           ;Key.c: 285: Key_PutEvent(TrigKey);
  4247  0E23  0823               	movf	Key_Debounce@TrigKey+1,w
  4248  0E24  00F5               	movwf	?_Key_PutEvent+1
  4249  0E25  0822               	movf	Key_Debounce@TrigKey,w
  4250  0E26  00F4               	movwf	?_Key_PutEvent
  4251  0E27  264C  158A         	fcall	_Key_PutEvent
  4252                           
  4253                           ;Key.c: 287: if(ContKey != ContKeyBuf)
  4254  0E29  1683               	bsf	3,5	;RP0=1, select bank1
  4255  0E2A  0827               	movf	(Key_Debounce@ContKeyBuf+1)^(0+128),w
  4256  0E2B  067B               	xorwf	Key_Debounce@ContKey+1,w
  4257  0E2C  1D03               	skipz
  4258  0E2D  2E30               	goto	u2615
  4259  0E2E  0826               	movf	Key_Debounce@ContKeyBuf^(0+128),w
  4260  0E2F  067A               	xorwf	Key_Debounce@ContKey,w
  4261  0E30                     u2615:	
  4262  0E30  1903               	skipnz
  4263  0E31  2E39               	goto	l14005
  4264                           
  4265                           ;Key.c: 288: {
  4266                           ;Key.c: 289: ContKeyBuf = ContKey;
  4267  0E32  087B               	movf	Key_Debounce@ContKey+1,w
  4268  0E33  00A7               	movwf	(Key_Debounce@ContKeyBuf+1)^(0+128)
  4269  0E34  087A               	movf	Key_Debounce@ContKey,w
  4270  0E35  00A6               	movwf	Key_Debounce@ContKeyBuf^(0+128)
  4271                           
  4272                           ;Key.c: 290: LongDebounce = 0;
  4273  0E36  01AA               	clrf	Key_Debounce@LongDebounce^(0+128)
  4274  0E37  01AB               	clrf	(Key_Debounce@LongDebounce+1)^(0+128)
  4275                           
  4276                           ;Key.c: 291: }
  4277  0E38  0008               	return
  4278  0E39                     l14005:	
  4279                           
  4280                           ;Key.c: 292: else if(LongDebounce < 300)
  4281  0E39  3001               	movlw	1
  4282  0E3A  022B               	subwf	(Key_Debounce@LongDebounce+1)^(0+128),w
  4283  0E3B  302C               	movlw	44
  4284  0E3C  1903               	skipnz
  4285  0E3D  022A               	subwf	Key_Debounce@LongDebounce^(0+128),w
  4286  0E3E  1803               	skipnc
  4287  0E3F  2E44               	goto	l14009
  4288                           
  4289                           ;Key.c: 293: {
  4290                           ;Key.c: 294: LongDebounce++;
  4291  0E40  0AAA               	incf	Key_Debounce@LongDebounce^(0+128),f
  4292  0E41  1903               	skipnz
  4293  0E42  0AAB               	incf	(Key_Debounce@LongDebounce+1)^(0+128),f
  4294                           
  4295                           ;Key.c: 295: }
  4296  0E43  0008               	return
  4297  0E44                     l14009:	
  4298                           
  4299                           ;Key.c: 296: else
  4300                           ;Key.c: 297: {
  4301                           ;Key.c: 301: LongDebounce = 0;
  4302  0E44  01AA               	clrf	Key_Debounce@LongDebounce^(0+128)
  4303  0E45  01AB               	clrf	(Key_Debounce@LongDebounce+1)^(0+128)
  4304                           
  4305                           ;Key.c: 302: ((ContKey) |= (0x1<<(7)));
  4306  0E46  17FA               	bsf	Key_Debounce@ContKey,7
  4307                           
  4308                           ;Key.c: 303: Key_PutEvent(ContKey);
  4309  0E47  087B               	movf	Key_Debounce@ContKey+1,w
  4310  0E48  00F5               	movwf	?_Key_PutEvent+1
  4311  0E49  087A               	movf	Key_Debounce@ContKey,w
  4312  0E4A  00F4               	movwf	?_Key_PutEvent
  4313  0E4B  2E4C               	ljmp	l13855
  4314  0E4C                     __end_of_Key_Debounce:	
  4315  0E4C                     __ptext813:	
  4316 ;; =============== function _CheckBusy ends ============
  4317                           
  4318                           
  4319 ;; *************** function _Key_PutEvent *****************
  4320 ;; Defined at:
  4321 ;;		line 81 in file "Code/Driver/Key/Key.c"
  4322 ;; Parameters:    Size  Location     Type
  4323 ;;  KeyValue        2    3[COMMON] unsigned short 
  4324 ;; Auto vars:     Size  Location     Type
  4325 ;;  temp            1    5[COMMON] unsigned char 
  4326 ;; Return value:  Size  Location     Type
  4327 ;;		None               void
  4328 ;; Registers used:
  4329 ;;		wreg, fsr0l, fsr0h, status,2, status,0, pclath, cstack
  4330 ;; Tracked objects:
  4331 ;;		On entry : 140/0
  4332 ;;		On exit  : 140/0
  4333 ;;		Unchanged: FFE9F/0
  4334 ;; Data sizes:     COMMON   BANK0   BANK1   BANK2
  4335 ;;      Params:         2       0       0       0
  4336 ;;      Locals:         1       0       0       0
  4337 ;;      Temps:          0       0       0       0
  4338 ;;      Totals:         3       0       0       0
  4339 ;;Total ram usage:        3 bytes
  4340 ;; Hardware stack levels used:    1
  4341 ;; Hardware stack levels required when called:    2
  4342 ;; This function calls:
  4343 ;;		_Key_PutEventToTail
  4344 ;; This function is called by:
  4345 ;;		_Key_Debounce
  4346 ;; This function uses a non-reentrant model
  4347 ;;
  4348  0E4C                     _Key_PutEvent:	
  4349  0E4C                     l13855:	
  4350                           ; Regs used in _Key_PutEvent: [wreg-fsr0h+status,2+status,0+pclath+cstack]
  4351                           
  4352                           
  4353                           ;Key.c: 82: u8 temp;
  4354                           ;Key.c: 84: switch(KeyValue)
  4355  0E4C  2E71               	goto	l13905
  4356  0E4D                     l13857:	
  4357                           
  4358                           ;Key.c: 87: temp = EVENT_KEY7S;
  4359  0E4D  300D               	movlw	13
  4360  0E4E  2E6F               	goto	L18
  4361  0E4F                     l13865:	
  4362                           ;Key.c: 88: break;
  4363                           
  4364                           
  4365                           ;Key.c: 103: temp = EVENT_KEYDOWNS;
  4366  0E4F  3003               	movlw	3
  4367  0E50  2E6F               	goto	L18
  4368  0E51                     l13867:	
  4369                           ;Key.c: 104: break;
  4370                           
  4371                           
  4372                           ;Key.c: 107: temp = EVENT_KEYDOWNL;
  4373  0E51  3004               	movlw	4
  4374  0E52  2E6F               	goto	L18
  4375  0E53                     l13869:	
  4376                           ;Key.c: 108: break;
  4377                           
  4378                           
  4379                           ;Key.c: 111: temp = EVENT_KEYPLUSS;
  4380  0E53  3009               	movlw	9
  4381  0E54  2E6F               	goto	L18
  4382  0E55                     l13871:	
  4383                           ;Key.c: 112: break;
  4384                           
  4385                           
  4386                           ;Key.c: 115: temp = EVENT_KEYPLUSL;
  4387  0E55  300A               	movlw	10
  4388  0E56  2E6F               	goto	L18
  4389  0E57                     l13873:	
  4390                           ;Key.c: 116: break;
  4391                           
  4392                           
  4393                           ;Key.c: 119: temp = EVENT_KEYMINUSS;
  4394  0E57  300B               	movlw	11
  4395  0E58  2E6F               	goto	L18
  4396  0E59                     l13875:	
  4397                           ;Key.c: 120: break;
  4398                           
  4399                           
  4400                           ;Key.c: 123: temp = EVENT_KEYMINUSL;
  4401  0E59  300C               	movlw	12
  4402  0E5A  2E6F               	goto	L18
  4403  0E5B                     l4524:	
  4404                           ;Key.c: 134: case 0x0004:
  4405                           
  4406                           ;Key.c: 124: break;
  4407                           
  4408                           
  4409                           ;Key.c: 135: temp = EVENT_KEYUPS;
  4410  0E5B  01F6               	clrf	Key_PutEvent@temp
  4411  0E5C  0AF6               	incf	Key_PutEvent@temp,f
  4412                           
  4413                           ;Key.c: 136: break;
  4414  0E5D  2EED               	goto	l13907
  4415  0E5E                     l13881:	
  4416                           
  4417                           ;Key.c: 139: temp = EVENT_KEYUPL;
  4418  0E5E  3002               	movlw	2
  4419  0E5F  2E6F               	goto	L18
  4420  0E60                     l13883:	
  4421                           ;Key.c: 140: break;
  4422                           
  4423                           
  4424                           ;Key.c: 143: temp = EVENT_KEY8S;
  4425  0E60  300F               	movlw	15
  4426  0E61  2E6F               	goto	L18
  4427  0E62                     l13885:	
  4428                           ;Key.c: 144: break;
  4429                           
  4430                           
  4431                           ;Key.c: 147: temp = EVENT_KEY8L;
  4432  0E62  3010               	movlw	16
  4433  0E63  2E6F               	goto	L18
  4434  0E64                     l13887:	
  4435                           ;Key.c: 148: break;
  4436                           
  4437                           
  4438                           ;Key.c: 151: temp = EVENT_KEY9S;
  4439  0E64  3011               	movlw	17
  4440  0E65  2E6F               	goto	L18
  4441  0E66                     l13889:	
  4442                           ;Key.c: 152: break;
  4443                           
  4444                           
  4445                           ;Key.c: 155: temp = EVENT_KEY9L;
  4446  0E66  3012               	movlw	18
  4447  0E67  2E6F               	goto	L18
  4448  0E68                     l13895:	
  4449                           ;Key.c: 156: break;
  4450                           
  4451                           
  4452                           ;Key.c: 167: temp = EVENT_KEYRIGHTS;
  4453  0E68  3007               	movlw	7
  4454  0E69  2E6F               	goto	L18
  4455  0E6A                     l13897:	
  4456                           ;Key.c: 168: break;
  4457                           
  4458                           
  4459                           ;Key.c: 171: temp = EVENT_KEYRIGHTL;
  4460  0E6A  3008               	movlw	8
  4461  0E6B  2E6F               	goto	L18
  4462  0E6C                     l13899:	
  4463                           ;Key.c: 172: break;
  4464                           
  4465                           
  4466                           ;Key.c: 175: temp = EVENT_KEYLEFTS;
  4467  0E6C  3005               	movlw	5
  4468  0E6D  2E6F               	goto	L18
  4469  0E6E                     l13901:	
  4470                           ;Key.c: 176: break;
  4471                           
  4472                           
  4473                           ;Key.c: 179: temp = EVENT_KEYLEFTL;
  4474  0E6E  3006               	movlw	6
  4475  0E6F                     L18:	
  4476  0E6F  00F6               	movwf	Key_PutEvent@temp
  4477                           
  4478                           ;Key.c: 180: break;
  4479  0E70  2EED               	goto	l13907
  4480  0E71                     l13905:	
  4481                           
  4482                           ; Switch on 2 bytes has been partitioned into a top level switch of size 1, and 10 sub-s
      +                          witches
  4483                           ; Switch size 1, requested type "space"
  4484                           ; Number of cases is 10, Range of values is 0 to 136
  4485                           ; switch strategies available:
  4486                           ; Name         Instructions Cycles
  4487                           ; simple_byte           31    16 (average)
  4488                           ; jumptable            260     6 (fixed)
  4489                           ; rangetable           141     6 (fixed)
  4490                           ; spacedrange          280     9 (fixed)
  4491                           ; locatedrange         137     3 (fixed)
  4492                           ;	Chosen strategy is simple_byte
  4493  0E71  0875               	movf	Key_PutEvent@KeyValue+1,w
  4494  0E72  3A00               	xorlw	0	; case 0
  4495  0E73  1903               	skipnz
  4496  0E74  2E91               	goto	l14463
  4497  0E75  3A01               	xorlw	1	; case 1
  4498  0E76  1903               	skipnz
  4499  0E77  2EAB               	goto	l14465
  4500  0E78  3A03               	xorlw	3	; case 2
  4501  0E79  1903               	skipnz
  4502  0E7A  2EB0               	goto	l14467
  4503  0E7B  3A06               	xorlw	6	; case 4
  4504  0E7C  1903               	skipnz
  4505  0E7D  2EB5               	goto	l14469
  4506  0E7E  3A0C               	xorlw	12	; case 8
  4507  0E7F  1903               	skipnz
  4508  0E80  2EBA               	goto	l14471
  4509  0E81  3A88               	xorlw	136	; case 128
  4510  0E82  1903               	skipnz
  4511  0E83  2EBF               	goto	l14473
  4512  0E84  3A01               	xorlw	1	; case 129
  4513  0E85  1903               	skipnz
  4514  0E86  2ED9               	goto	l14475
  4515  0E87  3A03               	xorlw	3	; case 130
  4516  0E88  1903               	skipnz
  4517  0E89  2EDE               	goto	l14477
  4518  0E8A  3A06               	xorlw	6	; case 132
  4519  0E8B  1903               	skipnz
  4520  0E8C  2EE3               	goto	l14479
  4521  0E8D  3A0C               	xorlw	12	; case 136
  4522  0E8E  1903               	skipnz
  4523  0E8F  2EE8               	goto	l14481
  4524  0E90  2EEF               	goto	l4537
  4525  0E91                     l14463:	
  4526                           
  4527                           ; Switch size 1, requested type "space"
  4528                           ; Number of cases is 8, Range of values is 1 to 128
  4529                           ; switch strategies available:
  4530                           ; Name         Instructions Cycles
  4531                           ; simple_byte           25    13 (average)
  4532                           ; direct_byte          266    10 (fixed)
  4533                           ; jumptable            263     9 (fixed)
  4534                           ;	Chosen strategy is simple_byte
  4535  0E91  0874               	movf	Key_PutEvent@KeyValue,w
  4536  0E92  3A01               	xorlw	1	; case 1
  4537  0E93  1903               	skipnz
  4538  0E94  2E4F               	goto	l13865
  4539  0E95  3A03               	xorlw	3	; case 2
  4540  0E96  1903               	skipnz
  4541  0E97  2E4D               	goto	l13857
  4542  0E98  3A06               	xorlw	6	; case 4
  4543  0E99  1903               	skipnz
  4544  0E9A  2E5B               	goto	l4524
  4545  0E9B  3A0C               	xorlw	12	; case 8
  4546  0E9C  1903               	skipnz
  4547  0E9D  2E4D               	goto	l13857
  4548  0E9E  3A18               	xorlw	24	; case 16
  4549  0E9F  1903               	skipnz
  4550  0EA0  2E60               	goto	l13883
  4551  0EA1  3A30               	xorlw	48	; case 32
  4552  0EA2  1903               	skipnz
  4553  0EA3  2E4D               	goto	l13857
  4554  0EA4  3A60               	xorlw	96	; case 64
  4555  0EA5  1903               	skipnz
  4556  0EA6  2E57               	goto	l13873
  4557  0EA7  3AC0               	xorlw	192	; case 128
  4558  0EA8  1903               	skipnz
  4559  0EA9  2E53               	goto	l13869
  4560  0EAA  2EEF               	goto	l4537
  4561  0EAB                     l14465:	
  4562                           
  4563                           ; Switch size 1, requested type "space"
  4564                           ; Number of cases is 1, Range of values is 0 to 0
  4565                           ; switch strategies available:
  4566                           ; Name         Instructions Cycles
  4567                           ; simple_byte            4     3 (average)
  4568                           ; direct_byte            9     7 (fixed)
  4569                           ; jumptable            260     6 (fixed)
  4570                           ; rangetable             5     6 (fixed)
  4571                           ; spacedrange            8     9 (fixed)
  4572                           ; locatedrange           1     3 (fixed)
  4573                           ;	Chosen strategy is simple_byte
  4574  0EAB  0874               	movf	Key_PutEvent@KeyValue,w
  4575  0EAC  3A00               	xorlw	0	; case 0
  4576  0EAD  1903               	skipnz
  4577  0EAE  2E6C               	goto	l13899
  4578  0EAF  2EEF               	goto	l4537
  4579  0EB0                     l14467:	
  4580                           
  4581                           ; Switch size 1, requested type "space"
  4582                           ; Number of cases is 1, Range of values is 0 to 0
  4583                           ; switch strategies available:
  4584                           ; Name         Instructions Cycles
  4585                           ; simple_byte            4     3 (average)
  4586                           ; direct_byte            9     7 (fixed)
  4587                           ; jumptable            260     6 (fixed)
  4588                           ; rangetable             5     6 (fixed)
  4589                           ; spacedrange            8     9 (fixed)
  4590                           ; locatedrange           1     3 (fixed)
  4591                           ;	Chosen strategy is simple_byte
  4592  0EB0  0874               	movf	Key_PutEvent@KeyValue,w
  4593  0EB1  3A00               	xorlw	0	; case 0
  4594  0EB2  1903               	skipnz
  4595  0EB3  2E68               	goto	l13895
  4596  0EB4  2EEF               	goto	l4537
  4597  0EB5                     l14469:	
  4598                           
  4599                           ; Switch size 1, requested type "space"
  4600                           ; Number of cases is 1, Range of values is 0 to 0
  4601                           ; switch strategies available:
  4602                           ; Name         Instructions Cycles
  4603                           ; simple_byte            4     3 (average)
  4604                           ; direct_byte            9     7 (fixed)
  4605                           ; jumptable            260     6 (fixed)
  4606                           ; rangetable             5     6 (fixed)
  4607                           ; spacedrange            8     9 (fixed)
  4608                           ; locatedrange           1     3 (fixed)
  4609                           ;	Chosen strategy is simple_byte
  4610  0EB5  0874               	movf	Key_PutEvent@KeyValue,w
  4611  0EB6  3A00               	xorlw	0	; case 0
  4612  0EB7  1903               	skipnz
  4613  0EB8  2E4D               	goto	l13857
  4614  0EB9  2EEF               	goto	l4537
  4615  0EBA                     l14471:	
  4616                           
  4617                           ; Switch size 1, requested type "space"
  4618                           ; Number of cases is 1, Range of values is 0 to 0
  4619                           ; switch strategies available:
  4620                           ; Name         Instructions Cycles
  4621                           ; simple_byte            4     3 (average)
  4622                           ; direct_byte            9     7 (fixed)
  4623                           ; jumptable            260     6 (fixed)
  4624                           ; rangetable             5     6 (fixed)
  4625                           ; spacedrange            8     9 (fixed)
  4626                           ; locatedrange           1     3 (fixed)
  4627                           ;	Chosen strategy is simple_byte
  4628  0EBA  0874               	movf	Key_PutEvent@KeyValue,w
  4629  0EBB  3A00               	xorlw	0	; case 0
  4630  0EBC  1903               	skipnz
  4631  0EBD  2E64               	goto	l13887
  4632  0EBE  2EEF               	goto	l4537
  4633  0EBF                     l14473:	
  4634                           
  4635                           ; Switch size 1, requested type "space"
  4636                           ; Number of cases is 8, Range of values is 1 to 128
  4637                           ; switch strategies available:
  4638                           ; Name         Instructions Cycles
  4639                           ; simple_byte           25    13 (average)
  4640                           ; direct_byte          266    10 (fixed)
  4641                           ; jumptable            263     9 (fixed)
  4642                           ;	Chosen strategy is simple_byte
  4643  0EBF  0874               	movf	Key_PutEvent@KeyValue,w
  4644  0EC0  3A01               	xorlw	1	; case 1
  4645  0EC1  1903               	skipnz
  4646  0EC2  2E5E               	goto	l13881
  4647  0EC3  3A03               	xorlw	3	; case 2
  4648  0EC4  1903               	skipnz
  4649  0EC5  2E4D               	goto	l13857
  4650  0EC6  3A06               	xorlw	6	; case 4
  4651  0EC7  1903               	skipnz
  4652  0EC8  2E59               	goto	l13875
  4653  0EC9  3A0C               	xorlw	12	; case 8
  4654  0ECA  1903               	skipnz
  4655  0ECB  2E51               	goto	l13867
  4656  0ECC  3A18               	xorlw	24	; case 16
  4657  0ECD  1903               	skipnz
  4658  0ECE  2E55               	goto	l13871
  4659  0ECF  3A30               	xorlw	48	; case 32
  4660  0ED0  1903               	skipnz
  4661  0ED1  2E4D               	goto	l13857
  4662  0ED2  3A60               	xorlw	96	; case 64
  4663  0ED3  1903               	skipnz
  4664  0ED4  2E62               	goto	l13885
  4665  0ED5  3AC0               	xorlw	192	; case 128
  4666  0ED6  1903               	skipnz
  4667  0ED7  2E4D               	goto	l13857
  4668  0ED8  2EEF               	goto	l4537
  4669  0ED9                     l14475:	
  4670                           
  4671                           ; Switch size 1, requested type "space"
  4672                           ; Number of cases is 1, Range of values is 0 to 0
  4673                           ; switch strategies available:
  4674                           ; Name         Instructions Cycles
  4675                           ; simple_byte            4     3 (average)
  4676                           ; direct_byte            9     7 (fixed)
  4677                           ; jumptable            260     6 (fixed)
  4678                           ; rangetable             5     6 (fixed)
  4679                           ; spacedrange            8     9 (fixed)
  4680                           ; locatedrange           1     3 (fixed)
  4681                           ;	Chosen strategy is simple_byte
  4682  0ED9  0874               	movf	Key_PutEvent@KeyValue,w
  4683  0EDA  3A00               	xorlw	0	; case 0
  4684  0EDB  1903               	skipnz
  4685  0EDC  2E6E               	goto	l13901
  4686  0EDD  2EEF               	goto	l4537
  4687  0EDE                     l14477:	
  4688                           
  4689                           ; Switch size 1, requested type "space"
  4690                           ; Number of cases is 1, Range of values is 0 to 0
  4691                           ; switch strategies available:
  4692                           ; Name         Instructions Cycles
  4693                           ; simple_byte            4     3 (average)
  4694                           ; direct_byte            9     7 (fixed)
  4695                           ; jumptable            260     6 (fixed)
  4696                           ; rangetable             5     6 (fixed)
  4697                           ; spacedrange            8     9 (fixed)
  4698                           ; locatedrange           1     3 (fixed)
  4699                           ;	Chosen strategy is simple_byte
  4700  0EDE  0874               	movf	Key_PutEvent@KeyValue,w
  4701  0EDF  3A00               	xorlw	0	; case 0
  4702  0EE0  1903               	skipnz
  4703  0EE1  2E6A               	goto	l13897
  4704  0EE2  2EEF               	goto	l4537
  4705  0EE3                     l14479:	
  4706                           
  4707                           ; Switch size 1, requested type "space"
  4708                           ; Number of cases is 1, Range of values is 0 to 0
  4709                           ; switch strategies available:
  4710                           ; Name         Instructions Cycles
  4711                           ; simple_byte            4     3 (average)
  4712                           ; direct_byte            9     7 (fixed)
  4713                           ; jumptable            260     6 (fixed)
  4714                           ; rangetable             5     6 (fixed)
  4715                           ; spacedrange            8     9 (fixed)
  4716                           ; locatedrange           1     3 (fixed)
  4717                           ;	Chosen strategy is simple_byte
  4718  0EE3  0874               	movf	Key_PutEvent@KeyValue,w
  4719  0EE4  3A00               	xorlw	0	; case 0
  4720  0EE5  1903               	skipnz
  4721  0EE6  2E4D               	goto	l13857
  4722  0EE7  2EEF               	goto	l4537
  4723  0EE8                     l14481:	
  4724                           
  4725                           ; Switch size 1, requested type "space"
  4726                           ; Number of cases is 1, Range of values is 0 to 0
  4727                           ; switch strategies available:
  4728                           ; Name         Instructions Cycles
  4729                           ; simple_byte            4     3 (average)
  4730                           ; direct_byte            9     7 (fixed)
  4731                           ; jumptable            260     6 (fixed)
  4732                           ; rangetable             5     6 (fixed)
  4733                           ; spacedrange            8     9 (fixed)
  4734                           ; locatedrange           1     3 (fixed)
  4735                           ;	Chosen strategy is simple_byte
  4736  0EE8  0874               	movf	Key_PutEvent@KeyValue,w
  4737  0EE9  3A00               	xorlw	0	; case 0
  4738  0EEA  1903               	skipnz
  4739  0EEB  2E66               	goto	l13889
  4740  0EEC  2EEF               	goto	l4537
  4741  0EED                     l13907:	
  4742                           
  4743                           ;Key.c: 187: Key_PutEventToTail(temp);
  4744  0EED  0876               	movf	Key_PutEvent@temp,w
  4745  0EEE  26F0               	fcall	_Key_PutEventToTail
  4746  0EEF                     l4537:	
  4747  0EEF  0008               	return
  4748  0EF0                     __end_of_Key_PutEvent:	
  4749  0EF0                     __ptext827:	
  4750 ;; =============== function _Key_GetEvent ends ============
  4751                           
  4752                           
  4753 ;; *************** function _Key_PutEventToTail *****************
  4754 ;; Defined at:
  4755 ;;		line 44 in file "Code/Driver/Key/Key.c"
  4756 ;; Parameters:    Size  Location     Type
  4757 ;;  key             1    wreg     unsigned char 
  4758 ;; Auto vars:     Size  Location     Type
  4759 ;;  key             1    2[COMMON] unsigned char 
  4760 ;; Return value:  Size  Location     Type
  4761 ;;		None               void
  4762 ;; Registers used:
  4763 ;;		wreg, fsr0l, fsr0h, status,2, status,0
  4764 ;; Tracked objects:
  4765 ;;		On entry : 140/0
  4766 ;;		On exit  : 160/20
  4767 ;;		Unchanged: FFE9F/0
  4768 ;; Data sizes:     COMMON   BANK0   BANK1   BANK2
  4769 ;;      Params:         0       0       0       0
  4770 ;;      Locals:         1       0       0       0
  4771 ;;      Temps:          0       0       0       0
  4772 ;;      Totals:         1       0       0       0
  4773 ;;Total ram usage:        1 bytes
  4774 ;; Hardware stack levels used:    1
  4775 ;; Hardware stack levels required when called:    1
  4776 ;; This function calls:
  4777 ;;		Nothing
  4778 ;; This function is called by:
  4779 ;;		_Key_PutEvent
  4780 ;; This function uses a non-reentrant model
  4781 ;;
  4782  0EF0                     _Key_PutEventToTail:	
  4783                           
  4784                           ; Regs used in _Key_PutEventToTail: [wreg-fsr0h+status,2+status,0]
  4785                           ;Key_PutEventToTail@key stored from wreg
  4786  0EF0  00F3               	movwf	Key_PutEventToTail@key
  4787                           
  4788                           ;Key.c: 45: if(st_Event_EventMage.FiFoHead == (st_Event_EventMage.FiFoTail+1)%4)
  4789  0EF1  1683               	bsf	3,5	;RP0=1, select bank1
  4790  0EF2  0A25               	incf	(_st_Event_EventMage^(0+128)+5),w
  4791  0EF3  3903               	andlw	3
  4792  0EF4  0624               	xorwf	(_st_Event_EventMage^(0+128)+4),w
  4793  0EF5  1903               	btfsc	3,2
  4794  0EF6  0008               	return
  4795                           
  4796                           ;Key.c: 48: }
  4797                           ;Key.c: 49: st_Event_EventMage.EventFiFo[st_Event_EventMage.FiFoTail] = key;
  4798  0EF7  0825               	movf	(_st_Event_EventMage^(0+128)+5),w
  4799  0EF8  3EA0               	addlw	_st_Event_EventMage& (0+255)
  4800  0EF9  0084               	movwf	4
  4801  0EFA  0873               	movf	Key_PutEventToTail@key,w
  4802  0EFB  0080               	movwf	0
  4803  0EFC  3003               	movlw	3
  4804                           
  4805                           ;Key.c: 50: st_Event_EventMage.FiFoTail = (++st_Event_EventMage.FiFoTail)%4;
  4806  0EFD  0AA5               	incf	(_st_Event_EventMage^(0+128)+5),f
  4807  0EFE  05A5               	andwf	(_st_Event_EventMage^(0+128)+5),f
  4808  0EFF  0008               	return
  4809  0F00                     __end_of_Key_PutEventToTail:	
  4810                           
  4811                           	psect	text825
  4812  071C                     __ptext825:	
  4813 ;; =============== function _delayms ends ============
  4814                           
  4815                           
  4816 ;; *************** function _Key_Scan *****************
  4817 ;; Defined at:
  4818 ;;		line 198 in file "Code/Driver/Key/Key.c"
  4819 ;; Parameters:    Size  Location     Type
  4820 ;;		None
  4821 ;; Auto vars:     Size  Location     Type
  4822 ;;  State           2    4[COMMON] unsigned short 
  4823 ;; Return value:  Size  Location     Type
  4824 ;;                  2    2[COMMON] unsigned short 
  4825 ;; Registers used:
  4826 ;;		wreg, status,2
  4827 ;; Tracked objects:
  4828 ;;		On entry : 160/0
  4829 ;;		On exit  : 160/0
  4830 ;;		Unchanged: FFE9F/0
  4831 ;; Data sizes:     COMMON   BANK0   BANK1   BANK2
  4832 ;;      Params:         2       0       0       0
  4833 ;;      Locals:         2       0       0       0
  4834 ;;      Temps:          0       0       0       0
  4835 ;;      Totals:         4       0       0       0
  4836 ;;Total ram usage:        4 bytes
  4837 ;; Hardware stack levels used:    1
  4838 ;; Hardware stack levels required when called:    1
  4839 ;; This function calls:
  4840 ;;		Nothing
  4841 ;; This function is called by:
  4842 ;;		_main
  4843 ;; This function uses a non-reentrant model
  4844 ;;
  4845  071C                     _Key_Scan:	
  4846                           
  4847                           ;Key.c: 199: u16 State = 0;
  4848                           
  4849                           ; Regs used in _Key_Scan: [wreg+status,2]
  4850  071C  01F5               	clrf	Key_Scan@State
  4851  071D  01F6               	clrf	Key_Scan@State+1
  4852                           
  4853                           ;Key.c: 201: (TRISD0=(1));
  4854  071E  1683               	bsf	3,5	;RP0=1, select bank1
  4855  071F  1408               	bsf	8,0
  4856                           
  4857                           ;Key.c: 202: (TRISD1=(1));
  4858  0720  1488               	bsf	8,1
  4859                           
  4860                           ;Key.c: 203: (TRISD2=(1));
  4861  0721  1508               	bsf	8,2
  4862                           
  4863                           ;Key.c: 204: (TRISD3=(1));
  4864  0722  1588               	bsf	8,3
  4865                           
  4866                           ;Key.c: 205: (TRISD4=(0));
  4867  0723  1208               	bcf	8,4
  4868                           
  4869                           ;Key.c: 206: (TRISD5=(0));
  4870  0724  1288               	bcf	8,5
  4871                           
  4872                           ;Key.c: 207: (TRISD6=(0));
  4873  0725  1308               	bcf	8,6
  4874                           
  4875                           ;Key.c: 209: (RD4=(0));
  4876  0726  1283               	bcf	3,5	;RP0=0, select bank0
  4877  0727  1208               	bcf	8,4
  4878                           
  4879                           ;Key.c: 210: (RD5=(1));
  4880  0728  1688               	bsf	8,5
  4881                           
  4882                           ;Key.c: 211: (RD6=(1));
  4883  0729  1708               	bsf	8,6
  4884                           
  4885                           ;Key.c: 213: if((RD0))
  4886  072A  1808               	btfsc	8,0
  4887                           
  4888                           ;Key.c: 214: ((State) |= (0x1<<(0)));
  4889  072B  1475               	bsf	Key_Scan@State,0
  4890                           
  4891                           ;Key.c: 215: if((RD1))
  4892  072C  1888               	btfsc	8,1
  4893                           
  4894                           ;Key.c: 216: ((State) |= (0x1<<(1)));
  4895  072D  14F5               	bsf	Key_Scan@State,1
  4896                           
  4897                           ;Key.c: 217: if((RD2))
  4898  072E  1908               	btfsc	8,2
  4899                           
  4900                           ;Key.c: 218: ((State) |= (0x1<<(2)));
  4901  072F  1575               	bsf	Key_Scan@State,2
  4902                           
  4903                           ;Key.c: 219: if((RD3))
  4904  0730  1988               	btfsc	8,3
  4905                           
  4906                           ;Key.c: 220: ((State) |= (0x1<<(3)));
  4907  0731  15F5               	bsf	Key_Scan@State,3
  4908                           
  4909                           ;Key.c: 223: (RD4=(1));
  4910  0732  1608               	bsf	8,4
  4911                           
  4912                           ;Key.c: 224: (RD5=(0));
  4913  0733  1288               	bcf	8,5
  4914                           
  4915                           ;Key.c: 225: (RD6=(1));
  4916  0734  1708               	bsf	8,6
  4917                           
  4918                           ;Key.c: 227: if((RD0))
  4919  0735  1808               	btfsc	8,0
  4920                           
  4921                           ;Key.c: 228: ((State) |= (0x1<<(4)));
  4922  0736  1675               	bsf	Key_Scan@State,4
  4923                           
  4924                           ;Key.c: 229: if((RD1))
  4925  0737  1888               	btfsc	8,1
  4926                           
  4927                           ;Key.c: 230: ((State) |= (0x1<<(5)));
  4928  0738  16F5               	bsf	Key_Scan@State,5
  4929                           
  4930                           ;Key.c: 231: if((RD2))
  4931  0739  1908               	btfsc	8,2
  4932                           
  4933                           ;Key.c: 232: ((State) |= (0x1<<(6)));
  4934  073A  1775               	bsf	Key_Scan@State,6
  4935                           
  4936                           ;Key.c: 233: if((RD3))
  4937  073B  1988               	btfsc	8,3
  4938                           
  4939                           ;Key.c: 234: ((State) |= (0x1<<(7)));
  4940  073C  17F5               	bsf	Key_Scan@State,7
  4941                           
  4942                           ;Key.c: 236: (RD4=(1));
  4943  073D  1608               	bsf	8,4
  4944                           
  4945                           ;Key.c: 237: (RD5=(1));
  4946  073E  1688               	bsf	8,5
  4947                           
  4948                           ;Key.c: 238: (RD6=(0));
  4949  073F  1308               	bcf	8,6
  4950                           
  4951                           ;Key.c: 240: if((RD0))
  4952  0740  1808               	btfsc	8,0
  4953                           
  4954                           ;Key.c: 241: ((State) |= (0x1<<(8)));
  4955  0741  1476               	bsf	Key_Scan@State+1,0
  4956                           
  4957                           ;Key.c: 242: if((RD1))
  4958  0742  1888               	btfsc	8,1
  4959                           
  4960                           ;Key.c: 243: ((State) |= (0x1<<(9)));
  4961  0743  14F6               	bsf	Key_Scan@State+1,1
  4962                           
  4963                           ;Key.c: 244: if((RD2))
  4964  0744  1908               	btfsc	8,2
  4965                           
  4966                           ;Key.c: 245: ((State) |= (0x1<<(10)));
  4967  0745  1576               	bsf	Key_Scan@State+1,2
  4968                           
  4969                           ;Key.c: 246: if((RD3))
  4970  0746  1988               	btfsc	8,3
  4971                           
  4972                           ;Key.c: 247: ((State) |= (0x1<<(11)));
  4973  0747  15F6               	bsf	Key_Scan@State+1,3
  4974                           
  4975                           ;Key.c: 249: return State;
  4976  0748  0876               	movf	Key_Scan@State+1,w
  4977  0749  00F4               	movwf	?_Key_Scan+1
  4978  074A  0875               	movf	Key_Scan@State,w
  4979  074B  00F3               	movwf	?_Key_Scan
  4980  074C  0008               	return
  4981  074D                     __end_of_Key_Scan:	
  4982                           
  4983                           	psect	text826
  4984  05E7                     __ptext826:	
  4985 ;; =============== function _Key_Scan ends ============
  4986                           
  4987                           
  4988 ;; *************** function _Key_GetEvent *****************
  4989 ;; Defined at:
  4990 ;;		line 61 in file "Code/Driver/Key/Key.c"
  4991 ;; Parameters:    Size  Location     Type
  4992 ;;		None
  4993 ;; Auto vars:     Size  Location     Type
  4994 ;;  key             1    2[COMMON] unsigned char 
  4995 ;; Return value:  Size  Location     Type
  4996 ;;                  1    wreg      unsigned char 
  4997 ;; Registers used:
  4998 ;;		wreg, fsr0l, fsr0h, status,2, status,0
  4999 ;; Tracked objects:
  5000 ;;		On entry : 140/0
  5001 ;;		On exit  : 160/20
  5002 ;;		Unchanged: FFE9F/0
  5003 ;; Data sizes:     COMMON   BANK0   BANK1   BANK2
  5004 ;;      Params:         0       0       0       0
  5005 ;;      Locals:         1       0       0       0
  5006 ;;      Temps:          0       0       0       0
  5007 ;;      Totals:         1       0       0       0
  5008 ;;Total ram usage:        1 bytes
  5009 ;; Hardware stack levels used:    1
  5010 ;; Hardware stack levels required when called:    1
  5011 ;; This function calls:
  5012 ;;		Nothing
  5013 ;; This function is called by:
  5014 ;;		_main
  5015 ;; This function uses a non-reentrant model
  5016 ;;
  5017  05E7                     _Key_GetEvent:	
  5018                           
  5019                           ;Key.c: 62: u8 key;
  5020                           ;Key.c: 64: if(st_Event_EventMage.FiFoHead == st_Event_EventMage.FiFoTail)
  5021                           
  5022                           ; Regs used in _Key_GetEvent: [wreg-fsr0h+status,2+status,0]
  5023  05E7  1683               	bsf	3,5	;RP0=1, select bank1
  5024  05E8  0824               	movf	(_st_Event_EventMage^(0+128)+4),w
  5025  05E9  0625               	xorwf	(_st_Event_EventMage^(0+128)+5),w
  5026  05EA  1903               	btfsc	3,2
  5027                           
  5028                           ;Key.c: 65: {
  5029                           ;Key.c: 66: return EVENT_NONE;
  5030  05EB  3400               	retlw	0
  5031                           
  5032                           ;Key.c: 67: }
  5033                           ;Key.c: 68: key = st_Event_EventMage.EventFiFo[st_Event_EventMage.FiFoHead];
  5034  05EC  0824               	movf	(_st_Event_EventMage^(0+128)+4),w
  5035  05ED  3EA0               	addlw	_st_Event_EventMage& (0+255)
  5036  05EE  0084               	movwf	4
  5037  05EF  0800               	movf	0,w
  5038  05F0  00F3               	movwf	Key_GetEvent@key
  5039  05F1  3003               	movlw	3
  5040                           
  5041                           ;Key.c: 69: st_Event_EventMage.FiFoHead = (++st_Event_EventMage.FiFoHead)%4;
  5042  05F2  0AA4               	incf	(_st_Event_EventMage^(0+128)+4),f
  5043  05F3  05A4               	andwf	(_st_Event_EventMage^(0+128)+4),f
  5044                           
  5045                           ;Key.c: 70: return key;
  5046  05F4  0873               	movf	Key_GetEvent@key,w
  5047  05F5  0008               	return
  5048  05F6                     __end_of_Key_GetEvent:	
  5049                           
  5050                           	psect	text828
  5051  07E8                     __ptext828:	
  5052 ;; =============== function _Key_PutEventToTail ends ============
  5053                           
  5054                           
  5055 ;; *************** function _BspSystem_TmrInit *****************
  5056 ;; Defined at:
  5057 ;;		line 98 in file "Code/Driver/BSP/BspSystem.c"
  5058 ;; Parameters:    Size  Location     Type
  5059 ;;		None
  5060 ;; Auto vars:     Size  Location     Type
  5061 ;;		None
  5062 ;; Return value:  Size  Location     Type
  5063 ;;		None               void
  5064 ;; Registers used:
  5065 ;;		wreg, status,2
  5066 ;; Tracked objects:
  5067 ;;		On entry : 60/0
  5068 ;;		On exit  : 60/0
  5069 ;;		Unchanged: FFF9F/0
  5070 ;; Data sizes:     COMMON   BANK0   BANK1   BANK2
  5071 ;;      Params:         0       0       0       0
  5072 ;;      Locals:         0       0       0       0
  5073 ;;      Temps:          0       0       0       0
  5074 ;;      Totals:         0       0       0       0
  5075 ;;Total ram usage:        0 bytes
  5076 ;; Hardware stack levels used:    1
  5077 ;; Hardware stack levels required when called:    1
  5078 ;; This function calls:
  5079 ;;		Nothing
  5080 ;; This function is called by:
  5081 ;;		_main
  5082 ;; This function uses a non-reentrant model
  5083 ;;
  5084  07E8                     _BspSystem_TmrInit:	
  5085                           
  5086                           ;BspSystem.c: 101: PSA=0;
  5087                           
  5088                           ; Regs used in _BspSystem_TmrInit: [wreg+status,2]
  5089  07E8  1683               	bsf	3,5	;RP0=1, select bank1
  5090  07E9  30B3               	movlw	179
  5091  07EA  1181               	bcf	1,3
  5092                           
  5093                           ;BspSystem.c: 102: T0CS=0;
  5094  07EB  1281               	bcf	1,5
  5095                           
  5096                           ;BspSystem.c: 105: PS0=1;PS1=0;PS2=1;
  5097  07EC  1401               	bsf	1,0
  5098  07ED  1081               	bcf	1,1
  5099  07EE  1501               	bsf	1,2
  5100                           
  5101                           ;BspSystem.c: 107: TMR0=179;
  5102  07EF  1283               	bcf	3,5	;RP0=0, select bank0
  5103  07F0  0081               	movwf	1	;volatile
  5104  07F1  3024               	movlw	36
  5105                           
  5106                           ;BspSystem.c: 109: T0IE=1;
  5107  07F2  168B               	bsf	11,5
  5108  07F3  178B               	bsf	11,7
  5109                           
  5110                           ;BspSystem.c: 113: T1CON = 0b00100100;
  5111  07F4  0090               	movwf	16	;volatile
  5112                           
  5113                           ;BspSystem.c: 114: TMR1IE = 0;
  5114  07F5  1683               	bsf	3,5	;RP0=1, select bank1
  5115  07F6  100C               	bcf	12,0
  5116                           
  5117                           ;BspSystem.c: 115: TMR1IF = 0;
  5118  07F7  1283               	bcf	3,5	;RP0=0, select bank0
  5119  07F8  100C               	bcf	12,0
  5120                           
  5121                           ;BspSystem.c: 120: TMR1H=0x00;TMR1L=0x00;
  5122  07F9  018F               	clrf	15	;volatile
  5123  07FA  018E               	clrf	14	;volatile
  5124  07FB  0008               	return
  5125  07FC                     __end_of_BspSystem_TmrInit:	
  5126                           
  5127                           	psect	text829
  5128  077C                     __ptext829:	
  5129 ;; =============== function _BspSystem_TmrInit ends ============
  5130                           
  5131                           
  5132 ;; *************** function _IRQ *****************
  5133 ;; Defined at:
  5134 ;;		line 49 in file "Code/Driver/BSP/BspSystem.c"
  5135 ;; Parameters:    Size  Location     Type
  5136 ;;		None
  5137 ;; Auto vars:     Size  Location     Type
  5138 ;;		None
  5139 ;; Return value:  Size  Location     Type
  5140 ;;		None               void
  5141 ;; Registers used:
  5142 ;;		wreg, status,2, status,0
  5143 ;; Tracked objects:
  5144 ;;		On entry : 0/0
  5145 ;;		On exit  : 0/0
  5146 ;;		Unchanged: FFF9F/0
  5147 ;; Data sizes:     COMMON   BANK0   BANK1   BANK2
  5148 ;;      Params:         0       0       0       0
  5149 ;;      Locals:         0       0       0       0
  5150 ;;      Temps:          2       0       0       0
  5151 ;;      Totals:         2       0       0       0
  5152 ;;Total ram usage:        2 bytes
  5153 ;; Hardware stack levels used:    1
  5154 ;; This function calls:
  5155 ;;		Nothing
  5156 ;; This function is called by:
  5157 ;;		Interrupt level 1
  5158 ;; This function uses a non-reentrant model
  5159 ;;
  5160  077C                     _IRQ:	
  5161                           
  5162                           ;BspSystem.c: 50: static u8 TimeBase1 = 0;
  5163                           ;BspSystem.c: 51: static u8 TimeBase2 = 0;
  5164                           ;BspSystem.c: 52: static u8 TimeBase3 = 0;
  5165                           ;BspSystem.c: 53: static u8 TimeBase4 = 0;
  5166                           ;BspSystem.c: 56: if(T0IF&&T0IE)
  5167  077C  190B               	btfsc	11,2
  5168  077D  1E8B               	btfss	11,5
  5169  077E  2FA0               	goto	i1l3006
  5170                           
  5171                           ;BspSystem.c: 57: {
  5172                           ;BspSystem.c: 58: TMR0=179;
  5173  077F  30B3               	movlw	179
  5174  0780  1283               	bcf	3,5	;RP0=0, select bank0
  5175  0781  1303               	bcf	3,6	;RP1=0, select bank0
  5176  0782  0081               	movwf	1	;volatile
  5177                           
  5178                           ;BspSystem.c: 61: if(++TimeBase1 == 2)
  5179  0783  0AE8               	incf	IRQ@TimeBase1,f
  5180  0784  0868               	movf	IRQ@TimeBase1,w
  5181  0785  3A02               	xorlw	2
  5182  0786  1D03               	skipz
  5183  0787  2F8B               	goto	i1l12493
  5184  0788  30FF               	movlw	255
  5185                           
  5186                           ;BspSystem.c: 62: {
  5187                           ;BspSystem.c: 63: TimeBase1 = 0;
  5188  0789  01E8               	clrf	IRQ@TimeBase1
  5189                           
  5190                           ;BspSystem.c: 64: u8_Timer_scan = ~u8_Timer_scan;
  5191  078A  06EE               	xorwf	_u8_Timer_scan,f
  5192  078B                     i1l12493:	
  5193                           
  5194                           ;BspSystem.c: 66: }
  5195                           ;BspSystem.c: 69: if(++TimeBase2 == 41)
  5196  078B  0AE9               	incf	IRQ@TimeBase2,f
  5197  078C  0869               	movf	IRQ@TimeBase2,w
  5198  078D  3A29               	xorlw	41
  5199  078E  1903               	btfsc	3,2
  5200                           
  5201                           ;BspSystem.c: 70: {
  5202                           ;BspSystem.c: 71: TimeBase2 = 0;
  5203  078F  01E9               	clrf	IRQ@TimeBase2
  5204                           
  5205                           ;BspSystem.c: 73: }
  5206                           ;BspSystem.c: 76: if(++TimeBase3 == 63)
  5207  0790  0AEA               	incf	IRQ@TimeBase3,f
  5208  0791  086A               	movf	IRQ@TimeBase3,w
  5209  0792  3A3F               	xorlw	63
  5210  0793  1903               	btfsc	3,2
  5211                           
  5212                           ;BspSystem.c: 77: {
  5213                           ;BspSystem.c: 78: TimeBase3 = 0;
  5214  0794  01EA               	clrf	IRQ@TimeBase3
  5215                           
  5216                           ;BspSystem.c: 80: }
  5217                           ;BspSystem.c: 83: if(++TimeBase4 == 129)
  5218  0795  1683               	bsf	3,5	;RP0=1, select bank1
  5219  0796  0AAC               	incf	IRQ@TimeBase4^(0+128),f
  5220  0797  082C               	movf	IRQ@TimeBase4^(0+128),w
  5221  0798  3A81               	xorlw	129
  5222  0799  1D03               	skipz
  5223  079A  2F9F               	goto	i1l12507
  5224  079B  30FF               	movlw	255
  5225                           
  5226                           ;BspSystem.c: 84: {
  5227                           ;BspSystem.c: 85: TimeBase4 = 0;
  5228  079C  01AC               	clrf	IRQ@TimeBase4^(0+128)
  5229                           
  5230                           ;BspSystem.c: 86: u8_Timer_Flash = ~u8_Timer_Flash;
  5231  079D  1283               	bcf	3,5	;RP0=0, select bank0
  5232  079E  06ED               	xorwf	_u8_Timer_Flash,f
  5233  079F                     i1l12507:	
  5234                           
  5235                           ;BspSystem.c: 88: }
  5236                           ;BspSystem.c: 90: T0IF=0;
  5237  079F  110B               	bcf	11,2
  5238  07A0                     i1l3006:	
  5239  07A0  0872               	movf	??_IRQ+1,w
  5240  07A1  008A               	movwf	10
  5241  07A2  0E71               	swapf	??_IRQ^(0+-128),w
  5242  07A3  0083               	movwf	3
  5243  07A4  0EFE               	swapf	126,f
  5244  07A5  0E7E               	swapf	126,w
  5245  07A6  0009               	retfie
  5246  07A7                     __end_of_IRQ:	
  5247                           
  5248                           	psect	intentry
  5249  0004                     __pintentry:	
  5250                           ; Regs used in _IRQ: [wreg+status,2+status,0]
  5251                           
  5252  0004                     interrupt_function:	
  5253  007E                     saved_w	set	btemp
  5254  0004  00FE               	movwf	btemp
  5255  0005  0E03               	swapf	3,w
  5256  0006  00F1               	movwf	??_IRQ
  5257  0007  080A               	movf	10,w
  5258  0008  00F2               	movwf	??_IRQ+1
  5259  0009  118A  2F7C         	ljmp	_IRQ
  5260                           
  5261                           	psect	text830
  5262  0000                     __ptext830:	
  5263 ;; =============== function _IRQ ends ============
  5264                           
  5265  007E                     btemp	set	126	;btemp
  5266  007E                     wtemp0	set	126


HI-TECH Software PICC Macro Assembler V9.83 build 10920 
Symbol Table                                                                                   Sat Nov 01 07:45:22 2014

              ?_Key_GetEvent 0071                            pc 0002               ___bmul@product 0074  
                main@KeyTemp 00D5                 ___awdiv@sign 0021                           fsr 0004  
        ___wmul@multiplicand 0075                          _GIE 005F                          _RD0 0040  
                        _RD1 0041                          _RE0 0048                          _RD2 0042  
                        _RE1 0049                          _RD3 0043                          _RE2 004A  
                        _RD4 0044                          _RD5 0045                          _RD6 0046  
                        _PS0 0408                          _PS1 0409                          _PS2 040A  
                        _IRQ 077C                          _PSA 040B                          fsr0 0004  
                        indf 0000    __end_of_BspSystem_TmrInit 07FC                         ?_IRQ 0071  
              ?_Key_PutEvent 0074                         l3009 0000                         l6100 0000  
                       l6112 0000                         l6106 0000                         l4524 0E5B  
                       l6109 0000                         l6118 0000                         l4552 0000  
                       l6081 0000                         l4537 0EEF                         l6084 0523  
                       l6086 0000                         l6095 0000                         l6098 0363  
                       l7631 0000                         l7703 0000                         l7640 0399  
                       l7645 03BE                         l7670 0000                         l7655 0000  
                       l7649 03DC                         l7667 0000                         STR_1 06BA  
                       STR_2 06FE                         STR_3 06D9                         STR_4 06CB  
                       STR_5 06F2                         STR_6 06E6                         STR_7 0713  
                       STR_8 06A8                         STR_9 067E                         _T0IE 005D  
                       _T0IF 005A                         _T0CS 040D                         u2130 0533  
                       u2325 04C9                         u2365 02AC                         u2535 042D  
                       u2615 0E30                         u2545 0437                         u2495 0506  
                       u2690 005D                         u2595 0DF8                         _TMR0 0001  
        __end_of_Lcd_StrDisp 0300                         _main 074D                         btemp 007E  
                       start 000B               ??_Key_Debounce 0020            ___bmul@multiplier 0075  
             ??_Key_GetEvent 0073                        ??_IRQ 0071                        l10715 02CA  
                      l14011 0000                        l14003 0000                        l10708 0000  
                      l10724 0000                        l14013 0000                        l14005 0E39  
                      l14021 0000                        l14101 0000                        l10718 0000  
                      l14015 0000                        l14023 0000                        l14111 0000  
                      l14103 0000                        l14009 0E44                        l14017 0000  
                      l14025 0000                        l14041 0000                        l14113 0000  
                      l14105 0000                        l14201 015E                 myitoa@nCount 0031  
                      l10682 0000                        l10835 0000                        l14019 0000  
                      l14051 0000                        l14035 0000                        l14027 0000  
                      l14115 0000                        l14107 0000                        l14123 0000  
                      l14211 0000                        l14203 0164                        l14131 0000  
                      l14061 0000                        l14053 0000                        l14045 0000  
                      l14037 0000                        l14029 0000                        l14117 0000  
                      l14109 0000                        l14125 02F3                        l14213 0000  
                      l14205 0000                        l14141 0000                        l14133 0000  
                      l14063 03C8                        l14055 0000                        l14047 0000  
                      l14039 0393                        l14119 0000                        l14127 0000  
                      l14231 0000                        l14223 0000                        l14215 0000  
                      l14207 0000                        l14151 0000                        l14143 0000  
                      l14135 0000                 myitoa@nIndex 0033                        l10688 0000  
                      l13521 0000                        l14073 0000                        l14065 0000  
                      l14049 03A9                        l14233 0000                        l14225 0217  
                      l14217 0000                        l14209 0000                        l14161 010A  
                      l14153 0000                        l14145 0000                        l14137 0000  
                      l14129 0000                        l10698 0000                        l13523 0000  
                      l13515 0000                        l13531 0000                        l14083 03F6  
                      l14075 0000                        l14067 0000                        l14059 0000  
                      l14091 0401                        l14243 0000                        l14235 023F  
                      l14227 0000                        l14219 0000                        l14171 0116  
                      l14163 010B                        l14155 0000                        l14147 0000  
                      l14139 0000                        l14251 0000                        l13525 0000  
                      l13517 0000                        l13541 0000                        l13621 0046  
                      l13701 0000                        l14085 0000                        l14077 03E6  
                      l14069 0000                        l14093 0418                        l14245 026B  
                      l14237 0000                        l14229 0000                        l14165 0000  
                      l14149 0000                        l14261 0000                        l14253 075D  
                      l13527 0000                        l13519 0000                        l13551 0000  
                      l13631 0000                        l13623 0000                        l14079 0000  
                      l14095 0370                        l14239 0000                        l14255 0000  
                      l14247 0000                        l13529 0000                        l13537 0000  
                      l13553 0000                        l13561 0000                        l13617 0052  
                      l13641 0000                        l13633 0536                        l13713 0343  
                      l13801 0000                        l14097 041C                        l14185 012F  
                      l14177 0122                        l14169 0115                        l14257 0000  
                      l14249 0000                        l13539 0000                        l13571 0000  
                      l13563 0000                        l13619 0000                        l13635 0000  
                      l13651 0000                        l13643 0000                        l13715 0000  
                      l13707 0000                        l13723 0000                        l13811 0000  
                      l14099 0000                        l14195 0149                        l14187 0130  
                      l14179 0123                        l14259 076F                        l13549 0000  
                      l13573 0000                        l13565 0000                        l13557 0000  
                      l13637 0000                        l13629 0000                        l13661 0000  
                      l13717 0000                        l13709 033B                        l13733 04C0  
                      l13725 0000                        l13805 0288                        l13813 0000  
                      l13901 0E6E                        l13575 0000                        l13567 0000  
                      l13559 0000                        l13639 0000                        l13671 032E  
                      l13743 0000                        l13735 0000                        l13807 0000  
                      l13823 0000                        l14471 0EBA                        l14463 0E91  
                      l13577 0000                        l13569 0000                        l13673 0313  
                      l13745 04D7                        l13841 0000                        l13825 04EF  
                      l13817 0000                        l14481 0EE8                        l14473 0EBF  
                      l14465 0EAB                        l13905 0E71                        l13579 0000  
                      l13667 0000                        l13691 0000                        l13739 0000  
                      l13763 0000                        l13771 0000                        l13851 051C  
                      l13835 04FD                        l13827 0000                        l13819 04E6  
                      l14475 0ED9                        l14467 0EB0                        l13907 0EED  
                      l13693 028E                        l13757 02A6                        l13765 02B9  
                      l13749 0000                        l13773 0000                        l13845 0000  
                      l13837 0000                        l14477 0EDE                        l14469 0EB5  
                      l13679 0000                        l13687 0337                        l13783 0000  
                      l13775 02C4                        l13847 0514                        l14479 0EE3  
                      l13871 0E55                        l13855 0E4C                        l13951 0000  
                      l13689 0303                        l13769 0000                        l13793 0000  
                      l13849 0000                        l13881 0E5E                        l13873 0E57  
                      l13865 0E4F                        l13857 0E4D                        l13953 0000  
                      l13699 0000                        l13787 0000                        l13779 0000  
                      l13795 0000                        l13883 0E60                        l13875 0E59  
                      l13867 0E51                        l13971 0000                        l13963 0000  
                      l13789 02D7                        l13797 0274                        l13885 0E62  
                      l13869 0E53                        l13949 0000                        l13965 0000  
                      l13799 0000                        l13895 0E68                        l13887 0E64  
                      l13967 044D                        l13991 0E00                        l13983 0000  
                      l13897 0E6A                        l13889 0E66                        l13977 048D  
                      l13969 0451                        l13985 0000                        l13899 0E6C  
                      l13979 04A8                        l13995 0E06                        l13997 0000  
                      l13989 0000                        l13999 0000                        ?_main 0071  
               myitoa@nValue 002F              __end_of___awdiv 0521              __end_of___lbdiv 02D9  
                      STR_10 0693                        STR_11 070A                        STR_12 0666  
                      STR_13 064C                        STR_14 0632              __end_of___lbmod 028C  
                      _ANSEL 0091              ___awdiv@divisor 0073                        _T1CON 0010  
            __end_of___lwdiv 04DC              __end_of___lwmod 02BE              ___awdiv@counter 0020  
                      _TMR1H 000F                        _TMR1L 000E              __end_of_delayms 0058  
             ??_Key_PutEvent 0076         __end_of_Lcd_WriteCmd 0363            ??_LcdMenu_VPrintf 0040  
              ??_ReceiveByte 0073                        pclath 000A            ??_LcdMenu_NumMasK 0074  
                      status 0003                        wtemp0 007E        __end_of_LcdMenu_Setup 0270  
          ??_LcdMenu_Welcome 007A              ___lbdiv@divisor 0073              ___lbdiv@counter 0075  
           __end_of_Lcd_Init 0046                 __end_of_main 077C           __size_of_CheckBusy 0009  
           __end_of_Key_Scan 074D                       ??_main 007A             __end_of_SendByte 0540  
                _Lcd_StrDisp 02D9   __size_of_BspSystem_TmrInit 0014            LcdMenu_VPrintf@d1 0055  
          LcdMenu_VPrintf@d2 0057            LcdMenu_VPrintf@ch 0059             ___awdiv@dividend 0075  
        Key_Debounce@ContKey 007A                       i1l3006 07A0                       _TMR1IE 0460  
                     _TMR1IF 0060                       _TRISD0 0440                       _TRISD1 0441  
                     _TRISE0 0448                       _TRISD2 0442                       _TRISE1 0449  
                     _TRISD3 0443                       _TRISE2 044A                       _TRISD4 0444  
                     _TRISD5 0445                       _TRISD6 0446          Key_Debounce@TrigKey 0022  
        __end_of_ReceiveByte 0563      LcdMenu_VPrintf@pv_Start 005B                       ___bmul 028C  
                     ___wmul 0339                    ??___awdiv 0077                    ??___lbdiv 0074  
                  ??___lbmod 0078                    ??___lwdiv 0077                    ??___lwmod 007A  
                 _SetupParam 00C2             ___awdiv@quotient 0022                    ??_delayms 0075  
                     _myitoa 0422        __end_of_Lcd_WriteData 0574                       clrloop 05F7  
              Key_Scan@State 0075                       saved_w 007E         __end_of_Key_Debounce 0E4C  
       __end_of_Key_GetEvent 05F6            __end_of_CheckBusy 036C             ___lbdiv@dividend 0074  
            ___lbmod@divisor 0077              ___lbmod@counter 0021          ___bmul@multiplicand 0073  
             __pcstackCOMMON 0071                 __pidataBANK2 07A7         __end_of_Key_PutEvent 0EF0  
           ___lbdiv@quotient 0076         Key_PutEvent@KeyValue 0074        __size_of_Lcd_WriteCmd 0011  
                  ?_Lcd_Init 0071                   __pbssBANK0 0068                   __pbssBANK1 00A0  
                  ?_Key_Scan 0073   __end_of_Key_PutEventToTail 0F00                  _ReceiveByte 0540  
                  ?_SendByte 0071                   __pmaintext 074D                      ?___bmul 0073  
                    ?___wmul 0073                   __pintentry 0004                 _Lcd_WriteCmd 0352  
                    ?_myitoa 0025              _LcdMenu_VPrintf 036C                      i1l12505 0000  
                    i1l12507 079F                      i1l12481 0000                      i1l12491 0000  
                    i1l12493 078B                      i1l12487 0000              _LcdMenu_NumMasK 0300  
           ReceiveByte@temp1 0074             ReceiveByte@temp2 0075         Key_Debounce@KeyState 0077  
            _LcdMenu_Welcome 000D                   ??_Lcd_Init 0079              _LcdMenu_StrTemp 00AE  
                 ??_Key_Scan 0075                   ??_SendByte 0073            Lcd_WriteCmd@Cbyte 0078  
       LcdMenu_VPrintf@p_Str 005A                 ReceiveByte@i 0076         LcdMenu_VPrintf@index 005D  
            __size_of___bmul 000E                      ___awdiv 04DC                      ___lbdiv 02BE  
                    ___lbmod 0270              __size_of___wmul 0019                      ___lwdiv 04B2  
                    ___lwmod 029A                      _delayms 0046        __size_of_Key_Debounce 005A  
            __size_of_myitoa 0090                 IRQ@TimeBase1 0068                 IRQ@TimeBase2 0069  
               IRQ@TimeBase3 006A                 IRQ@TimeBase4 00AC                 __size_of_IRQ 002B  
      __size_of_Key_GetEvent 000F           LcdMenu_NumMasK@Str 0076       Key_Debounce@ContKeyBuf 00A6  
               ?_Lcd_StrDisp 0020                      main@Key 00D7         end_of_initialization 07E5  
                    init_ram 05DB        __size_of_Key_PutEvent 00A4             Key_PutEvent@temp 0076  
               _Key_Debounce 0DF2                 _Key_GetEvent 05E7      __end_of_LcdMenu_VPrintf 0422  
               __pstringtext 0600      __end_of_LcdMenu_NumMasK 0339           LcdMenu_Setup@Index 006B  
    __end_of_LcdMenu_Welcome 0020       __size_of_LcdMenu_Setup 0218             ___lbmod@dividend 0020  
               SendByte@temp 0074                 _Key_PutEvent 0E4C                  ___lbmod@rem 0022  
                  _CheckBusy 0363                  myitoa@nTemp 002E               __end_of___bmul 029A  
                myitoa@radix 0028               __end_of___wmul 0352                  myitoa@szMap 0120  
                myitoa@value 0025               __end_of_myitoa 04B2          start_initialization 07CB  
                  SendByte@i 0075                  __end_of_IRQ 07A7            __size_of_Lcd_Init 0026  
               ?_ReceiveByte 0071                   ?_CheckBusy 0071             LcdMenu_VPrintf@i 005C  
          __size_of_Key_Scan 0031                _LcdMenu_Setup 0058       __size_of_Lcd_WriteData 0011  
          __size_of_SendByte 001F                     ??___bmul 0074                     ??___wmul 0077  
           LcdMenu_NumMasK@i 0077           _Key_PutEventToTail 0EF0             ?_LcdMenu_VPrintf 0036  
                __pdataBANK2 0120             ?_LcdMenu_NumMasK 0073             ?_LcdMenu_Welcome 0071  
                   ??_myitoa 002A             LcdMenu_Setup@num 00C8          ?_Key_PutEventToTail 0071  
                __pbssCOMMON 007A                __pcstackBANK0 0020                __pcstackBANK1 00C8  
       __size_of_Lcd_StrDisp 0027               ?_LcdMenu_Setup 005F              Key_GetEvent@key 0073  
       ??_Key_PutEventToTail 0073             ___lwdiv@dividend 0075                     ?___awdiv 0073  
                   ?___lbdiv 0073                    __ptext810 0DF2                    __ptext811 0422  
                  __ptext803 0058                     ?___lbmod 0077                    __ptext820 028C  
                  __ptext812 0363                    __ptext804 000D                    __ptext821 0300  
                  __ptext813 0E4C                    __ptext805 02D9                    __ptext830 0000  
                  __ptext822 0540                    __ptext814 04DC                    __ptext806 0020  
                  __ptext823 0521                    __ptext815 0270                    __ptext807 036C  
                  __ptext824 0046                    __ptext816 02BE                    __ptext808 0563  
                  __ptext825 071C                    __ptext817 029A                    __ptext809 0352  
                  __ptext826 05E7                    __ptext818 04B2                    __ptext827 0EF0  
                  __ptext819 0339                    __ptext828 07E8                    __ptext829 077C  
                   ?___lwdiv 0073                     ?___lwmod 0020                     ?_delayms 0073  
              _Lcd_WriteData 0563         LcdMenu_NumMasK@count 0075             ___lwdiv@quotient 0078  
          interrupt_function 0004                  ??_CheckBusy 0077               ___wmul@product 0077  
         _st_Event_EventMage 00A0                  __stringbase 0612               ?_Lcd_WriteData 0071  
          ___wmul@multiplier 0073                     _Lcd_Init 0020       LcdMenu_NumMasK@MaskBit 0073  
                 myitoa@pStr 0035              ??_LcdMenu_Setup 0060                     _Key_Scan 071C  
             _u8_Timer_Flash 006D        LcdMenu_VPrintf@StrBuf 0041        LcdMenu_VPrintf@String 0036  
       __size_of_ReceiveByte 0023                     _SendByte 0521                 Lcd_StrDisp@s 0021  
               Lcd_StrDisp@x 0079                 Lcd_StrDisp@y 0020                    init_fetch 05D7  
         Lcd_WriteData@Dbyte 0078             __size_of___awdiv 0045             __size_of___lbdiv 001B  
           __size_of___lbmod 001C             __size_of___lwdiv 002A             __size_of___lwmod 0024  
           __size_of_delayms 0012                     _addr_tab 0612              ___lwdiv@divisor 0073  
            ___lwdiv@counter 0077                __size_of_main 002F        Key_PutEventToTail@key 0073  
      LcdMenu_Setup@KeyEvent 00D4                     delayms@i 0075                     delayms@t 0073  
                   clear_ram 05F6                ?_Lcd_WriteCmd 0071              ??_Lcd_WriteData 0078  
                  myitoa@str 0027                _u8_Timer_scan 006E                     intlevel1 0000  
           ___lwmod@dividend 0022      Key_Debounce@KeyStateBuf 00A8                    stringcode 060A  
       LcdMenu_Setup@Section 006C               ??_Lcd_WriteCmd 0078     Key_Debounce@LongDebounce 00AA  
            ___lwmod@divisor 0020     __size_of_LcdMenu_VPrintf 00B6              ___lwmod@counter 0024  
              ??_Lcd_StrDisp 0022    Key_Debounce@ShortDebounce 00AD                     stringtab 0600  
   __size_of_LcdMenu_NumMasK 0039     __size_of_LcdMenu_Welcome 0013            _BspSystem_TmrInit 07E8  
        LcdMenu_Setup@pParam 005F           ?_BspSystem_TmrInit 0071  __size_of_Key_PutEventToTail 0010  
              SendByte@Dbyte 0073                ?_Key_Debounce 0077          ??_BspSystem_TmrInit 0073  
