

HI-TECH Software PIC PRO Macro Assembler V9.83 build 10920 
                                                                                               Tue Nov 04 00:50:58 2014

HI-TECH Software Omniscient Code Generator (PRO mode) build 10920
     1                           	processor	16F914
     2                           	opt	pw 120
     3                           	opt	pm
     4                           	psect	config,global,class=CONFIG,delta=2
     5                           	psect	idataBANK2,global,class=CODE,delta=2
     6                           	psect	idataBANK1,global,class=CODE,delta=2
     7                           	psect	stringtext,global,reloc=256,class=STRCODE,delta=2
     8                           	psect	cinit,global,class=CODE,delta=2
     9                           	psect	bssCOMMON,global,class=COMMON,space=1,delta=1
    10                           	psect	bssBANK0,global,class=BANK0,space=1,delta=1
    11                           	psect	bssBANK1,global,class=BANK1,space=1,delta=1
    12                           	psect	dataBANK1,global,class=BANK1,space=1,delta=1
    13                           	psect	bssBANK2,global,class=BANK2,space=1,delta=1
    14                           	psect	dataBANK2,global,class=BANK2,space=1,delta=1
    15                           	psect	clrtext,global,class=CODE,delta=2
    16                           	psect	inittext,global,class=CODE,delta=2
    17                           	psect	cstackBANK1,global,class=BANK1,space=1,delta=1
    18                           	psect	cstackCOMMON,global,class=COMMON,space=1,delta=1
    19                           	psect	cstackBANK0,global,class=BANK0,space=1,delta=1
    20                           	psect	maintext,global,class=CODE,delta=2
    21                           	psect	text661,local,class=CODE,delta=2
    22                           	psect	text665,local,class=CODE,delta=2
    23                           	psect	text685,local,class=CODE,delta=2
    24                           	psect	text688,local,class=CODE,delta=2
    25                           	psect	text689,local,class=CODE,delta=2
    26                           	psect	intentry,global,class=CODE,delta=2
    27                           	psect	text693,local,class=CODE,delta=2
    28                           	psect	pa_nodes,global,class=CODE,delta=2
    29                           	dabs	1,0x7E,2
    30  000A                     	;#
    31                           
    32                           	psect	config
    33  2007  FFC4               	dw	65476	;#
    34                           
    35                           	psect	idataBANK2
    36  0CEF                     __pidataBANK2:	
    37                           
    38                           ;initializer for myitoa@szMap
    39  0CEF  3430               	retlw	48
    40  0CF0  3431               	retlw	49
    41  0CF1  3432               	retlw	50
    42  0CF2  3433               	retlw	51
    43  0CF3  3434               	retlw	52
    44  0CF4  3435               	retlw	53
    45  0CF5  3436               	retlw	54
    46  0CF6  3437               	retlw	55
    47  0CF7  3438               	retlw	56
    48  0CF8  3439               	retlw	57
    49  0CF9  3461               	retlw	97
    50  0CFA  3462               	retlw	98
    51  0CFB  3463               	retlw	99
    52  0CFC  3464               	retlw	100
    53  0CFD  3465               	retlw	101
    54  0CFE  3466               	retlw	102
    55  0CFF  3467               	retlw	103
    56  0D00  3468               	retlw	104
    57  0D01  3469               	retlw	105
    58  0D02  346A               	retlw	106
    59  0D03  346B               	retlw	107
    60  0D04  346C               	retlw	108
    61  0D05  346D               	retlw	109
    62  0D06  346E               	retlw	110
    63  0D07  346F               	retlw	111
    64  0D08  3470               	retlw	112
    65  0D09  3471               	retlw	113
    66  0D0A  3472               	retlw	114
    67  0D0B  3473               	retlw	115
    68  0D0C  3474               	retlw	116
    69  0D0D  3475               	retlw	117
    70  0D0E  3476               	retlw	118
    71  0D0F  3477               	retlw	119
    72  0D10  3478               	retlw	120
    73  0D11  3479               	retlw	121
    74  0D12  347A               	retlw	122
    75                           
    76                           	psect	idataBANK1
    77  0000                     __pidataBANK1:	
    78                           
    79                           	psect	stringtext
    80  0800                     __pstringtext:	
    81  0800                     stringtab:	
    82                           ;	global	stringtab,__stringbase
    83                           
    84                           
    85                           ;	String table - string pointers are 2 bytes each
    86  0800  1BFF               	btfsc	btemp+1,7
    87  0801  280A               	ljmp	stringcode
    88  0802  1383               	bcf	3,7
    89  0803  187F               	btfsc	btemp+1,0
    90  0804  1783               	bsf	3,7
    91  0805  0800               	movf	0,w
    92  0806  0A84               	incf	4,f
    93  0807  1903               	skipnz
    94  0808  0AFF               	incf	btemp+1,f
    95  0809  0008               	return
    96  080A                     stringcode:	
    97  080A  087F               	movf	btemp+1,w
    98  080B  397F               	andlw	127
    99  080C  008A               	movwf	10
   100  080D  0804               	movf	4,w
   101  080E  0A84               	incf	4,f
   102  080F  1903               	skipnz
   103  0810  0AFF               	incf	btemp+1,f
   104  0811  0082               	movwf	2
   105  0812                     __stringbase:	
   106  0812                     Lcd_StrDisp@addr_tab:	
   107  0812  3480               	retlw	128
   108  0813  3481               	retlw	129
   109  0814  3482               	retlw	130
   110  0815  3483               	retlw	131
   111  0816  3484               	retlw	132
   112  0817  3485               	retlw	133
   113  0818  3486               	retlw	134
   114  0819  3487               	retlw	135
   115  081A  3490               	retlw	144
   116  081B  3491               	retlw	145
   117  081C  3492               	retlw	146
   118  081D  3493               	retlw	147
   119  081E  3494               	retlw	148
   120  081F  3495               	retlw	149
   121  0820  3496               	retlw	150
   122  0821  3497               	retlw	151
   123  0822  3488               	retlw	136
   124  0823  3489               	retlw	137
   125  0824  348A               	retlw	138
   126  0825  348B               	retlw	139
   127  0826  348C               	retlw	140
   128  0827  348D               	retlw	141
   129  0828  348E               	retlw	142
   130  0829  348F               	retlw	143
   131  082A  3498               	retlw	152
   132  082B  3499               	retlw	153
   133  082C  349A               	retlw	154
   134  082D  349B               	retlw	155
   135  082E  349C               	retlw	156
   136  082F  349D               	retlw	157
   137  0830  349E               	retlw	158
   138  0831  349F               	retlw	159
   139  0001                     _TMR0	set	1
   140  0067                     _EEIF	set	103
   141  005F                     _GIE	set	95
   142  0040                     _RD0	set	64
   143  0041                     _RD1	set	65
   144  0042                     _RD2	set	66
   145  0043                     _RD3	set	67
   146  0044                     _RD4	set	68
   147  0045                     _RD5	set	69
   148  0046                     _RD6	set	70
   149  0048                     _RE0	set	72
   150  0049                     _RE1	set	73
   151  004A                     _RE2	set	74
   152  005D                     _T0IE	set	93
   153  005A                     _T0IF	set	90
   154  0091                     _ANSEL	set	145
   155  047C                     _IRCF0	set	1148
   156  047D                     _IRCF1	set	1149
   157  047E                     _IRCF2	set	1150
   158  0408                     _PS0	set	1032
   159  0409                     _PS1	set	1033
   160  040A                     _PS2	set	1034
   161  040B                     _PSA	set	1035
   162  0478                     _SCS	set	1144
   163  040D                     _T0CS	set	1037
   164  0440                     _TRISD0	set	1088
   165  0441                     _TRISD1	set	1089
   166  0442                     _TRISD2	set	1090
   167  0443                     _TRISD3	set	1091
   168  0444                     _TRISD4	set	1092
   169  0445                     _TRISD5	set	1093
   170  0446                     _TRISD6	set	1094
   171  0448                     _TRISE0	set	1096
   172  0449                     _TRISE1	set	1097
   173  044A                     _TRISE2	set	1098
   174  010D                     _EEADR	set	269
   175  010C                     _EEDATL	set	268
   176  018D                     _EECON2	set	397
   177  0C67                     _EEPGD	set	3175
   178  0C60                     _RD	set	3168
   179  0C61                     _WR	set	3169
   180  0C62                     _WREN	set	3170
   181  0832                     STR_16:	
   182  0832  34D7               	retlw	-41
   183  0833  34B4               	retlw	-76
   184  0834  34CC               	retlw	-52
   185  0835  34AC               	retlw	-84
   186  0836  343A               	retlw	58	;':'
   187  0837  3425               	retlw	37	;'%'
   188  0838  3464               	retlw	100	;'d'
   189  0839  3425               	retlw	37	;'%'
   190  083A  3464               	retlw	100	;'d'
   191  083B  3425               	retlw	37	;'%'
   192  083C  3464               	retlw	100	;'d'
   193  083D  3425               	retlw	37	;'%'
   194  083E  3464               	retlw	100	;'d'
   195  083F  3425               	retlw	37	;'%'
   196  0840  3464               	retlw	100	;'d'
   197  0841  3425               	retlw	37	;'%'
   198  0842  3464               	retlw	100	;'d'
   199  0843  3425               	retlw	37	;'%'
   200  0844  3464               	retlw	100	;'d'
   201  0845  3425               	retlw	37	;'%'
   202  0846  3464               	retlw	100	;'d'
   203  0847  3425               	retlw	37	;'%'
   204  0848  3464               	retlw	100	;'d'
   205  0849  3425               	retlw	37	;'%'
   206  084A  3464               	retlw	100	;'d'
   207  084B  3400               	retlw	0
   208  084C                     STR_15:	
   209  084C  34B1               	retlw	-79
   210  084D  34E0               	retlw	-32
   211  084E  34BA               	retlw	-70
   212  084F  34C5               	retlw	-59
   213  0850  343A               	retlw	58	;':'
   214  0851  3425               	retlw	37	;'%'
   215  0852  3464               	retlw	100	;'d'
   216  0853  3425               	retlw	37	;'%'
   217  0854  3464               	retlw	100	;'d'
   218  0855  3425               	retlw	37	;'%'
   219  0856  3464               	retlw	100	;'d'
   220  0857  3425               	retlw	37	;'%'
   221  0858  3464               	retlw	100	;'d'
   222  0859  3425               	retlw	37	;'%'
   223  085A  3464               	retlw	100	;'d'
   224  085B  3425               	retlw	37	;'%'
   225  085C  3464               	retlw	100	;'d'
   226  085D  3425               	retlw	37	;'%'
   227  085E  3464               	retlw	100	;'d'
   228  085F  3425               	retlw	37	;'%'
   229  0860  3464               	retlw	100	;'d'
   230  0861  3425               	retlw	37	;'%'
   231  0862  3464               	retlw	100	;'d'
   232  0863  3425               	retlw	37	;'%'
   233  0864  3464               	retlw	100	;'d'
   234  0865  3400               	retlw	0
   235  0866                     STR_14:	
   236  0866  34C9               	retlw	-55
   237  0867  34E8               	retlw	-24
   238  0868  34B1               	retlw	-79
   239  0869  34B8               	retlw	-72
   240  086A  34BA               	retlw	-70
   241  086B  34C5               	retlw	-59
   242  086C  343A               	retlw	58	;':'
   243  086D  3425               	retlw	37	;'%'
   244  086E  3464               	retlw	100	;'d'
   245  086F  3425               	retlw	37	;'%'
   246  0870  3464               	retlw	100	;'d'
   247  0871  3425               	retlw	37	;'%'
   248  0872  3464               	retlw	100	;'d'
   249  0873  3425               	retlw	37	;'%'
   250  0874  3464               	retlw	100	;'d'
   251  0875  3425               	retlw	37	;'%'
   252  0876  3464               	retlw	100	;'d'
   253  0877  3425               	retlw	37	;'%'
   254  0878  3464               	retlw	100	;'d'
   255  0879  3425               	retlw	37	;'%'
   256  087A  3464               	retlw	100	;'d'
   257  087B  3425               	retlw	37	;'%'
   258  087C  3464               	retlw	100	;'d'
   259  087D  3400               	retlw	0
   260  087E                     STR_11:	
   261  087E  34CB               	retlw	-53
   262  087F  34A2               	retlw	-94
   263  0880  34BD               	retlw	-67
   264  0881  34BA               	retlw	-70
   265  0882  343A               	retlw	58	;':'
   266  0883  3425               	retlw	37	;'%'
   267  0884  3464               	retlw	100	;'d'
   268  0885  3425               	retlw	37	;'%'
   269  0886  3464               	retlw	100	;'d'
   270  0887  3444               	retlw	68	;'D'
   271  0888  34CB               	retlw	-53
   272  0889  34A2               	retlw	-94
   273  088A  34C1               	retlw	-63
   274  088B  34CF               	retlw	-49
   275  088C  343A               	retlw	58	;':'
   276  088D  3425               	retlw	37	;'%'
   277  088E  3464               	retlw	100	;'d'
   278  088F  3425               	retlw	37	;'%'
   279  0890  3464               	retlw	100	;'d'
   280  0891  3441               	retlw	65	;'A'
   281  0892  3400               	retlw	0
   282  0893                     STR_12:	
   283  0893  34C6               	retlw	-58
   284  0894  34F4               	retlw	-12
   285  0895  34B6               	retlw	-74
   286  0896  34AF               	retlw	-81
   287  0897  343A               	retlw	58	;':'
   288  0898  3425               	retlw	37	;'%'
   289  0899  3464               	retlw	100	;'d'
   290  089A  3425               	retlw	37	;'%'
   291  089B  3464               	retlw	100	;'d'
   292  089C  3443               	retlw	67	;'C'
   293  089D  34B7               	retlw	-73
   294  089E  34B5               	retlw	-75
   295  089F  34BB               	retlw	-69
   296  08A0  34D8               	retlw	-40
   297  08A1  343A               	retlw	58	;':'
   298  08A2  3425               	retlw	37	;'%'
   299  08A3  3464               	retlw	100	;'d'
   300  08A4  3425               	retlw	37	;'%'
   301  08A5  3464               	retlw	100	;'d'
   302  08A6  3443               	retlw	67	;'C'
   303  08A7  3400               	retlw	0
   304  08A8                     STR_10:	
   305  08A8  34D5               	retlw	-43
   306  08A9  34C5               	retlw	-59
   307  08AA  34CA               	retlw	-54
   308  08AB  34FD               	retlw	-3
   309  08AC  34C9               	retlw	-55
   310  08AD  34E8               	retlw	-24
   311  08AE  34B6               	retlw	-74
   312  08AF  34A8               	retlw	-88
   313  08B0  343A               	retlw	58	;':'
   314  08B1  3425               	retlw	37	;'%'
   315  08B2  3464               	retlw	100	;'d'
   316  08B3  3425               	retlw	37	;'%'
   317  08B4  3464               	retlw	100	;'d'
   318  08B5  3425               	retlw	37	;'%'
   319  08B6  3464               	retlw	100	;'d'
   320  08B7  3425               	retlw	37	;'%'
   321  08B8  3464               	retlw	100	;'d'
   322  08B9  3400               	retlw	0
   323  08BA                     STR_1:	
   324  08BA  34CF               	retlw	-49
   325  08BB  34C3               	retlw	-61
   326  08BC  34C3               	retlw	-61
   327  08BD  34C5               	retlw	-59
   328  08BE  34B5               	retlw	-75
   329  08BF  34E7               	retlw	-25
   330  08C0  34D7               	retlw	-41
   331  08C1  34D3               	retlw	-45
   332  08C2  34BF               	retlw	-65
   333  08C3  34C6               	retlw	-58
   334  08C4  34BC               	retlw	-68
   335  08C5  34BC               	retlw	-68
   336  08C6  34B9               	retlw	-71
   337  08C7  34AB               	retlw	-85
   338  08C8  34CB               	retlw	-53
   339  08C9  34BE               	retlw	-66
   340  08CA  3400               	retlw	0
   341  08CB                     STR_4:	
   342  08CB  34D5               	retlw	-43
   343  08CC  34C5               	retlw	-59
   344  08CD  34CA               	retlw	-54
   345  08CE  34FD               	retlw	-3
   346  08CF  343A               	retlw	58	;':'
   347  08D0  3425               	retlw	37	;'%'
   348  08D1  3464               	retlw	100	;'d'
   349  08D2  3425               	retlw	37	;'%'
   350  08D3  3464               	retlw	100	;'d'
   351  08D4  3425               	retlw	37	;'%'
   352  08D5  3464               	retlw	100	;'d'
   353  08D6  3425               	retlw	37	;'%'
   354  08D7  3464               	retlw	100	;'d'
   355  08D8  3400               	retlw	0
   356  08D9                     STR_7:	
   357  08D9  34CD               	retlw	-51
   358  08DA  34A3               	retlw	-93
   359  08DB  34D6               	retlw	-42
   360  08DC  34B9               	retlw	-71
   361  08DD  34BC               	retlw	-68
   362  08DE  34FC               	retlw	-4
   363  08DF  343A               	retlw	58	;':'
   364  08E0  3420               	retlw	32	;' '
   365  08E1  34CD               	retlw	-51
   366  08E2  34A3               	retlw	-93
   367  08E3  34D6               	retlw	-42
   368  08E4  34B9               	retlw	-71
   369  08E5  3400               	retlw	0
   370  08E6                     STR_5:	
   371  08E6  34C8               	retlw	-56
   372  08E7  34B7               	retlw	-73
   373  08E8  34C8               	retlw	-56
   374  08E9  34CF               	retlw	-49
   375  08EA  34BC               	retlw	-68
   376  08EB  34FC               	retlw	-4
   377  08EC  343A               	retlw	58	;':'
   378  08ED  3420               	retlw	32	;' '
   379  08EE  34C8               	retlw	-56
   380  08EF  34B7               	retlw	-73
   381  08F0  34C8               	retlw	-56
   382  08F1  34CF               	retlw	-49
   383  08F2  3400               	retlw	0
   384  08F3                     STR_3:	
   385  08F3  34D5               	retlw	-43
   386  08F4  34C5               	retlw	-59
   387  08F5  34CA               	retlw	-54
   388  08F6  34FD               	retlw	-3
   389  08F7  34C7               	retlw	-57
   390  08F8  34E5               	retlw	-27
   391  08F9  34C1               	retlw	-63
   392  08FA  34E3               	retlw	-29
   393  08FB  343A               	retlw	58	;':'
   394  08FC  3425               	retlw	37	;'%'
   395  08FD  3464               	retlw	100	;'d'
   396  08FE  3453               	retlw	83	;'S'
   397  08FF  3400               	retlw	0
   398  0900                     STR_2:	
   399  0900  3430               	retlw	48	;'0'
   400  0901  3435               	retlw	53	;'5'
   401  0902  3439               	retlw	57	;'9'
   402  0903  3432               	retlw	50	;'2'
   403  0904  3435               	retlw	53	;'5'
   404  0905  3431               	retlw	49	;'1'
   405  0906  3430               	retlw	48	;'0'
   406  0907  3430               	retlw	48	;'0'
   407  0908  3435               	retlw	53	;'5'
   408  0909  3432               	retlw	50	;'2'
   409  090A  3430               	retlw	48	;'0'
   410  090B  3400               	retlw	0
   411  090C                     STR_13:	
   412  090C  34B9               	retlw	-71
   413  090D  34A4               	retlw	-92
   414  090E  34B3               	retlw	-77
   415  090F  34A7               	retlw	-89
   416  0910  34C4               	retlw	-60
   417  0911  34A3               	retlw	-93
   418  0912  34CA               	retlw	-54
   419  0913  34BD               	retlw	-67
   420  0914  3400               	retlw	0
   421  0915                     STR_9:	
   422  0915  34C9               	retlw	-55
   423  0916  34E8               	retlw	-24
   424  0917  34D6               	retlw	-42
   425  0918  34C3               	retlw	-61
   426  0919  34B2               	retlw	-78
   427  091A  34CE               	retlw	-50
   428  091B  34CA               	retlw	-54
   429  091C  34FD               	retlw	-3
   430  091D  3400               	retlw	0
   431  08E0                     
   432                           	psect	cinit
   433  0CCC                     start_initialization:	
   434  0CCC  30A0               	movlw	low __pbssBANK1
   435                           
   436                           ; Clear objects allocated to COMMON
   437  0CCD  01FC               	clrf	__pbssCOMMON& (0+127)
   438                           
   439                           ; Clear objects allocated to BANK0
   440  0CCE  01EE               	clrf	__pbssBANK0& (0+127)
   441  0CCF  01EF               	clrf	(__pbssBANK0+1)& (0+127)
   442                           
   443                           ; Clear objects allocated to BANK1
   444  0CD0  1383               	bcf	3,7	;select IRP bank0
   445  0CD1  0084               	movwf	4
   446  0CD2  30CC               	movlw	low (__pbssBANK1+44)
   447  0CD3  158A  24A1  158A   	fcall	clear_ram
   448  0CD6  3044               	movlw	low __pbssBANK2
   449                           
   450                           ; Clear objects allocated to BANK2
   451  0CD7  1783               	bsf	3,7	;select IRP bank2
   452  0CD8  0084               	movwf	4
   453  0CD9  3062               	movlw	low (__pbssBANK2+30)
   454  0CDA  158A  24A1  158A   	fcall	clear_ram
   455                           
   456                           ; Initialize objects allocated to BANK2
   457  0CDD  3044               	movlw	low (__pdataBANK2+36)
   458  0CDE  00FD               	movwf	125
   459  0CDF  300C               	movlw	high __pidataBANK2
   460  0CE0  00FE               	movwf	126
   461  0CE1  30EF               	movlw	low __pidataBANK2
   462  0CE2  00FF               	movwf	127
   463  0CE3  3020               	movlw	low __pdataBANK2
   464  0CE4  0084               	movwf	4
   465  0CE5  118A  27F2         	fcall	init_ram
   466                           
   467                           ; Initialize objects allocated to BANK1
   468  0CE7  1683               	bsf	3,5	;RP0=1, select bank1
   469                           
   470                           ;initializer for LcdMenu_Factory@FlashStop
   471  0CE8  3001               	movlw	1
   472  0CE9  00EA               	movwf	__pdataBANK1& (0+127)
   473                           
   474                           ;initializer for LcdMenu_Normal@FlashStop
   475  0CEA  00EB               	movwf	(__pdataBANK1+1)& (0+127)
   476                           
   477                           ;initializer for LcdMenu_Setup@FlashStop
   478  0CEB  00EC               	movwf	(__pdataBANK1+2)& (0+127)
   479  0CEC                     end_of_initialization:	
   480                           ;End of C runtime variable initialization code
   481                           
   482  0CEC  0183               	clrf	3
   483  0CED  158A  2D13         	ljmp	_main	;jump to C main() function
   484                           
   485                           	psect	bssCOMMON
   486  007C                     __pbssCOMMON:	
   487  007C                     Key_Debounce@ShortDebounce:	
   488  007C                     	ds	1
   489                           
   490                           	psect	bssBANK0
   491  006E                     __pbssBANK0:	
   492  006E                     LcdMenu_Factory@Index:	
   493  006E                     	ds	1
   494  006F                     LcdMenu_Factory@Section:	
   495  006F                     	ds	1
   496                           
   497                           	psect	bssBANK1
   498  00A0                     __pbssBANK1:	
   499  00A0                     _st_Event_EventMage:	
   500  00A0                     	ds	10
   501  00AA                     Key_Debounce@ContKey:	
   502  00AA                     	ds	2
   503  00AC                     Key_Debounce@KeyStateBuf:	
   504  00AC                     	ds	2
   505  00AE                     LcdMenu_Normal@Index:	
   506  00AE                     	ds	1
   507  00AF                     LcdMenu_Setup@Index:	
   508  00AF                     	ds	1
   509  00B0                     LcdMenu_Setup@Section:	
   510  00B0                     	ds	1
   511  00B1                     _u8_Timer_Flash:	
   512  00B1                     	ds	1
   513  00B2                     _LcdMenu_StrTemp:	
   514  00B2                     	ds	20
   515  00C6                     _SetupParam:	
   516  00C6                     	ds	6
   517                           
   518                           	psect	dataBANK1
   519  00EA                     __pdataBANK1:	
   520  00EA                     LcdMenu_Factory@FlashStop:	
   521  00EA                     	ds	1
   522  00EB                     LcdMenu_Normal@FlashStop:	
   523  00EB                     	ds	1
   524  00EC                     LcdMenu_Setup@FlashStop:	
   525  00EC                     	ds	1
   526                           
   527                           	psect	bssBANK2
   528  0144                     __pbssBANK2:	
   529  0144                     _FactoryParam:	
   530  0144                     	ds	30
   531                           
   532                           	psect	dataBANK2
   533  0120                     __pdataBANK2:	
   534  0120                     myitoa@szMap:	
   535  0120                     	ds	36
   536                           
   537                           	psect	clrtext
   538  0CA1                     clear_ram:	
   539                           ;	Called with FSR containing the base address, and
   540                           ;	W with the last address+1
   541                           
   542  0CA1  0064               	clrwdt	;clear the watchdog before getting into this loop
   543  0CA2                     clrloop:	
   544  0CA2  0180               	clrf	0	;clear RAM location pointed to by FSR
   545  0CA3  0A84               	incf	4,f	;increment pointer
   546  0CA4  0604               	xorwf	4,w	;XOR with final address
   547  0CA5  1903               	btfsc	3,2	;have we reached the end yet?
   548  0CA6  3400               	retlw	0	;all done for this memory range, return
   549  0CA7  0604               	xorwf	4,w	;XOR again to restore value
   550  0CA8  2CA2               	goto	clrloop	;do the next byte
   551                           
   552                           	psect	inittext
   553  07EE                     init_fetch:	
   554                           ;	Called with low address in FSR and high address in W
   555                           
   556  07EE  087E               	movf	126,w
   557  07EF  008A               	movwf	10
   558  07F0  087F               	movf	127,w
   559  07F1  0082               	movwf	2
   560  07F2                     init_ram:	
   561                           ;Called with:
   562                           ;	high address of idata address in btemp 
   563                           ;	low address of idata address in btemp+1 
   564                           ;	low address of data in FSR
   565                           ;	high address + 1 of data in btemp-1
   566                           
   567  07F2  27EE  118A         	fcall	init_fetch
   568  07F4  0080               	movwf	0
   569  07F5  0A84               	incf	4,f
   570  07F6  0804               	movf	4,w
   571  07F7  067D               	xorwf	125,w
   572  07F8  1903               	btfsc	3,2
   573  07F9  3400               	retlw	0
   574  07FA  0AFF               	incf	127,f
   575  07FB  1903               	btfsc	3,2
   576  07FC  0AFE               	incf	126,f
   577  07FD  2FF2               	goto	init_ram
   578                           
   579                           	psect	cstackBANK1
   580  00CC                     __pcstackBANK1:	
   581  00CC                     LcdMenu_VPrintf@StrBuf:	
   582                           
   583                           ; 20 bytes @ 0x0
   584  00CC                     	ds	20
   585  00E0                     LcdMenu_VPrintf@d1:	
   586                           
   587                           ; 2 bytes @ 0x14
   588  00E0                     	ds	2
   589  00E2                     LcdMenu_VPrintf@d2:	
   590                           
   591                           ; 2 bytes @ 0x16
   592  00E2                     	ds	2
   593  00E4                     LcdMenu_VPrintf@ch:	
   594                           
   595                           ; 1 bytes @ 0x18
   596  00E4                     	ds	1
   597  00E5                     LcdMenu_VPrintf@p_Str:	
   598                           
   599                           ; 1 bytes @ 0x19
   600  00E5                     	ds	1
   601  00E6                     LcdMenu_VPrintf@pv_Start:	
   602                           
   603                           ; 1 bytes @ 0x1A
   604  00E6                     	ds	1
   605  00E7                     LcdMenu_VPrintf@index:	
   606                           
   607                           ; 2 bytes @ 0x1B
   608  00E7                     	ds	2
   609  00E9                     LcdMenu_VPrintf@i:	
   610                           
   611                           ; 1 bytes @ 0x1D
   612  00E9                     	ds	1
   613                           
   614                           	psect	cstackCOMMON
   615  0070                     __pcstackCOMMON:	
   616  0070                     ?_Key_PutEvent:	
   617  0070                     ?_IRQ:	
   618                           ; 0 bytes @ 0x0
   619                           
   620  0070                     ?_BspSystem_TmrInit:	
   621                           ; 0 bytes @ 0x0
   622                           
   623  0070                     ?_SendByte:	
   624                           ; 0 bytes @ 0x0
   625                           
   626  0070                     ?_Lcd_CheckBusy:	
   627                           ; 0 bytes @ 0x0
   628                           
   629  0070                     ?_Lcd_WriteCmd:	
   630                           ; 0 bytes @ 0x0
   631                           
   632  0070                     ?_Lcd_WriteData:	
   633                           ; 0 bytes @ 0x0
   634                           
   635  0070                     ?_Lcd_Init:	
   636                           ; 0 bytes @ 0x0
   637                           
   638  0070                     ?_Lcd_ClrScreen:	
   639                           ; 0 bytes @ 0x0
   640                           
   641  0070                     ?_LcdMenu_Welcome:	
   642                           ; 0 bytes @ 0x0
   643                           
   644  0070                     ?_main:	
   645                           ; 0 bytes @ 0x0
   646                           
   647  0070                     ?_Key_GetEvent:	
   648                           ; 0 bytes @ 0x0
   649                           
   650  0070                     ?_ReceiveByte:	
   651                           ; 1 bytes @ 0x0
   652                           
   653  0070                     ?_Key_Scan:	
   654                           ; 1 bytes @ 0x0
   655                           
   656  0070                     ?_Key_Debounce:	
   657                           ; 2 bytes @ 0x0
   658                           
   659  0070                     Key_PutEvent@KeyValue:	
   660                           ; 2 bytes @ 0x0
   661                           
   662  0070                     Key_Debounce@KeyState:	
   663                           ; 2 bytes @ 0x0
   664                           
   665                           
   666                           ; 2 bytes @ 0x0
   667  0070                     	ds	2
   668  0072                     ??_Key_Scan:	
   669  0072                     ??_Key_Debounce:	
   670                           ; 0 bytes @ 0x2
   671                           
   672  0072                     ??_Key_PutEvent:	
   673                           ; 0 bytes @ 0x2
   674                           
   675  0072                     Key_PutEvent@temp:	
   676                           ; 0 bytes @ 0x2
   677                           
   678  0072                     Key_Scan@State:	
   679                           ; 1 bytes @ 0x2
   680                           
   681                           
   682                           ; 2 bytes @ 0x2
   683  0072                     	ds	2
   684  0074                     Key_Scan@i:	
   685  0074                     Key_Debounce@TrigKey:	
   686                           ; 1 bytes @ 0x4
   687                           
   688                           
   689                           ; 2 bytes @ 0x4
   690  0074                     	ds	2
   691  0076                     ??_IRQ:	
   692                           
   693                           ; 0 bytes @ 0x6
   694  0076                     	ds	3
   695  0079                     IRQ@TimeBase0:	
   696                           
   697                           ; 1 bytes @ 0x9
   698  0079                     	ds	1
   699  007A                     IRQ@KeyTemp:	
   700                           
   701                           ; 2 bytes @ 0xA
   702  007A                     	ds	2
   703                           
   704                           	psect	cstackBANK0
   705  0020                     __pcstackBANK0:	
   706  0020                     ??_BspSystem_TmrInit:	
   707  0020                     ?_BspEeprom_SaveParam:	
   708                           ; 0 bytes @ 0x0
   709                           
   710  0020                     ?_BspEeprom_GetParam:	
   711                           ; 0 bytes @ 0x0
   712                           
   713  0020                     ??_Key_GetEvent:	
   714                           ; 0 bytes @ 0x0
   715                           
   716  0020                     ?_Lcd_Delay:	
   717                           ; 0 bytes @ 0x0
   718                           
   719  0020                     ??_SendByte:	
   720                           ; 0 bytes @ 0x0
   721                           
   722  0020                     ??_ReceiveByte:	
   723                           ; 0 bytes @ 0x0
   724                           
   725  0020                     ?_LcdMenu_NumMasK:	
   726                           ; 0 bytes @ 0x0
   727                           
   728  0020                     ?_LcdMenu_CharMasK:	
   729                           ; 0 bytes @ 0x0
   730                           
   731  0020                     ?___bmul:	
   732                           ; 0 bytes @ 0x0
   733                           
   734  0020                     ?___lbdiv:	
   735                           ; 1 bytes @ 0x0
   736                           
   737  0020                     ?___wmul:	
   738                           ; 1 bytes @ 0x0
   739                           
   740  0020                     ?___lwdiv:	
   741                           ; 2 bytes @ 0x0
   742                           
   743  0020                     ?___awdiv:	
   744                           ; 2 bytes @ 0x0
   745                           
   746  0020                     Key_GetEvent@key:	
   747                           ; 2 bytes @ 0x0
   748                           
   749  0020                     SendByte@Dbyte:	
   750                           ; 1 bytes @ 0x0
   751                           
   752  0020                     LcdMenu_NumMasK@MaskBit:	
   753                           ; 1 bytes @ 0x0
   754                           
   755  0020                     ___bmul@multiplicand:	
   756                           ; 1 bytes @ 0x0
   757                           
   758  0020                     ___lbdiv@divisor:	
   759                           ; 1 bytes @ 0x0
   760                           
   761  0020                     BspEeprom_SaveParam@pSrc:	
   762                           ; 1 bytes @ 0x0
   763                           
   764  0020                     BspEeprom_GetParam@pDes:	
   765                           ; 2 bytes @ 0x0
   766                           
   767  0020                     Lcd_Delay@t:	
   768                           ; 2 bytes @ 0x0
   769                           
   770  0020                     LcdMenu_CharMasK@StrMask:	
   771                           ; 2 bytes @ 0x0
   772                           
   773  0020                     ___wmul@multiplier:	
   774                           ; 2 bytes @ 0x0
   775                           
   776  0020                     ___lwdiv@divisor:	
   777                           ; 2 bytes @ 0x0
   778                           
   779  0020                     ___awdiv@divisor:	
   780                           ; 2 bytes @ 0x0
   781                           
   782                           
   783                           ; 2 bytes @ 0x0
   784  0020                     	ds	1
   785  0021                     ??_LcdMenu_NumMasK:	
   786  0021                     ??___bmul:	
   787                           ; 0 bytes @ 0x1
   788                           
   789  0021                     ??___lbdiv:	
   790                           ; 0 bytes @ 0x1
   791                           
   792  0021                     SendByte@temp:	
   793                           ; 0 bytes @ 0x1
   794                           
   795  0021                     ReceiveByte@temp1:	
   796                           ; 1 bytes @ 0x1
   797                           
   798  0021                     ___bmul@product:	
   799                           ; 1 bytes @ 0x1
   800                           
   801  0021                     ___lbdiv@dividend:	
   802                           ; 1 bytes @ 0x1
   803                           
   804                           
   805                           ; 1 bytes @ 0x1
   806  0021                     	ds	1
   807  0022                     ??_Lcd_Delay:	
   808  0022                     BspEeprom_SaveParam@Size:	
   809                           ; 0 bytes @ 0x2
   810                           
   811  0022                     BspEeprom_GetParam@Size:	
   812                           ; 1 bytes @ 0x2
   813                           
   814  0022                     Lcd_Delay@i:	
   815                           ; 1 bytes @ 0x2
   816                           
   817  0022                     SendByte@i:	
   818                           ; 1 bytes @ 0x2
   819                           
   820  0022                     ReceiveByte@temp2:	
   821                           ; 1 bytes @ 0x2
   822                           
   823  0022                     LcdMenu_NumMasK@count:	
   824                           ; 1 bytes @ 0x2
   825                           
   826  0022                     LcdMenu_CharMasK@Str:	
   827                           ; 1 bytes @ 0x2
   828                           
   829  0022                     ___bmul@multiplier:	
   830                           ; 1 bytes @ 0x2
   831                           
   832  0022                     ___lbdiv@counter:	
   833                           ; 1 bytes @ 0x2
   834                           
   835  0022                     ___wmul@multiplicand:	
   836                           ; 1 bytes @ 0x2
   837                           
   838  0022                     ___lwdiv@dividend:	
   839                           ; 2 bytes @ 0x2
   840                           
   841  0022                     ___awdiv@dividend:	
   842                           ; 2 bytes @ 0x2
   843                           
   844                           
   845                           ; 2 bytes @ 0x2
   846  0022                     	ds	1
   847  0023                     ??_BspEeprom_SaveParam:	
   848  0023                     ??_BspEeprom_GetParam:	
   849                           ; 0 bytes @ 0x3
   850                           
   851  0023                     ??_LcdMenu_CharMasK:	
   852                           ; 0 bytes @ 0x3
   853                           
   854  0023                     ReceiveByte@i:	
   855                           ; 0 bytes @ 0x3
   856                           
   857  0023                     LcdMenu_NumMasK@Str:	
   858                           ; 1 bytes @ 0x3
   859                           
   860  0023                     ___lbdiv@quotient:	
   861                           ; 1 bytes @ 0x3
   862                           
   863                           
   864                           ; 1 bytes @ 0x3
   865  0023                     	ds	1
   866  0024                     ??_Lcd_CheckBusy:	
   867  0024                     ??___wmul:	
   868                           ; 0 bytes @ 0x4
   869                           
   870  0024                     ??___lwdiv:	
   871                           ; 0 bytes @ 0x4
   872                           
   873  0024                     ??___awdiv:	
   874                           ; 0 bytes @ 0x4
   875                           
   876  0024                     ?___lbmod:	
   877                           ; 0 bytes @ 0x4
   878                           
   879  0024                     LcdMenu_NumMasK@i:	
   880                           ; 1 bytes @ 0x4
   881                           
   882  0024                     ___lbmod@divisor:	
   883                           ; 1 bytes @ 0x4
   884                           
   885  0024                     ___awdiv@counter:	
   886                           ; 1 bytes @ 0x4
   887                           
   888  0024                     ___wmul@product:	
   889                           ; 1 bytes @ 0x4
   890                           
   891  0024                     ___lwdiv@quotient:	
   892                           ; 2 bytes @ 0x4
   893                           
   894                           
   895                           ; 2 bytes @ 0x4
   896  0024                     	ds	1
   897  0025                     ??_Lcd_WriteCmd:	
   898  0025                     ??_Lcd_WriteData:	
   899                           ; 0 bytes @ 0x5
   900                           
   901  0025                     ??___lbmod:	
   902                           ; 0 bytes @ 0x5
   903                           
   904  0025                     BspEeprom_SaveParam@ReadTemp:	
   905                           ; 0 bytes @ 0x5
   906                           
   907  0025                     Lcd_WriteCmd@Cbyte:	
   908                           ; 1 bytes @ 0x5
   909                           
   910  0025                     Lcd_WriteData@Dbyte:	
   911                           ; 1 bytes @ 0x5
   912                           
   913  0025                     LcdMenu_CharMasK@j:	
   914                           ; 1 bytes @ 0x5
   915                           
   916  0025                     ___awdiv@sign:	
   917                           ; 1 bytes @ 0x5
   918                           
   919                           
   920                           ; 1 bytes @ 0x5
   921  0025                     	ds	1
   922  0026                     ??_Lcd_Init:	
   923  0026                     ?_Lcd_StrDisp:	
   924                           ; 0 bytes @ 0x6
   925                           
   926  0026                     ??_Lcd_ClrScreen:	
   927                           ; 0 bytes @ 0x6
   928                           
   929  0026                     BspEeprom_SaveParam@GIETemp:	
   930                           ; 0 bytes @ 0x6
   931                           
   932  0026                     BspEeprom_GetParam@temp1:	
   933                           ; 1 bytes @ 0x6
   934                           
   935  0026                     Lcd_StrDisp@y:	
   936                           ; 1 bytes @ 0x6
   937                           
   938  0026                     LcdMenu_CharMasK@i:	
   939                           ; 1 bytes @ 0x6
   940                           
   941  0026                     ___lwdiv@counter:	
   942                           ; 1 bytes @ 0x6
   943                           
   944  0026                     ___lbmod@dividend:	
   945                           ; 1 bytes @ 0x6
   946                           
   947  0026                     ___awdiv@quotient:	
   948                           ; 1 bytes @ 0x6
   949                           
   950                           
   951                           ; 2 bytes @ 0x6
   952  0026                     	ds	1
   953  0027                     ?___lwmod:	
   954  0027                     BspEeprom_SaveParam@StartAddr:	
   955                           ; 2 bytes @ 0x7
   956                           
   957  0027                     BspEeprom_GetParam@StartAddr:	
   958                           ; 1 bytes @ 0x7
   959                           
   960  0027                     Lcd_StrDisp@s:	
   961                           ; 1 bytes @ 0x7
   962                           
   963  0027                     ___lbmod@counter:	
   964                           ; 1 bytes @ 0x7
   965                           
   966  0027                     ___lwmod@divisor:	
   967                           ; 1 bytes @ 0x7
   968                           
   969                           
   970                           ; 2 bytes @ 0x7
   971  0027                     	ds	1
   972  0028                     ??_Lcd_StrDisp:	
   973  0028                     BspEeprom_SaveParam@i:	
   974                           ; 0 bytes @ 0x8
   975                           
   976  0028                     BspEeprom_GetParam@temp2:	
   977                           ; 1 bytes @ 0x8
   978                           
   979  0028                     ___lbmod@rem:	
   980                           ; 1 bytes @ 0x8
   981                           
   982                           
   983                           ; 1 bytes @ 0x8
   984  0028                     	ds	1
   985  0029                     BspEeprom_GetParam@i:	
   986  0029                     ___lwmod@dividend:	
   987                           ; 1 bytes @ 0x9
   988                           
   989                           
   990                           ; 2 bytes @ 0x9
   991  0029                     	ds	2
   992  002B                     ??___lwmod:	
   993  002B                     Lcd_StrDisp@x:	
   994                           ; 0 bytes @ 0xB
   995                           
   996  002B                     ___lwmod@counter:	
   997                           ; 1 bytes @ 0xB
   998                           
   999                           
  1000                           ; 1 bytes @ 0xB
  1001  002B                     	ds	1
  1002  002C                     ?_myitoa:	
  1003  002C                     myitoa@value:	
  1004                           ; 1 bytes @ 0xC
  1005                           
  1006                           
  1007                           ; 2 bytes @ 0xC
  1008  002C                     	ds	2
  1009  002E                     myitoa@str:	
  1010                           
  1011                           ; 1 bytes @ 0xE
  1012  002E                     	ds	1
  1013  002F                     myitoa@radix:	
  1014                           
  1015                           ; 2 bytes @ 0xF
  1016  002F                     	ds	2
  1017  0031                     ??_myitoa:	
  1018                           
  1019                           ; 0 bytes @ 0x11
  1020  0031                     	ds	4
  1021  0035                     myitoa@nTemp:	
  1022                           
  1023                           ; 1 bytes @ 0x15
  1024  0035                     	ds	1
  1025  0036                     myitoa@nValue:	
  1026                           
  1027                           ; 2 bytes @ 0x16
  1028  0036                     	ds	2
  1029  0038                     myitoa@nCount:	
  1030                           
  1031                           ; 2 bytes @ 0x18
  1032  0038                     	ds	2
  1033  003A                     myitoa@nIndex:	
  1034                           
  1035                           ; 2 bytes @ 0x1A
  1036  003A                     	ds	2
  1037  003C                     myitoa@pStr:	
  1038                           
  1039                           ; 1 bytes @ 0x1C
  1040  003C                     	ds	1
  1041  003D                     ?_LcdMenu_VPrintf:	
  1042  003D                     LcdMenu_VPrintf@String:	
  1043                           ; 0 bytes @ 0x1D
  1044                           
  1045                           
  1046                           ; 2 bytes @ 0x1D
  1047  003D                     	ds	22
  1048  0053                     ??_LcdMenu_VPrintf:	
  1049                           
  1050                           ; 0 bytes @ 0x33
  1051  0053                     	ds	1
  1052  0054                     ??_LcdMenu_Welcome:	
  1053  0054                     ?_LcdMenu_Normal:	
  1054                           ; 0 bytes @ 0x34
  1055                           
  1056  0054                     ?_LcdMenu_Setup:	
  1057                           ; 0 bytes @ 0x34
  1058                           
  1059  0054                     ?_LcdMenu_Factory:	
  1060                           ; 0 bytes @ 0x34
  1061                           
  1062  0054                     LcdMenu_Setup@pParam:	
  1063                           ; 0 bytes @ 0x34
  1064                           
  1065  0054                     LcdMenu_Factory@pParam:	
  1066                           ; 1 bytes @ 0x34
  1067                           
  1068  0054                     LcdMenu_Normal@PaperNum:	
  1069                           ; 1 bytes @ 0x34
  1070                           
  1071                           
  1072                           ; 2 bytes @ 0x34
  1073  0054                     	ds	1
  1074  0055                     ??_LcdMenu_Setup:	
  1075  0055                     ??_LcdMenu_Factory:	
  1076                           ; 0 bytes @ 0x35
  1077                           
  1078                           
  1079                           ; 0 bytes @ 0x35
  1080  0055                     	ds	1
  1081  0056                     ??_LcdMenu_Normal:	
  1082  0056                     LcdMenu_Normal@num1:	
  1083                           ; 0 bytes @ 0x36
  1084                           
  1085                           
  1086                           ; 1 bytes @ 0x36
  1087  0056                     	ds	1
  1088  0057                     LcdMenu_Normal@num2:	
  1089  0057                     LcdMenu_Factory@i:	
  1090                           ; 1 bytes @ 0x37
  1091                           
  1092                           
  1093                           ; 1 bytes @ 0x37
  1094  0057                     	ds	1
  1095  0058                     LcdMenu_Normal@num3:	
  1096  0058                     LcdMenu_Factory@j:	
  1097                           ; 1 bytes @ 0x38
  1098                           
  1099                           
  1100                           ; 1 bytes @ 0x38
  1101  0058                     	ds	1
  1102  0059                     LcdMenu_Normal@num4:	
  1103  0059                     LcdMenu_Factory@KeyEvent:	
  1104                           ; 1 bytes @ 0x39
  1105                           
  1106                           
  1107                           ; 1 bytes @ 0x39
  1108  0059                     	ds	1
  1109  005A                     LcdMenu_Normal@KeyEvent:	
  1110                           
  1111                           ; 1 bytes @ 0x3A
  1112  005A                     	ds	3
  1113  005D                     LcdMenu_Setup@num:	
  1114                           
  1115                           ; 12 bytes @ 0x3D
  1116  005D                     	ds	12
  1117  0069                     LcdMenu_Setup@KeyEvent:	
  1118                           
  1119                           ; 1 bytes @ 0x49
  1120  0069                     	ds	1
  1121  006A                     ??_main:	
  1122  006A                     _main$14359:	
  1123                           ; 0 bytes @ 0x4A
  1124                           
  1125                           
  1126                           ; 2 bytes @ 0x4A
  1127  006A                     	ds	2
  1128  006C                     main@SystemMode:	
  1129                           
  1130                           ; 1 bytes @ 0x4C
  1131  006C                     	ds	1
  1132  006D                     main@Key:	
  1133                           
  1134                           ; 1 bytes @ 0x4D
  1135  006D                     	ds	1
  1136                           
  1137                           	psect	maintext
  1138  0D13                     __pmaintext:	
  1139 ;;Data sizes: Strings 236, constant 32, data 39, bss 77, persistent 0 stack 0
  1140 ;;Auto spaces:   Size  Autos    Used
  1141 ;; COMMON          14     12      13
  1142 ;; BANK0           80     78      80
  1143 ;; BANK1           80     30      77
  1144 ;; BANK2           80      0      66
  1145 ;;
  1146 ;; Pointer list with targets:
  1147 ;; ?___wmul	unsigned int  size(1) Largest target is 0
  1148 ;;
  1149 ;; ?_myitoa	PTR unsigned char  size(1) Largest target is 20
  1150 ;;		 -> LcdMenu_VPrintf@StrBuf(BANK1[20]), 
  1151 ;;
  1152 ;; ?___awdiv	int  size(1) Largest target is 0
  1153 ;;
  1154 ;; ?___lwdiv	unsigned int  size(1) Largest target is 0
  1155 ;;
  1156 ;; ?___lwmod	unsigned int  size(1) Largest target is 0
  1157 ;;
  1158 ;; ?_Key_Scan	unsigned short  size(1) Largest target is 0
  1159 ;;
  1160 ;; ?_Key_Debounce	unsigned short  size(1) Largest target is 0
  1161 ;;
  1162 ;; LcdMenu_Factory@pParam	PTR struct . size(1) Largest target is 30
  1163 ;;		 -> FactoryParam(BANK2[30]), 
  1164 ;;
  1165 ;; LcdMenu_Setup@pParam	PTR struct . size(1) Largest target is 6
  1166 ;;		 -> SetupParam(BANK1[6]), 
  1167 ;;
  1168 ;; LcdMenu_CharMasK@StrMask	PTR unsigned char  size(2) Largest target is 6
  1169 ;;		 -> STR_8(CODE[6]), STR_6(CODE[6]), 
  1170 ;;
  1171 ;; LcdMenu_CharMasK@Str	PTR unsigned char  size(1) Largest target is 20
  1172 ;;		 -> LcdMenu_StrTemp(BANK1[20]), 
  1173 ;;
  1174 ;; LcdMenu_NumMasK@Str	PTR unsigned char  size(1) Largest target is 20
  1175 ;;		 -> LcdMenu_StrTemp(BANK1[20]), 
  1176 ;;
  1177 ;; LcdMenu_VPrintf@p_Str	PTR const unsigned char  size(1) Largest target is 0
  1178 ;;
  1179 ;; LcdMenu_VPrintf@String	PTR const unsigned char  size(2) Largest target is 26
  1180 ;;		 -> STR_16(CODE[26]), STR_15(CODE[26]), STR_14(CODE[24]), STR_13(CODE[9]), 
  1181 ;;		 -> STR_12(CODE[21]), STR_11(CODE[21]), STR_10(CODE[18]), STR_9(CODE[9]), 
  1182 ;;		 -> STR_7(CODE[13]), STR_5(CODE[13]), STR_4(CODE[14]), STR_3(CODE[13]), 
  1183 ;;		 -> STR_2(CODE[12]), STR_1(CODE[17]), 
  1184 ;;
  1185 ;; ?_LcdMenu_VPrintf	void  size(1) Largest target is 0
  1186 ;;
  1187 ;; LcdMenu_VPrintf@pv_Start	PTR void [1] size(1) Largest target is 0
  1188 ;;		 -> ?_LcdMenu_VPrintf(BANK0[0]), 
  1189 ;;
  1190 ;; sp__myitoa	PTR unsigned char  size(1) Largest target is 20
  1191 ;;		 -> LcdMenu_VPrintf@StrBuf(BANK1[20]), 
  1192 ;;
  1193 ;; myitoa@str	PTR unsigned char  size(1) Largest target is 20
  1194 ;;		 -> LcdMenu_VPrintf@StrBuf(BANK1[20]), 
  1195 ;;
  1196 ;; myitoa@pStr	PTR unsigned char  size(1) Largest target is 20
  1197 ;;		 -> LcdMenu_VPrintf@StrBuf(BANK1[20]), 
  1198 ;;
  1199 ;; Lcd_StrDisp@s	PTR const unsigned char  size(1) Largest target is 20
  1200 ;;		 -> LcdMenu_StrTemp(BANK1[20]), 
  1201 ;;
  1202 ;; BspEeprom_GetParam@pDes	PTR unsigned char  size(2) Largest target is 30
  1203 ;;		 -> FactoryParam(BANK2[30]), SetupParam(BANK1[6]), 
  1204 ;;
  1205 ;; BspEeprom_SaveParam@pSrc	PTR const unsigned char  size(2) Largest target is 30
  1206 ;;		 -> FactoryParam(BANK2[30]), SetupParam(BANK1[6]), 
  1207 ;;
  1208 ;;
  1209 ;; Critical Paths under _main in COMMON
  1210 ;;
  1211 ;;   None.
  1212 ;;
  1213 ;; Critical Paths under _IRQ in COMMON
  1214 ;;
  1215 ;;   _IRQ->_Key_Debounce
  1216 ;;
  1217 ;; Critical Paths under _main in BANK0
  1218 ;;
  1219 ;;   _main->_LcdMenu_Setup
  1220 ;;   _LcdMenu_Factory->_LcdMenu_VPrintf
  1221 ;;   _LcdMenu_Setup->_LcdMenu_VPrintf
  1222 ;;   _LcdMenu_Normal->_LcdMenu_VPrintf
  1223 ;;   _LcdMenu_Welcome->_LcdMenu_VPrintf
  1224 ;;   _Lcd_ClrScreen->_Lcd_WriteCmd
  1225 ;;   _Lcd_StrDisp->_Lcd_WriteCmd
  1226 ;;   _Lcd_StrDisp->_Lcd_WriteData
  1227 ;;   _Lcd_Init->_Lcd_WriteCmd
  1228 ;;   _LcdMenu_VPrintf->_myitoa
  1229 ;;   _Lcd_WriteData->_Lcd_CheckBusy
  1230 ;;   _Lcd_WriteCmd->_Lcd_CheckBusy
  1231 ;;   _myitoa->___lwmod
  1232 ;;   _Lcd_CheckBusy->_ReceiveByte
  1233 ;;   ___lbmod->___lbdiv
  1234 ;;   ___lwmod->___lwdiv
  1235 ;;
  1236 ;; Critical Paths under _IRQ in BANK0
  1237 ;;
  1238 ;;   None.
  1239 ;;
  1240 ;; Critical Paths under _main in BANK1
  1241 ;;
  1242 ;;   _LcdMenu_Factory->_LcdMenu_VPrintf
  1243 ;;   _LcdMenu_Setup->_LcdMenu_VPrintf
  1244 ;;   _LcdMenu_Normal->_LcdMenu_VPrintf
  1245 ;;   _LcdMenu_Welcome->_LcdMenu_VPrintf
  1246 ;;
  1247 ;; Critical Paths under _IRQ in BANK1
  1248 ;;
  1249 ;;   None.
  1250 ;;
  1251 ;; Critical Paths under _main in BANK2
  1252 ;;
  1253 ;;   None.
  1254 ;;
  1255 ;; Critical Paths under _IRQ in BANK2
  1256 ;;
  1257 ;;   None.
  1258 ;;
  1259 ;;Main: autosize = 0, tempsize = 0, incstack = 0, save=0
  1260 ;;
  1261 ;;
  1262 ;;Call Graph Tables:
  1263 ;;
  1264 ;; ---------------------------------------------------------------------------------
  1265 ;; (Depth) Function   	        Calls       Base Space   Used Autos Params    Refs
  1266 ;; ---------------------------------------------------------------------------------
  1267 ;; (0) _main                                                 4     4      0   18675
  1268 ;;                                             74 BANK0      4     4      0
  1269 ;;                           _Lcd_Init
  1270 ;;                  _BspSystem_TmrInit
  1271 ;;                    _LcdMenu_Welcome
  1272 ;;                          _Lcd_Delay
  1273 ;;                 _BspEeprom_GetParam
  1274 ;;                      _Lcd_ClrScreen
  1275 ;;                       _Key_GetEvent
  1276 ;;                     _LcdMenu_Normal
  1277 ;;                      _LcdMenu_Setup
  1278 ;;                    _LcdMenu_Factory
  1279 ;; ---------------------------------------------------------------------------------
  1280 ;; (1) _LcdMenu_Factory                                      7     6      1    4784
  1281 ;;                                             52 BANK0      6     5      1
  1282 ;;                             ___bmul
  1283 ;;                _BspEeprom_SaveParam
  1284 ;;                    _LcdMenu_VPrintf
  1285 ;;                        _Lcd_StrDisp
  1286 ;;                    _LcdMenu_NumMasK
  1287 ;; ---------------------------------------------------------------------------------
  1288 ;; (1) _LcdMenu_Setup                                       23    22      1    5877
  1289 ;;                                             52 BANK0     22    21      1
  1290 ;;                            ___lwmod
  1291 ;;                            ___lwdiv
  1292 ;;                            ___lbmod
  1293 ;;                            ___lbdiv
  1294 ;;                _BspEeprom_SaveParam
  1295 ;;                             ___wmul
  1296 ;;                             ___bmul
  1297 ;;                    _LcdMenu_VPrintf
  1298 ;;                        _Lcd_StrDisp
  1299 ;;                    _LcdMenu_NumMasK
  1300 ;; ---------------------------------------------------------------------------------
  1301 ;; (1) _LcdMenu_Normal                                       7     5      2    3750
  1302 ;;                                             52 BANK0      7     5      2
  1303 ;;                            ___lwmod
  1304 ;;                            ___lwdiv
  1305 ;;                    _LcdMenu_VPrintf
  1306 ;;                        _Lcd_StrDisp
  1307 ;;                   _LcdMenu_CharMasK
  1308 ;; ---------------------------------------------------------------------------------
  1309 ;; (1) _LcdMenu_Welcome                                      0     0      0    2937
  1310 ;;                    _LcdMenu_VPrintf
  1311 ;;                        _Lcd_StrDisp
  1312 ;; ---------------------------------------------------------------------------------
  1313 ;; (1) _Lcd_ClrScreen                                        0     0      0     370
  1314 ;;                       _Lcd_WriteCmd
  1315 ;; ---------------------------------------------------------------------------------
  1316 ;; (2) _Lcd_StrDisp                                          6     4      2     829
  1317 ;;                                              6 BANK0      6     4      2
  1318 ;;                       _Lcd_WriteCmd
  1319 ;;                      _Lcd_WriteData
  1320 ;; ---------------------------------------------------------------------------------
  1321 ;; (1) _Lcd_Init                                             0     0      0     438
  1322 ;;                          _Lcd_Delay
  1323 ;;                       _Lcd_WriteCmd
  1324 ;; ---------------------------------------------------------------------------------
  1325 ;; (2) _LcdMenu_VPrintf                                     53    31     22    2108
  1326 ;;                                             29 BANK0     23     1     22
  1327 ;;                                              0 BANK1     30    30      0
  1328 ;;                             _myitoa
  1329 ;; ---------------------------------------------------------------------------------
  1330 ;; (3) _Lcd_WriteData                                        1     1      0     370
  1331 ;;                                              5 BANK0      1     1      0
  1332 ;;                      _Lcd_CheckBusy
  1333 ;;                           _SendByte
  1334 ;; ---------------------------------------------------------------------------------
  1335 ;; (3) _Lcd_WriteCmd                                         1     1      0     370
  1336 ;;                                              5 BANK0      1     1      0
  1337 ;;                      _Lcd_CheckBusy
  1338 ;;                           _SendByte
  1339 ;; ---------------------------------------------------------------------------------
  1340 ;; (3) _myitoa                                              17    12      5    1295
  1341 ;;                                             12 BANK0     17    12      5
  1342 ;;                            ___lwmod
  1343 ;;                            ___lwdiv
  1344 ;;                            ___awdiv
  1345 ;; ---------------------------------------------------------------------------------
  1346 ;; (4) _Lcd_CheckBusy                                        1     1      0     234
  1347 ;;                                              4 BANK0      1     1      0
  1348 ;;                           _SendByte
  1349 ;;                        _ReceiveByte
  1350 ;; ---------------------------------------------------------------------------------
  1351 ;; (4) ___awdiv                                              8     4      4     300
  1352 ;;                                              0 BANK0      8     4      4
  1353 ;; ---------------------------------------------------------------------------------
  1354 ;; (2) ___lbmod                                              5     4      1     159
  1355 ;;                                              4 BANK0      5     4      1
  1356 ;;                            ___lbdiv (ARG)
  1357 ;; ---------------------------------------------------------------------------------
  1358 ;; (2) ___lbdiv                                              4     3      1     162
  1359 ;;                                              0 BANK0      4     3      1
  1360 ;; ---------------------------------------------------------------------------------
  1361 ;; (4) ___lwmod                                              5     1      4     159
  1362 ;;                                              7 BANK0      5     1      4
  1363 ;;                            ___lwdiv (ARG)
  1364 ;; ---------------------------------------------------------------------------------
  1365 ;; (4) ___lwdiv                                              7     3      4     162
  1366 ;;                                              0 BANK0      7     3      4
  1367 ;; ---------------------------------------------------------------------------------
  1368 ;; (2) ___wmul                                               6     2      4      92
  1369 ;;                                              0 BANK0      6     2      4
  1370 ;; ---------------------------------------------------------------------------------
  1371 ;; (2) ___bmul                                               3     2      1      92
  1372 ;;                                              0 BANK0      3     2      1
  1373 ;; ---------------------------------------------------------------------------------
  1374 ;; (2) _LcdMenu_CharMasK                                     7     4      3     224
  1375 ;;                                              0 BANK0      7     4      3
  1376 ;; ---------------------------------------------------------------------------------
  1377 ;; (2) _LcdMenu_NumMasK                                      5     4      1     314
  1378 ;;                                              0 BANK0      5     4      1
  1379 ;; ---------------------------------------------------------------------------------
  1380 ;; (5) _ReceiveByte                                          4     4      0     142
  1381 ;;                                              0 BANK0      4     4      0
  1382 ;; ---------------------------------------------------------------------------------
  1383 ;; (4) _SendByte                                             3     3      0      92
  1384 ;;                                              0 BANK0      3     3      0
  1385 ;; ---------------------------------------------------------------------------------
  1386 ;; (1) _Lcd_Delay                                            3     1      2      68
  1387 ;;                                              0 BANK0      3     1      2
  1388 ;; ---------------------------------------------------------------------------------
  1389 ;; (1) _Key_GetEvent                                         1     1      0      23
  1390 ;;                                              0 BANK0      1     1      0
  1391 ;; ---------------------------------------------------------------------------------
  1392 ;; (1) _BspEeprom_GetParam                                  10     7      3     246
  1393 ;;                                              0 BANK0     10     7      3
  1394 ;; ---------------------------------------------------------------------------------
  1395 ;; (2) _BspEeprom_SaveParam                                  9     6      3     271
  1396 ;;                                              0 BANK0      9     6      3
  1397 ;; ---------------------------------------------------------------------------------
  1398 ;; (1) _BspSystem_TmrInit                                    0     0      0       0
  1399 ;; ---------------------------------------------------------------------------------
  1400 ;; Estimated maximum stack depth 5
  1401 ;; ---------------------------------------------------------------------------------
  1402 ;; (Depth) Function   	        Calls       Base Space   Used Autos Params    Refs
  1403 ;; ---------------------------------------------------------------------------------
  1404 ;; (6) _IRQ                                                  6     6      0     491
  1405 ;;                                              6 COMMON     6     6      0
  1406 ;;                           _Key_Scan
  1407 ;;                       _Key_Debounce
  1408 ;;                       _Key_PutEvent
  1409 ;; ---------------------------------------------------------------------------------
  1410 ;; (7) _Key_PutEvent                                         3     1      2      68
  1411 ;;                                              0 COMMON     3     1      2
  1412 ;; ---------------------------------------------------------------------------------
  1413 ;; (7) _Key_Debounce                                         6     4      2     135
  1414 ;;                                              0 COMMON     6     4      2
  1415 ;; ---------------------------------------------------------------------------------
  1416 ;; (7) _Key_Scan                                             5     3      2     219
  1417 ;;                                              0 COMMON     5     3      2
  1418 ;; ---------------------------------------------------------------------------------
  1419 ;; Estimated maximum stack depth 7
  1420 ;; ---------------------------------------------------------------------------------
  1421 ;; Call Graph Graphs:
  1422 ;; _main (ROOT)
  1423 ;;   _Lcd_Init
  1424 ;;     _Lcd_Delay
  1425 ;;     _Lcd_WriteCmd
  1426 ;;       _Lcd_CheckBusy
  1427 ;;         _SendByte
  1428 ;;         _ReceiveByte
  1429 ;;       _SendByte
  1430 ;;   _BspSystem_TmrInit
  1431 ;;   _LcdMenu_Welcome
  1432 ;;     _LcdMenu_VPrintf
  1433 ;;       _myitoa
  1434 ;;         ___lwmod
  1435 ;;           ___lwdiv (ARG)
  1436 ;;         ___lwdiv
  1437 ;;         ___awdiv
  1438 ;;     _Lcd_StrDisp
  1439 ;;       _Lcd_WriteCmd
  1440 ;;         _Lcd_CheckBusy
  1441 ;;           _SendByte
  1442 ;;           _ReceiveByte
  1443 ;;         _SendByte
  1444 ;;       _Lcd_WriteData
  1445 ;;         _Lcd_CheckBusy
  1446 ;;           _SendByte
  1447 ;;           _ReceiveByte
  1448 ;;         _SendByte
  1449 ;;   _Lcd_Delay
  1450 ;;   _BspEeprom_GetParam
  1451 ;;   _Lcd_ClrScreen
  1452 ;;     _Lcd_WriteCmd
  1453 ;;       _Lcd_CheckBusy
  1454 ;;         _SendByte
  1455 ;;         _ReceiveByte
  1456 ;;       _SendByte
  1457 ;;   _Key_GetEvent
  1458 ;;   _LcdMenu_Normal
  1459 ;;     ___lwmod
  1460 ;;       ___lwdiv (ARG)
  1461 ;;     ___lwdiv
  1462 ;;     _LcdMenu_VPrintf
  1463 ;;       _myitoa
  1464 ;;         ___lwmod
  1465 ;;           ___lwdiv (ARG)
  1466 ;;         ___lwdiv
  1467 ;;         ___awdiv
  1468 ;;     _Lcd_StrDisp
  1469 ;;       _Lcd_WriteCmd
  1470 ;;         _Lcd_CheckBusy
  1471 ;;           _SendByte
  1472 ;;           _ReceiveByte
  1473 ;;         _SendByte
  1474 ;;       _Lcd_WriteData
  1475 ;;         _Lcd_CheckBusy
  1476 ;;           _SendByte
  1477 ;;           _ReceiveByte
  1478 ;;         _SendByte
  1479 ;;     _LcdMenu_CharMasK
  1480 ;;   _LcdMenu_Setup
  1481 ;;     ___lwmod
  1482 ;;       ___lwdiv (ARG)
  1483 ;;     ___lwdiv
  1484 ;;     ___lbmod
  1485 ;;       ___lbdiv (ARG)
  1486 ;;     ___lbdiv
  1487 ;;     _BspEeprom_SaveParam
  1488 ;;     ___wmul
  1489 ;;     ___bmul
  1490 ;;     _LcdMenu_VPrintf
  1491 ;;       _myitoa
  1492 ;;         ___lwmod
  1493 ;;           ___lwdiv (ARG)
  1494 ;;         ___lwdiv
  1495 ;;         ___awdiv
  1496 ;;     _Lcd_StrDisp
  1497 ;;       _Lcd_WriteCmd
  1498 ;;         _Lcd_CheckBusy
  1499 ;;           _SendByte
  1500 ;;           _ReceiveByte
  1501 ;;         _SendByte
  1502 ;;       _Lcd_WriteData
  1503 ;;         _Lcd_CheckBusy
  1504 ;;           _SendByte
  1505 ;;           _ReceiveByte
  1506 ;;         _SendByte
  1507 ;;     _LcdMenu_NumMasK
  1508 ;;   _LcdMenu_Factory
  1509 ;;     ___bmul
  1510 ;;     _BspEeprom_SaveParam
  1511 ;;     _LcdMenu_VPrintf
  1512 ;;       _myitoa
  1513 ;;         ___lwmod
  1514 ;;           ___lwdiv (ARG)
  1515 ;;         ___lwdiv
  1516 ;;         ___awdiv
  1517 ;;     _Lcd_StrDisp
  1518 ;;       _Lcd_WriteCmd
  1519 ;;         _Lcd_CheckBusy
  1520 ;;           _SendByte
  1521 ;;           _ReceiveByte
  1522 ;;         _SendByte
  1523 ;;       _Lcd_WriteData
  1524 ;;         _Lcd_CheckBusy
  1525 ;;           _SendByte
  1526 ;;           _ReceiveByte
  1527 ;;         _SendByte
  1528 ;;     _LcdMenu_NumMasK
  1529 ;;
  1530 ;; _IRQ (ROOT)
  1531 ;;   _Key_Scan
  1532 ;;   _Key_Debounce
  1533 ;;   _Key_PutEvent
  1534 ;;
  1535 ;; Address spaces:
  1536 ;;Name               Size   Autos  Total    Cost      Usage
  1537 ;;SFR3                 0      0       0       4        0.0%
  1538 ;;BITSFR3              0      0       0       4        0.0%
  1539 ;;BANK2               50      0      42       7       82.5%
  1540 ;;BITBANK2            50      0       0       6        0.0%
  1541 ;;SFR2                 0      0       0       5        0.0%
  1542 ;;BITSFR2              0      0       0       5        0.0%
  1543 ;;SFR1                 0      0       0       2        0.0%
  1544 ;;BITSFR1              0      0       0       2        0.0%
  1545 ;;BANK1               50     1E      4D       5       96.3%
  1546 ;;BITBANK1            50      0       0       4        0.0%
  1547 ;;CODE                 0      0       0       0        0.0%
  1548 ;;DATA                 0      0      F5      10        0.0%
  1549 ;;ABS                  0      0      EC       8        0.0%
  1550 ;;NULL                 0      0       0       0        0.0%
  1551 ;;STACK                0      0       9       2        0.0%
  1552 ;;BANK0               50     4E      50       3      100.0%
  1553 ;;BITBANK0            50      0       0       9        0.0%
  1554 ;;SFR0                 0      0       0       1        0.0%
  1555 ;;BITSFR0              0      0       0       1        0.0%
  1556 ;;COMMON               E      C       D       1       92.9%
  1557 ;;BITCOMMON            E      0       0       0        0.0%
  1558 ;;EEDATA             100      0       0       0        0.0%
  1559                           
  1560                           
  1561 ;; *************** function _main *****************
  1562 ;; Defined at:
  1563 ;;		line 46 in file "Code/TestMain.c"
  1564 ;; Parameters:    Size  Location     Type
  1565 ;;		None
  1566 ;; Auto vars:     Size  Location     Type
  1567 ;;  Key             1   77[BANK0 ] unsigned char 
  1568 ;;  SystemMode      1   76[BANK0 ] enum E2569
  1569 ;; Return value:  Size  Location     Type
  1570 ;;		None               void
  1571 ;; Registers used:
  1572 ;;		wreg, fsr0l, fsr0h, status,2, status,0, btemp+1, pclath, cstack
  1573 ;; Tracked objects:
  1574 ;;		On entry : 17F/0
  1575 ;;		On exit  : 60/0
  1576 ;;		Unchanged: FFE00/0
  1577 ;; Data sizes:     COMMON   BANK0   BANK1   BANK2
  1578 ;;      Params:         0       0       0       0
  1579 ;;      Locals:         0       4       0       0
  1580 ;;      Temps:          0       0       0       0
  1581 ;;      Totals:         0       4       0       0
  1582 ;;Total ram usage:        4 bytes
  1583 ;; Hardware stack levels required when called:    7
  1584 ;; This function calls:
  1585 ;;		_Lcd_Init
  1586 ;;		_BspSystem_TmrInit
  1587 ;;		_LcdMenu_Welcome
  1588 ;;		_Lcd_Delay
  1589 ;;		_BspEeprom_GetParam
  1590 ;;		_Lcd_ClrScreen
  1591 ;;		_Key_GetEvent
  1592 ;;		_LcdMenu_Normal
  1593 ;;		_LcdMenu_Setup
  1594 ;;		_LcdMenu_Factory
  1595 ;; This function is called by:
  1596 ;;		Startup code after reset
  1597 ;; This function uses a non-reentrant model
  1598 ;;
  1599  0D13                     _main:	
  1600                           
  1601                           ;TestMain.c: 48: t_Sysmod SystemMode = TestMain_NORMALMOD;
  1602                           
  1603                           ; Regs used in _main: [wreg-fsr0h+status,2+status,0+btemp+1+pclath+cstack]
  1604  0D13  01EC               	clrf	main@SystemMode
  1605                           
  1606                           ;TestMain.c: 49: u8 Key;
  1607                           ;TestMain.c: 51: Lcd_Init();
  1608  0D14  118A  2024  158A   	fcall	_Lcd_Init
  1609                           
  1610                           ;TestMain.c: 53: BspSystem_TmrInit();
  1611  0D17  158A  24A9  158A   	fcall	_BspSystem_TmrInit
  1612                           
  1613                           ;TestMain.c: 54: LcdMenu_Welcome();
  1614  0D1A  118A  2011  158A   	fcall	_LcdMenu_Welcome
  1615                           
  1616                           ;TestMain.c: 55: Lcd_Delay(10000);
  1617  0D1D  3010               	movlw	16
  1618  0D1E  00A0               	movwf	?_Lcd_Delay
  1619  0D1F  3027               	movlw	39
  1620  0D20  00A1               	movwf	?_Lcd_Delay+1
  1621  0D21  118A  204B  158A   	fcall	_Lcd_Delay
  1622                           
  1623                           ;TestMain.c: 57: BspEeprom_GetParam(0,&SetupParam,sizeof(t_SetupParam));
  1624  0D24  30C6               	movlw	_SetupParam& (0+255)
  1625  0D25  00A0               	movwf	?_BspEeprom_GetParam
  1626  0D26  3000               	movlw	0
  1627  0D27  00A1               	movwf	?_BspEeprom_GetParam+1
  1628  0D28  3006               	movlw	6
  1629  0D29  00A2               	movwf	?_BspEeprom_GetParam+2
  1630  0D2A  3000               	movlw	0
  1631  0D2B  158A  27C4  158A   	fcall	_BspEeprom_GetParam
  1632                           
  1633                           ;TestMain.c: 58: BspEeprom_GetParam(20,&FactoryParam,sizeof(t_FactoryParam));
  1634  0D2E  3044               	movlw	_FactoryParam& (0+255)
  1635  0D2F  00A0               	movwf	?_BspEeprom_GetParam
  1636  0D30  3001               	movlw	1
  1637  0D31  00A1               	movwf	?_BspEeprom_GetParam+1
  1638  0D32  301E               	movlw	30
  1639  0D33  00A2               	movwf	?_BspEeprom_GetParam+2
  1640  0D34  3014               	movlw	20
  1641  0D35  158A  27C4  158A   	fcall	_BspEeprom_GetParam
  1642                           
  1643                           ;TestMain.c: 60: Lcd_ClrScreen();
  1644  0D38  118A  200F  158A   	fcall	_Lcd_ClrScreen
  1645  0D3B  2D60               	goto	l15601
  1646  0D3C                     l15605:	
  1647  0D3C  3003               	movlw	3
  1648                           
  1649                           ;TestMain.c: 69: {
  1650                           ;TestMain.c: 70: SystemMode++;
  1651  0D3D  0AEC               	incf	main@SystemMode,f
  1652                           
  1653                           ;TestMain.c: 71: SystemMode = (SystemMode >= TestMain_MAXMOD) ? TestMain_NORMALMOD : Sys
      +                          temMode;
  1654  0D3E  026C               	subwf	main@SystemMode,w
  1655  0D3F  1803               	skipnc
  1656  0D40  2D44               	goto	l15611
  1657  0D41  086C               	movf	main@SystemMode,w
  1658  0D42  00EA               	movwf	_main$14359
  1659  0D43  2D45               	goto	L1
  1660  0D44                     l15611:	
  1661  0D44  01EA               	clrf	_main$14359
  1662  0D45                     L1:	
  1663  0D45  01EB               	clrf	_main$14359+1
  1664  0D46  086A               	movf	_main$14359,w
  1665  0D47  00EC               	movwf	main@SystemMode
  1666                           
  1667                           ;TestMain.c: 72: Lcd_ClrScreen();
  1668  0D48  118A  200F  158A   	fcall	_Lcd_ClrScreen
  1669  0D4B  2D68               	goto	l15625
  1670  0D4C                     l15617:	
  1671                           
  1672                           ;TestMain.c: 78: LcdMenu_Normal(Key,PaperNum);
  1673  0D4C  01D4               	clrf	?_LcdMenu_Normal
  1674  0D4D  01D5               	clrf	?_LcdMenu_Normal+1
  1675  0D4E  086D               	movf	main@Key,w
  1676  0D4F  118A  205D  158A   	fcall	_LcdMenu_Normal
  1677                           
  1678                           ;TestMain.c: 79: break;
  1679  0D52  2D60               	goto	l15601
  1680  0D53                     l15619:	
  1681                           
  1682                           ;TestMain.c: 82: LcdMenu_Setup(Key,&SetupParam);
  1683  0D53  30C6               	movlw	_SetupParam& (0+255)
  1684  0D54  00D4               	movwf	?_LcdMenu_Setup
  1685  0D55  086D               	movf	main@Key,w
  1686  0D56  118A  2116  158A   	fcall	_LcdMenu_Setup
  1687                           
  1688                           ;TestMain.c: 83: break;
  1689  0D59  2D60               	goto	l15601
  1690  0D5A                     l15621:	
  1691                           
  1692                           ;TestMain.c: 86: LcdMenu_Factory(Key,&FactoryParam);
  1693  0D5A  3044               	movlw	_FactoryParam& (0+255)
  1694  0D5B  00D4               	movwf	?_LcdMenu_Factory
  1695  0D5C  086D               	movf	main@Key,w
  1696  0D5D  158A  2575  158A   	fcall	_LcdMenu_Factory
  1697  0D60                     l15601:	
  1698                           ;TestMain.c: 87: break;
  1699                           
  1700                           
  1701                           ;TestMain.c: 63: {
  1702                           ;TestMain.c: 66: Key = Key_GetEvent();
  1703  0D60  158A  24B9  158A   	fcall	_Key_GetEvent
  1704  0D63  1283               	bcf	3,5	;RP0=0, select bank0
  1705  0D64  00ED               	movwf	main@Key
  1706                           
  1707                           ;TestMain.c: 68: if(Key == EVENT_KEYSETUPS)
  1708  0D65  3A0D               	xorlw	13
  1709  0D66  1903               	btfsc	3,2
  1710  0D67  2D3C               	goto	l15605
  1711  0D68                     l15625:	
  1712  0D68  086C               	movf	main@SystemMode,w
  1713                           
  1714                           ; Switch size 1, requested type "space"
  1715                           ; Number of cases is 3, Range of values is 0 to 2
  1716                           ; switch strategies available:
  1717                           ; Name         Instructions Cycles
  1718                           ; simple_byte           10     6 (average)
  1719                           ; direct_byte           13     7 (fixed)
  1720                           ; jumptable            260     6 (fixed)
  1721                           ; rangetable             7     6 (fixed)
  1722                           ; spacedrange           12     9 (fixed)
  1723                           ; locatedrange           3     3 (fixed)
  1724                           ;	Chosen strategy is simple_byte
  1725  0D69  3A00               	xorlw	0	; case 0
  1726  0D6A  1903               	skipnz
  1727  0D6B  2D4C               	goto	l15617
  1728  0D6C  3A01               	xorlw	1	; case 1
  1729  0D6D  1903               	skipnz
  1730  0D6E  2D53               	goto	l15619
  1731  0D6F  3A03               	xorlw	3	; case 2
  1732  0D70  1903               	skipnz
  1733  0D71  2D5A               	goto	l15621
  1734  0D72  2D60               	goto	l15601
  1735  0D73  118A  280D         	ljmp	start
  1736  0D75                     __end_of_main:	
  1737                           
  1738                           	psect	text661
  1739  0D75                     __ptext661:	
  1740 ;; =============== function _main ends ============
  1741                           
  1742                           
  1743 ;; *************** function _LcdMenu_Factory *****************
  1744 ;; Defined at:
  1745 ;;		line 471 in file "Code/Driver/LCD/LcdMenu.c"
  1746 ;; Parameters:    Size  Location     Type
  1747 ;;  KeyEvent        1    wreg     unsigned char 
  1748 ;;  pParam          1   52[BANK0 ] PTR struct .
  1749 ;;		 -> FactoryParam(30), 
  1750 ;; Auto vars:     Size  Location     Type
  1751 ;;  KeyEvent        1   57[BANK0 ] unsigned char 
  1752 ;;  j               1   56[BANK0 ] unsigned char 
  1753 ;;  i               1   55[BANK0 ] unsigned char 
  1754 ;;  Change          1    0        unsigned char 
  1755 ;; Return value:  Size  Location     Type
  1756 ;;		None               void
  1757 ;; Registers used:
  1758 ;;		wreg, fsr0l, fsr0h, status,2, status,0, btemp+1, pclath, cstack
  1759 ;; Tracked objects:
  1760 ;;		On entry : 60/0
  1761 ;;		On exit  : 160/0
  1762 ;;		Unchanged: FFE00/0
  1763 ;; Data sizes:     COMMON   BANK0   BANK1   BANK2
  1764 ;;      Params:         0       1       0       0
  1765 ;;      Locals:         0       3       0       0
  1766 ;;      Temps:          0       2       0       0
  1767 ;;      Totals:         0       6       0       0
  1768 ;;Total ram usage:        6 bytes
  1769 ;; Hardware stack levels used:    1
  1770 ;; Hardware stack levels required when called:    6
  1771 ;; This function calls:
  1772 ;;		___bmul
  1773 ;;		_BspEeprom_SaveParam
  1774 ;;		_LcdMenu_VPrintf
  1775 ;;		_Lcd_StrDisp
  1776 ;;		_LcdMenu_NumMasK
  1777 ;; This function is called by:
  1778 ;;		_main
  1779 ;; This function uses a non-reentrant model
  1780 ;;
  1781  0D75                     _LcdMenu_Factory:	
  1782                           
  1783                           ; Regs used in _LcdMenu_Factory: [wreg-fsr0h+status,2+status,0+btemp+1+pclath+cstack]
  1784                           ;LcdMenu_Factory@KeyEvent stored from wreg
  1785  0D75  00D9               	movwf	LcdMenu_Factory@KeyEvent
  1786                           
  1787                           ;LcdMenu.c: 473: u8 i,j;
  1788                           ;LcdMenu.c: 474: static u8 Section = 0;
  1789                           ;LcdMenu.c: 475: static u8 Index = 0;
  1790                           ;LcdMenu.c: 476: static u8 FlashStop = 1;
  1791                           ;LcdMenu.c: 479: if(KeyEvent == EVENT_KEYSETUPS)
  1792  0D76  3A0D               	xorlw	13
  1793  0D77  1D03               	skipz
  1794  0D78  2D7F               	goto	l15447
  1795                           
  1796                           ;LcdMenu.c: 480: {
  1797                           ;LcdMenu.c: 482: FlashStop = 1;
  1798  0D79  1683               	bsf	3,5	;RP0=1, select bank1
  1799  0D7A  01EA               	clrf	LcdMenu_Factory@FlashStop^(0+128)
  1800  0D7B  0AEA               	incf	LcdMenu_Factory@FlashStop^(0+128),f
  1801                           
  1802                           ;LcdMenu.c: 483: Index = 0;
  1803  0D7C  1283               	bcf	3,5	;RP0=0, select bank0
  1804  0D7D  01EE               	clrf	LcdMenu_Factory@Index
  1805                           
  1806                           ;LcdMenu.c: 484: Section = 0;
  1807  0D7E  01EF               	clrf	LcdMenu_Factory@Section
  1808  0D7F                     l15447:	
  1809                           
  1810                           ;LcdMenu.c: 485: }
  1811                           ;LcdMenu.c: 487: if(KeyEvent == EVENT_KEYDOWNS)
  1812  0D7F  0859               	movf	LcdMenu_Factory@KeyEvent,w
  1813  0D80  3A03               	xorlw	3
  1814  0D81  1D03               	skipz
  1815  0D82  2D8A               	goto	l15455
  1816                           
  1817                           ;LcdMenu.c: 488: {
  1818                           ;LcdMenu.c: 489: if(Index >= 2)
  1819  0D83  3002               	movlw	2
  1820  0D84  026E               	subwf	LcdMenu_Factory@Index,w
  1821  0D85  1C03               	skipc
  1822  0D86  2D89               	goto	l15453
  1823                           
  1824                           ;LcdMenu.c: 490: Index = 0;
  1825  0D87  01EE               	clrf	LcdMenu_Factory@Index
  1826  0D88  2D8A               	goto	l15455
  1827  0D89                     l15453:	
  1828                           
  1829                           ;LcdMenu.c: 491: else
  1830                           ;LcdMenu.c: 492: Index++;
  1831  0D89  0AEE               	incf	LcdMenu_Factory@Index,f
  1832  0D8A                     l15455:	
  1833                           
  1834                           ;LcdMenu.c: 493: }
  1835                           ;LcdMenu.c: 495: if(KeyEvent == EVENT_KEYUPS)
  1836  0D8A  0B59               	decfsz	LcdMenu_Factory@KeyEvent,w
  1837  0D8B  2D93               	goto	l15463
  1838                           
  1839                           ;LcdMenu.c: 496: {
  1840                           ;LcdMenu.c: 497: if(Index == 0)
  1841  0D8C  08EE               	movf	LcdMenu_Factory@Index,f
  1842  0D8D  1D03               	skipz
  1843  0D8E  2D92               	goto	l15461
  1844                           
  1845                           ;LcdMenu.c: 498: Index = 2;
  1846  0D8F  3002               	movlw	2
  1847  0D90  00EE               	movwf	LcdMenu_Factory@Index
  1848  0D91  2D93               	goto	l15463
  1849  0D92                     l15461:	
  1850                           
  1851                           ;LcdMenu.c: 499: else
  1852                           ;LcdMenu.c: 500: Index--;
  1853  0D92  03EE               	decf	LcdMenu_Factory@Index,f
  1854  0D93                     l15463:	
  1855                           
  1856                           ;LcdMenu.c: 501: }
  1857                           ;LcdMenu.c: 503: if(KeyEvent == EVENT_KEYRIGHTS)
  1858  0D93  0859               	movf	LcdMenu_Factory@KeyEvent,w
  1859  0D94  3A07               	xorlw	7
  1860  0D95  1D03               	skipz
  1861  0D96  2DA3               	goto	l15479
  1862                           
  1863                           ;LcdMenu.c: 504: {
  1864                           ;LcdMenu.c: 505: if(Index == 0)
  1865  0D97  08EE               	movf	LcdMenu_Factory@Index,f
  1866  0D98  1D03               	skipz
  1867  0D99  2DA0               	goto	l15473
  1868                           
  1869                           ;LcdMenu.c: 506: {
  1870                           ;LcdMenu.c: 507: if(Section >= 7)
  1871  0D9A  3007               	movlw	7
  1872  0D9B                     L4:	
  1873  0D9B  026F               	subwf	LcdMenu_Factory@Section,w
  1874  0D9C  1C03               	skipc
  1875  0D9D  2DA2               	goto	l15471
  1876                           
  1877                           ;LcdMenu.c: 508: Section = 0;
  1878  0D9E  01EF               	clrf	LcdMenu_Factory@Section
  1879  0D9F  2DA3               	goto	l15479
  1880  0DA0                     l15473:	
  1881                           
  1882                           ;LcdMenu.c: 512: else
  1883                           ;LcdMenu.c: 513: {
  1884                           ;LcdMenu.c: 514: if(Section >= 9)
  1885  0DA0  3009               	movlw	9
  1886  0DA1  2D9B               	goto	L4
  1887  0DA2                     l15471:	
  1888                           
  1889                           ;LcdMenu.c: 509: else
  1890                           ;LcdMenu.c: 510: Section++;
  1891  0DA2  0AEF               	incf	LcdMenu_Factory@Section,f
  1892  0DA3                     l15479:	
  1893                           
  1894                           ;LcdMenu.c: 518: }
  1895                           ;LcdMenu.c: 520: }
  1896                           ;LcdMenu.c: 522: if(KeyEvent == EVENT_KEYLEFTS)
  1897  0DA3  0859               	movf	LcdMenu_Factory@KeyEvent,w
  1898  0DA4  3A05               	xorlw	5
  1899  0DA5  1D03               	skipz
  1900  0DA6  2DB6               	goto	l15495
  1901                           
  1902                           ;LcdMenu.c: 523: {
  1903                           ;LcdMenu.c: 524: if(Index == 0)
  1904  0DA7  08EE               	movf	LcdMenu_Factory@Index,f
  1905  0DA8  1D03               	skipz
  1906  0DA9  2DB1               	goto	l15489
  1907                           
  1908                           ;LcdMenu.c: 525: {
  1909                           ;LcdMenu.c: 526: if(Section == 0)
  1910  0DAA  08EF               	movf	LcdMenu_Factory@Section,f
  1911  0DAB  1D03               	skipz
  1912  0DAC  2DAF               	goto	l15487
  1913                           
  1914                           ;LcdMenu.c: 527: Section = 7;
  1915  0DAD  3007               	movlw	7
  1916  0DAE  2DB5               	goto	L2
  1917  0DAF                     l15487:	
  1918                           
  1919                           ;LcdMenu.c: 528: else
  1920                           ;LcdMenu.c: 529: Section--;
  1921  0DAF  03EF               	decf	LcdMenu_Factory@Section,f
  1922  0DB0  2DB6               	goto	l15495
  1923  0DB1                     l15489:	
  1924                           
  1925                           ;LcdMenu.c: 531: else
  1926                           ;LcdMenu.c: 532: {
  1927                           ;LcdMenu.c: 533: if(Section == 0)
  1928  0DB1  08EF               	movf	LcdMenu_Factory@Section,f
  1929  0DB2  1D03               	skipz
  1930  0DB3  2DAF               	goto	l15487
  1931                           
  1932                           ;LcdMenu.c: 534: Section = 9;
  1933  0DB4  3009               	movlw	9
  1934  0DB5                     L2:	
  1935  0DB5  00EF               	movwf	LcdMenu_Factory@Section
  1936  0DB6                     l15495:	
  1937                           
  1938                           ;LcdMenu.c: 537: }
  1939                           ;LcdMenu.c: 539: }
  1940                           ;LcdMenu.c: 541: for(i=0;i<3;i++)
  1941  0DB6  01D7               	clrf	LcdMenu_Factory@i
  1942  0DB7                     l15501:	
  1943                           
  1944                           ;LcdMenu.c: 542: {
  1945                           ;LcdMenu.c: 543: for(j=0;j<10;j++)
  1946  0DB7  01D8               	clrf	LcdMenu_Factory@j
  1947  0DB8                     l15507:	
  1948                           
  1949                           ;LcdMenu.c: 544: {
  1950                           ;LcdMenu.c: 545: if(pParam->num[i][j] > 9)
  1951  0DB8  300A               	movlw	10
  1952  0DB9  00A0               	movwf	?___bmul
  1953  0DBA  0857               	movf	LcdMenu_Factory@i,w
  1954  0DBB  26DA  158A         	fcall	___bmul
  1955  0DBD  277E  158A         	fcall	PL16	;call to abstracted procedure
  1956  0DBF  1783               	bsf	3,7	;select IRP bank2
  1957  0DC0  0200               	subwf	0,w
  1958                           
  1959                           ;LcdMenu.c: 546: {
  1960                           ;LcdMenu.c: 547: pParam->num[i][j] = 0;
  1961  0DC1  300A               	movlw	10
  1962  0DC2  1C03               	skipc
  1963  0DC3  2DCB               	goto	L7
  1964  0DC4  00A0               	movwf	?___bmul
  1965  0DC5  0857               	movf	LcdMenu_Factory@i,w
  1966  0DC6  26DA  158A         	fcall	___bmul
  1967  0DC8  277E  158A         	fcall	PL16	;call to abstracted procedure
  1968  0DCA  0180               	clrf	0
  1969  0DCB                     L7:	
  1970  0DCB  0AD8               	incf	LcdMenu_Factory@j,f
  1971  0DCC  0258               	subwf	LcdMenu_Factory@j,w
  1972  0DCD  1C03               	skipc
  1973  0DCE  2DB8               	goto	l15507
  1974  0DCF  3003               	movlw	3
  1975  0DD0  0AD7               	incf	LcdMenu_Factory@i,f
  1976  0DD1  0257               	subwf	LcdMenu_Factory@i,w
  1977  0DD2  1C03               	skipc
  1978  0DD3  2DB7               	goto	l15501
  1979                           
  1980                           ;LcdMenu.c: 548: }
  1981                           ;LcdMenu.c: 549: }
  1982                           ;LcdMenu.c: 551: }
  1983                           ;LcdMenu.c: 553: if(KeyEvent == EVENT_KEYPLUSS)
  1984  0DD4  0859               	movf	LcdMenu_Factory@KeyEvent,w
  1985  0DD5  3A09               	xorlw	9
  1986  0DD6  1D03               	skipz
  1987  0DD7  2DF1               	goto	l15527
  1988                           
  1989                           ;LcdMenu.c: 554: {
  1990                           ;LcdMenu.c: 555: if(pParam->num[Index][Section] >= 9)
  1991  0DD8  300A               	movlw	10
  1992  0DD9  00A0               	movwf	?___bmul
  1993  0DDA  086E               	movf	LcdMenu_Factory@Index,w
  1994  0DDB  26DA  158A         	fcall	___bmul
  1995  0DDD  2763  158A         	fcall	PL5	;call to abstracted procedure
  1996  0DDF  3009               	movlw	9
  1997  0DE0  0200               	subwf	0,w
  1998                           
  1999                           ;LcdMenu.c: 556: pParam->num[Index][Section] = 0;
  2000  0DE1  300A               	movlw	10
  2001  0DE2  00A0               	movwf	?___bmul
  2002  0DE3  086E               	movf	LcdMenu_Factory@Index,w
  2003  0DE4  1C03               	skipc
  2004  0DE5  2DEC               	goto	L5
  2005  0DE6  26DA  158A         	fcall	___bmul
  2006  0DE8  2763  158A         	fcall	PL5	;call to abstracted procedure
  2007  0DEA  0180               	clrf	0
  2008  0DEB  2DF1               	goto	l15527
  2009  0DEC                     L5:	
  2010                           ;LcdMenu.c: 557: else
  2011                           ;LcdMenu.c: 558: pParam->num[Index][Section]++;
  2012                           
  2013  0DEC  26DA  158A         	fcall	___bmul
  2014  0DEE  2763  158A         	fcall	PL5	;call to abstracted procedure
  2015  0DF0  0A80               	incf	0,f
  2016  0DF1                     l15527:	
  2017                           
  2018                           ;LcdMenu.c: 560: }
  2019                           ;LcdMenu.c: 562: if(KeyEvent == EVENT_KEYMINUSS)
  2020  0DF1  0859               	movf	LcdMenu_Factory@KeyEvent,w
  2021  0DF2  3A0B               	xorlw	11
  2022  0DF3  1D03               	skipz
  2023  0DF4  2E0F               	goto	l15535
  2024                           
  2025                           ;LcdMenu.c: 563: {
  2026                           ;LcdMenu.c: 564: if(pParam->num[Index][Section] > 0)
  2027  0DF5  300A               	movlw	10
  2028  0DF6  00A0               	movwf	?___bmul
  2029  0DF7  086E               	movf	LcdMenu_Factory@Index,w
  2030  0DF8  26DA  158A         	fcall	___bmul
  2031  0DFA  2763  158A         	fcall	PL5	;call to abstracted procedure
  2032  0DFC  300A               	movlw	10
  2033  0DFD  0880               	movf	0,f
  2034                           
  2035                           ;LcdMenu.c: 565: pParam->num[Index][Section]--;
  2036  0DFE  00A0               	movwf	?___bmul
  2037  0DFF  1903               	skipnz
  2038  0E00  2E08               	goto	L6
  2039  0E01  086E               	movf	LcdMenu_Factory@Index,w
  2040  0E02  26DA  158A         	fcall	___bmul
  2041  0E04  2763  158A         	fcall	PL5	;call to abstracted procedure
  2042  0E06  0380               	decf	0,f
  2043  0E07  2E0F               	goto	l15535
  2044  0E08                     L6:	
  2045                           ;LcdMenu.c: 566: else
  2046                           ;LcdMenu.c: 567: pParam->num[Index][Section] = 9;
  2047                           
  2048  0E08  086E               	movf	LcdMenu_Factory@Index,w
  2049  0E09  26DA  158A         	fcall	___bmul
  2050  0E0B  2763  158A         	fcall	PL5	;call to abstracted procedure
  2051  0E0D  3009               	movlw	9
  2052  0E0E  0080               	movwf	0
  2053  0E0F                     l15535:	
  2054                           
  2055                           ;LcdMenu.c: 569: }
  2056                           ;LcdMenu.c: 571: if(KeyEvent == EVENT_KEYENTERS)
  2057  0E0F  0859               	movf	LcdMenu_Factory@KeyEvent,w
  2058  0E10  3A0F               	xorlw	15
  2059  0E11  1D03               	skipz
  2060  0E12  2E24               	goto	l15545
  2061                           
  2062                           ;LcdMenu.c: 572: {
  2063                           ;LcdMenu.c: 573: if(Index >= 2)
  2064  0E13  3002               	movlw	2
  2065  0E14  026E               	subwf	LcdMenu_Factory@Index,w
  2066  0E15  1C03               	skipc
  2067  0E16  2E1A               	goto	l15541
  2068                           
  2069                           ;LcdMenu.c: 574: FlashStop = 0;
  2070  0E17  1683               	bsf	3,5	;RP0=1, select bank1
  2071  0E18  01EA               	clrf	LcdMenu_Factory@FlashStop^(0+128)
  2072  0E19  2E1B               	goto	l15543
  2073  0E1A                     l15541:	
  2074                           
  2075                           ;LcdMenu.c: 575: else
  2076                           ;LcdMenu.c: 576: Index++;
  2077  0E1A  0AEE               	incf	LcdMenu_Factory@Index,f
  2078  0E1B                     l15543:	
  2079                           
  2080                           ;LcdMenu.c: 578: BspEeprom_SaveParam(20,(const u8 *)pParam,sizeof(t_FactoryParam));
  2081  0E1B  1283               	bcf	3,5	;RP0=0, select bank0
  2082  0E1C  0854               	movf	LcdMenu_Factory@pParam,w
  2083  0E1D  00A0               	movwf	?_BspEeprom_SaveParam
  2084  0E1E  3001               	movlw	1
  2085  0E1F  00A1               	movwf	?_BspEeprom_SaveParam+1
  2086  0E20  301E               	movlw	30
  2087  0E21  00A2               	movwf	?_BspEeprom_SaveParam+2
  2088  0E22  3014               	movlw	20
  2089  0E23  2720               	fcall	_BspEeprom_SaveParam
  2090  0E24                     l15545:	
  2091                           
  2092                           ;LcdMenu.c: 579: }
  2093                           ;LcdMenu.c: 581: LcdMenu_VPrintf("");
  2094  0E24  300C               	movlw	low (STR_13| (0+32768))
  2095  0E25  00BD               	movwf	?_LcdMenu_VPrintf
  2096  0E26  3089               	movlw	high (STR_13| (0+32768))
  2097  0E27  00BE               	movwf	?_LcdMenu_VPrintf+1
  2098  0E28  118A  23A8  158A   	fcall	_LcdMenu_VPrintf
  2099                           
  2100                           ;LcdMenu.c: 582: Lcd_StrDisp(0,0,LcdMenu_StrTemp);
  2101  0E2B  118A  262A  158A   	fcall	PL11	;call to abstracted procedure
  2102  0E2E  118A  2357  158A   	fcall	_Lcd_StrDisp
  2103                           
  2104                           ;LcdMenu.c: 583: LcdMenu_VPrintf(":%d%d%d%d%d%d%d%d",pParam->num[0][0],pParam->num
      +                          [0][1],pParam->num[0][2],pParam->num[0][3],pParam->num[0][4],pParam->num[0][5],pParam->n
      +                          um[0][6],pParam->num[0][7]);
  2105  0E31  3066               	movlw	low (STR_14| (0+32768))
  2106  0E32  00BD               	movwf	?_LcdMenu_VPrintf
  2107  0E33  3088               	movlw	high (STR_14| (0+32768))
  2108  0E34  00BE               	movwf	?_LcdMenu_VPrintf+1
  2109  0E35  0854               	movf	LcdMenu_Factory@pParam,w
  2110  0E36  2777  158A         	fcall	PL8	;call to abstracted procedure
  2111  0E38  3E01               	addlw	1
  2112  0E39  2795  158A         	fcall	PL20	;call to abstracted procedure
  2113  0E3B  3E02               	addlw	2
  2114  0E3C  27AD  158A         	fcall	PL24	;call to abstracted procedure
  2115  0E3E  3E03               	addlw	3
  2116  0E3F  27A7  158A         	fcall	PL23	;call to abstracted procedure
  2117  0E41  3E04               	addlw	4
  2118  0E42  279B  158A         	fcall	PL21	;call to abstracted procedure
  2119  0E44  3E05               	addlw	5
  2120  0E45  27A1  158A         	fcall	PL22	;call to abstracted procedure
  2121  0E47  3E06               	addlw	6
  2122  0E48  2785               	fcall	PL17	;call to abstracted procedure
  2123  0E49  3E07               	addlw	7
  2124  0E4A  0084               	movwf	4
  2125  0E4B  0800               	movf	0,w
  2126  0E4C  00CD               	movwf	?_LcdMenu_VPrintf+16
  2127  0E4D  01CE               	clrf	?_LcdMenu_VPrintf+17
  2128  0E4E  118A  23A8  158A   	fcall	_LcdMenu_VPrintf
  2129                           
  2130                           ;LcdMenu.c: 584: if(Index == 0 && u8_Timer_Flash && FlashStop)
  2131  0E51  1283               	bcf	3,5	;RP0=0, select bank0
  2132  0E52  08EE               	movf	LcdMenu_Factory@Index,f
  2133  0E53  1D03               	skipz
  2134  0E54  2E61               	goto	l15559
  2135  0E55  1683               	bsf	3,5	;RP0=1, select bank1
  2136  0E56  0831               	movf	_u8_Timer_Flash^(0+128),w
  2137  0E57  1903               	btfsc	3,2
  2138  0E58  2E61               	goto	l15559
  2139  0E59  086A               	movf	LcdMenu_Factory@FlashStop^(0+128),w
  2140  0E5A  1903               	btfsc	3,2
  2141  0E5B  2E61               	goto	l15559
  2142                           
  2143                           ;LcdMenu.c: 585: LcdMenu_NumMasK(LcdMenu_StrTemp, Section+1);
  2144  0E5C  1283               	bcf	3,5	;RP0=0, select bank0
  2145  0E5D  0A6F               	incf	LcdMenu_Factory@Section,w
  2146  0E5E  00A0               	movwf	?_LcdMenu_NumMasK
  2147  0E5F  30B2               	movlw	_LcdMenu_StrTemp& (0+255)
  2148  0E60  26E8               	fcall	_LcdMenu_NumMasK
  2149  0E61                     l15559:	
  2150                           
  2151                           ;LcdMenu.c: 586: Lcd_StrDisp(1,0,LcdMenu_StrTemp);
  2152  0E61  118A  2625  158A   	fcall	PL10	;call to abstracted procedure
  2153  0E64  118A  2357  158A   	fcall	_Lcd_StrDisp
  2154                           
  2155                           ;LcdMenu.c: 587: LcdMenu_VPrintf(":%d%d%d%d%d%d%d%d%d%d",pParam->num[1][0],pParam->n
      +                          um[1][1],pParam->num[1][2],pParam->num[1][3],pParam->num[1][4],pParam->num[1][5],pParam-
      +                          >num[1][6],pParam->num[1][7],pParam->num[1][8],pParam->num[1][9]);
  2156  0E67  304C               	movlw	low (STR_15| (0+32768))
  2157  0E68  00BD               	movwf	?_LcdMenu_VPrintf
  2158  0E69  3088               	movlw	high (STR_15| (0+32768))
  2159  0E6A  00BE               	movwf	?_LcdMenu_VPrintf+1
  2160  0E6B  0854               	movf	LcdMenu_Factory@pParam,w
  2161  0E6C  3E0A               	addlw	10
  2162  0E6D  2777  158A         	fcall	PL8	;call to abstracted procedure
  2163  0E6F  3E0B               	addlw	11
  2164  0E70  2795  158A         	fcall	PL20	;call to abstracted procedure
  2165  0E72  3E0C               	addlw	12
  2166  0E73  27AD  158A         	fcall	PL24	;call to abstracted procedure
  2167  0E75  3E0D               	addlw	13
  2168  0E76  27A7  158A         	fcall	PL23	;call to abstracted procedure
  2169  0E78  3E0E               	addlw	14
  2170  0E79  279B  158A         	fcall	PL21	;call to abstracted procedure
  2171  0E7B  3E0F               	addlw	15
  2172  0E7C  27A1  158A         	fcall	PL22	;call to abstracted procedure
  2173  0E7E  3E10               	addlw	16
  2174  0E7F  2785  158A         	fcall	PL17	;call to abstracted procedure
  2175  0E81  3E11               	addlw	17
  2176  0E82  27B3  158A         	fcall	PL28	;call to abstracted procedure
  2177  0E84  3E12               	addlw	18
  2178  0E85  27B9  158A         	fcall	PL29	;call to abstracted procedure
  2179  0E87  3E13               	addlw	19
  2180  0E88  27BF               	fcall	PL33	;call to abstracted procedure
  2181  0E89  118A  23A8  158A   	fcall	_LcdMenu_VPrintf
  2182                           
  2183                           ;LcdMenu.c: 588: if(Index == 1 && u8_Timer_Flash && FlashStop)
  2184  0E8C  1283               	bcf	3,5	;RP0=0, select bank0
  2185  0E8D  0B6E               	decfsz	LcdMenu_Factory@Index,w
  2186  0E8E  2E9C               	goto	l15571
  2187  0E8F  1683               	bsf	3,5	;RP0=1, select bank1
  2188  0E90  0831               	movf	_u8_Timer_Flash^(0+128),w
  2189  0E91  1903               	btfsc	3,2
  2190  0E92  2E9C               	goto	l15571
  2191  0E93  086A               	movf	LcdMenu_Factory@FlashStop^(0+128),w
  2192  0E94  1903               	btfsc	3,2
  2193  0E95  2E9C               	goto	l15571
  2194                           
  2195                           ;LcdMenu.c: 589: LcdMenu_NumMasK(LcdMenu_StrTemp, Section+1);
  2196  0E96  1283               	bcf	3,5	;RP0=0, select bank0
  2197  0E97  0A6F               	incf	LcdMenu_Factory@Section,w
  2198  0E98  00A0               	movwf	?_LcdMenu_NumMasK
  2199  0E99  30B2               	movlw	_LcdMenu_StrTemp& (0+255)
  2200  0E9A  26E8  158A         	fcall	_LcdMenu_NumMasK
  2201  0E9C                     l15571:	
  2202                           
  2203                           ;LcdMenu.c: 590: Lcd_StrDisp(2,0,LcdMenu_StrTemp);
  2204  0E9C  278B               	fcall	PL18	;call to abstracted procedure
  2205  0E9D  118A  2357  158A   	fcall	_Lcd_StrDisp
  2206                           
  2207                           ;LcdMenu.c: 591: LcdMenu_VPrintf(":%d%d%d%d%d%d%d%d%d%d",pParam->num[2][0],pParam->n
      +                          um[2][1],pParam->num[2][2],pParam->num[2][3],pParam->num[2][4],pParam->num[2][5],pParam-
      +                          >num[2][6],pParam->num[2][7],pParam->num[2][8],pParam->num[2][9]);
  2208  0EA0  3032               	movlw	low (STR_16| (0+32768))
  2209  0EA1  00BD               	movwf	?_LcdMenu_VPrintf
  2210  0EA2  3088               	movlw	high (STR_16| (0+32768))
  2211  0EA3  00BE               	movwf	?_LcdMenu_VPrintf+1
  2212  0EA4  0854               	movf	LcdMenu_Factory@pParam,w
  2213  0EA5  3E14               	addlw	20
  2214  0EA6  2777  158A         	fcall	PL8	;call to abstracted procedure
  2215  0EA8  3E15               	addlw	21
  2216  0EA9  2795  158A         	fcall	PL20	;call to abstracted procedure
  2217  0EAB  3E16               	addlw	22
  2218  0EAC  27AD  158A         	fcall	PL24	;call to abstracted procedure
  2219  0EAE  3E17               	addlw	23
  2220  0EAF  27A7  158A         	fcall	PL23	;call to abstracted procedure
  2221  0EB1  3E18               	addlw	24
  2222  0EB2  279B  158A         	fcall	PL21	;call to abstracted procedure
  2223  0EB4  3E19               	addlw	25
  2224  0EB5  27A1  158A         	fcall	PL22	;call to abstracted procedure
  2225  0EB7  3E1A               	addlw	26
  2226  0EB8  2785  158A         	fcall	PL17	;call to abstracted procedure
  2227  0EBA  3E1B               	addlw	27
  2228  0EBB  27B3  158A         	fcall	PL28	;call to abstracted procedure
  2229  0EBD  3E1C               	addlw	28
  2230  0EBE  27B9  158A         	fcall	PL29	;call to abstracted procedure
  2231  0EC0  3E1D               	addlw	29
  2232  0EC1  27BF               	fcall	PL33	;call to abstracted procedure
  2233  0EC2  118A  23A8  158A   	fcall	_LcdMenu_VPrintf
  2234                           
  2235                           ;LcdMenu.c: 592: if(Index == 2 && u8_Timer_Flash && FlashStop)
  2236  0EC5  1283               	bcf	3,5	;RP0=0, select bank0
  2237  0EC6  086E               	movf	LcdMenu_Factory@Index,w
  2238  0EC7  3A02               	xorlw	2
  2239  0EC8  1D03               	skipz
  2240  0EC9  2ED7               	goto	l15583
  2241  0ECA  1683               	bsf	3,5	;RP0=1, select bank1
  2242  0ECB  0831               	movf	_u8_Timer_Flash^(0+128),w
  2243  0ECC  1903               	btfsc	3,2
  2244  0ECD  2ED7               	goto	l15583
  2245  0ECE  086A               	movf	LcdMenu_Factory@FlashStop^(0+128),w
  2246  0ECF  1903               	btfsc	3,2
  2247  0ED0  2ED7               	goto	l15583
  2248                           
  2249                           ;LcdMenu.c: 593: LcdMenu_NumMasK(LcdMenu_StrTemp, Section+1);
  2250  0ED1  1283               	bcf	3,5	;RP0=0, select bank0
  2251  0ED2  0A6F               	incf	LcdMenu_Factory@Section,w
  2252  0ED3  00A0               	movwf	?_LcdMenu_NumMasK
  2253  0ED4  30B2               	movlw	_LcdMenu_StrTemp& (0+255)
  2254  0ED5  26E8  158A         	fcall	_LcdMenu_NumMasK
  2255  0ED7                     l15583:	
  2256                           
  2257                           ;LcdMenu.c: 594: Lcd_StrDisp(3,0,LcdMenu_StrTemp);
  2258  0ED7  2790               	fcall	PL19	;call to abstracted procedure
  2259  0ED8  118A  2B57         	ljmp	_Lcd_StrDisp
  2260  0EDA                     __end_of_LcdMenu_Factory:	
  2261  0EDA                     __ptext679:	
  2262 ;; =============== function ___wmul ends ============
  2263                           
  2264                           
  2265 ;; *************** function ___bmul *****************
  2266 ;; Defined at:
  2267 ;;		line 3 in file "c:\Program Files\HI-TECH Software\PICC\9.83\sources\bmul.c"
  2268 ;; Parameters:    Size  Location     Type
  2269 ;;  multiplier      1    wreg     unsigned char 
  2270 ;;  multiplicand    1    0[BANK0 ] unsigned char 
  2271 ;; Auto vars:     Size  Location     Type
  2272 ;;  multiplier      1    2[BANK0 ] unsigned char 
  2273 ;;  product         1    1[BANK0 ] unsigned char 
  2274 ;; Return value:  Size  Location     Type
  2275 ;;                  1    wreg      unsigned char 
  2276 ;; Registers used:
  2277 ;;		wreg, status,2, status,0
  2278 ;; Tracked objects:
  2279 ;;		On entry : 60/0
  2280 ;;		On exit  : 60/0
  2281 ;;		Unchanged: FFF9F/0
  2282 ;; Data sizes:     COMMON   BANK0   BANK1   BANK2
  2283 ;;      Params:         0       1       0       0
  2284 ;;      Locals:         0       2       0       0
  2285 ;;      Temps:          0       0       0       0
  2286 ;;      Totals:         0       3       0       0
  2287 ;;Total ram usage:        3 bytes
  2288 ;; Hardware stack levels used:    1
  2289 ;; Hardware stack levels required when called:    2
  2290 ;; This function calls:
  2291 ;;		Nothing
  2292 ;; This function is called by:
  2293 ;;		_LcdMenu_Setup
  2294 ;;		_LcdMenu_Factory
  2295 ;; This function uses a non-reentrant model
  2296 ;;
  2297  0EDA                     ___bmul:	
  2298                           
  2299                           ; Regs used in ___bmul: [wreg+status,2+status,0]
  2300                           ;___bmul@multiplier stored from wreg
  2301  0EDA  00A2               	movwf	___bmul@multiplier
  2302  0EDB  01A1               	clrf	___bmul@product
  2303  0EDC                     l14943:	
  2304  0EDC  0820               	movf	___bmul@multiplicand,w
  2305  0EDD  1822               	btfsc	___bmul@multiplier,0
  2306  0EDE  07A1               	addwf	___bmul@product,f
  2307  0EDF  1003               	clrc
  2308  0EE0  0DA0               	rlf	___bmul@multiplicand,f
  2309  0EE1  1003               	clrc
  2310  0EE2  0CA2               	rrf	___bmul@multiplier,f
  2311  0EE3  08A2               	movf	___bmul@multiplier,f
  2312  0EE4  1D03               	skipz
  2313  0EE5  2EDC               	goto	l14943
  2314  0EE6  0821               	movf	___bmul@product,w
  2315  0EE7  0008               	return
  2316  0EE8                     __end_of___bmul:	
  2317  0EE8                     __ptext681:	
  2318 ;; =============== function _LcdMenu_CharMasK ends ============
  2319                           
  2320                           
  2321 ;; *************** function _LcdMenu_NumMasK *****************
  2322 ;; Defined at:
  2323 ;;		line 208 in file "Code/Driver/LCD/LcdMenu.c"
  2324 ;; Parameters:    Size  Location     Type
  2325 ;;  Str             1    wreg     PTR unsigned char 
  2326 ;;		 -> LcdMenu_StrTemp(20), 
  2327 ;;  MaskBit         1    0[BANK0 ] unsigned char 
  2328 ;; Auto vars:     Size  Location     Type
  2329 ;;  Str             1    3[BANK0 ] PTR unsigned char 
  2330 ;;		 -> LcdMenu_StrTemp(20), 
  2331 ;;  i               1    4[BANK0 ] unsigned char 
  2332 ;;  count           1    2[BANK0 ] unsigned char 
  2333 ;; Return value:  Size  Location     Type
  2334 ;;		None               void
  2335 ;; Registers used:
  2336 ;;		wreg, fsr0l, fsr0h, status,2, status,0
  2337 ;; Tracked objects:
  2338 ;;		On entry : 160/0
  2339 ;;		On exit  : 160/0
  2340 ;;		Unchanged: FFE9F/0
  2341 ;; Data sizes:     COMMON   BANK0   BANK1   BANK2
  2342 ;;      Params:         0       1       0       0
  2343 ;;      Locals:         0       3       0       0
  2344 ;;      Temps:          0       1       0       0
  2345 ;;      Totals:         0       5       0       0
  2346 ;;Total ram usage:        5 bytes
  2347 ;; Hardware stack levels used:    1
  2348 ;; Hardware stack levels required when called:    2
  2349 ;; This function calls:
  2350 ;;		Nothing
  2351 ;; This function is called by:
  2352 ;;		_LcdMenu_Setup
  2353 ;;		_LcdMenu_Factory
  2354 ;; This function uses a non-reentrant model
  2355 ;;
  2356  0EE8                     _LcdMenu_NumMasK:	
  2357                           
  2358                           ; Regs used in _LcdMenu_NumMasK: [wreg-fsr0h+status,2+status,0]
  2359                           ;LcdMenu_NumMasK@Str stored from wreg
  2360  0EE8  00A3               	movwf	LcdMenu_NumMasK@Str
  2361                           
  2362                           ;LcdMenu.c: 209: u8 i = 0;
  2363  0EE9  01A4               	clrf	LcdMenu_NumMasK@i
  2364                           
  2365                           ;LcdMenu.c: 210: u8 count = 0;
  2366  0EEA  01A2               	clrf	LcdMenu_NumMasK@count
  2367  0EEB                     l14927:	
  2368                           ;LcdMenu.c: 211: while(Str[i] != '\0')
  2369                           
  2370  0EEB  0824               	movf	LcdMenu_NumMasK@i,w
  2371  0EEC  0723               	addwf	LcdMenu_NumMasK@Str,w
  2372  0EED  00A1               	movwf	??_LcdMenu_NumMasK
  2373  0EEE  0084               	movwf	4
  2374  0EEF  0880               	movf	0,f
  2375  0EF0  1903               	btfsc	3,2
  2376  0EF1  0008               	return
  2377                           
  2378                           ;LcdMenu.c: 212: {
  2379                           ;LcdMenu.c: 213: if(Str[i] == ':')
  2380  0EF2  0824               	movf	LcdMenu_NumMasK@i,w
  2381  0EF3  0723               	addwf	LcdMenu_NumMasK@Str,w
  2382  0EF4  00A1               	movwf	??_LcdMenu_NumMasK
  2383  0EF5  0084               	movwf	4
  2384  0EF6  0800               	movf	0,w
  2385  0EF7  3A3A               	xorlw	58
  2386  0EF8  1D03               	skipz
  2387  0EF9  2F1E               	goto	l14925
  2388  0EFA                     l14909:	
  2389                           
  2390                           ;LcdMenu.c: 214: {
  2391                           ;LcdMenu.c: 215: i++;
  2392  0EFA  0AA4               	incf	LcdMenu_NumMasK@i,f
  2393                           
  2394                           ;LcdMenu.c: 216: while(Str[i] != 'm')
  2395  0EFB  0824               	movf	LcdMenu_NumMasK@i,w
  2396  0EFC  0723               	addwf	LcdMenu_NumMasK@Str,w
  2397  0EFD  00A1               	movwf	??_LcdMenu_NumMasK
  2398  0EFE  0084               	movwf	4
  2399  0EFF  0800               	movf	0,w
  2400  0F00  3A6D               	xorlw	109
  2401  0F01  1903               	btfsc	3,2
  2402  0F02  2F1E               	goto	l14925
  2403                           
  2404                           ;LcdMenu.c: 217: {
  2405                           ;LcdMenu.c: 218: if(Str[i]>= '0' && Str[i] <= '9')
  2406  0F03  0824               	movf	LcdMenu_NumMasK@i,w
  2407  0F04  0723               	addwf	LcdMenu_NumMasK@Str,w
  2408  0F05  00A1               	movwf	??_LcdMenu_NumMasK
  2409  0F06  0084               	movwf	4
  2410  0F07  3030               	movlw	48
  2411  0F08  0200               	subwf	0,w
  2412  0F09  1C03               	skipc
  2413  0F0A  2EFA               	goto	l14909
  2414  0F0B  0824               	movf	LcdMenu_NumMasK@i,w
  2415  0F0C  0723               	addwf	LcdMenu_NumMasK@Str,w
  2416  0F0D  00A1               	movwf	??_LcdMenu_NumMasK
  2417  0F0E  0084               	movwf	4
  2418  0F0F  303A               	movlw	58
  2419  0F10  0200               	subwf	0,w
  2420  0F11  1803               	skipnc
  2421  0F12  2EFA               	goto	l14909
  2422                           
  2423                           ;LcdMenu.c: 219: {
  2424                           ;LcdMenu.c: 220: count++;
  2425  0F13  0AA2               	incf	LcdMenu_NumMasK@count,f
  2426                           
  2427                           ;LcdMenu.c: 221: if(count == MaskBit)
  2428  0F14  0822               	movf	LcdMenu_NumMasK@count,w
  2429  0F15  0620               	xorwf	LcdMenu_NumMasK@MaskBit,w
  2430  0F16  1D03               	skipz
  2431  0F17  2EFA               	goto	l14909
  2432                           
  2433                           ;LcdMenu.c: 222: {
  2434                           ;LcdMenu.c: 223: Str[i] = ' ';
  2435  0F18  0824               	movf	LcdMenu_NumMasK@i,w
  2436  0F19  0723               	addwf	LcdMenu_NumMasK@Str,w
  2437  0F1A  00A1               	movwf	??_LcdMenu_NumMasK
  2438  0F1B  0084               	movwf	4
  2439  0F1C  3020               	movlw	32
  2440  0F1D  0080               	movwf	0
  2441  0F1E                     l14925:	
  2442                           ;LcdMenu.c: 224: break;
  2443                           
  2444                           
  2445                           ;LcdMenu.c: 228: }
  2446                           ;LcdMenu.c: 229: }
  2447                           ;LcdMenu.c: 230: i++;
  2448  0F1E  0AA4               	incf	LcdMenu_NumMasK@i,f
  2449  0F1F  2EEB               	goto	l14927
  2450  0F20                     __end_of_LcdMenu_NumMasK:	
  2451  0F20                     __ptext687:	
  2452 ;; =============== function _BspEeprom_GetParam ends ============
  2453                           
  2454                           
  2455 ;; *************** function _BspEeprom_SaveParam *****************
  2456 ;; Defined at:
  2457 ;;		line 37 in file "Code/Driver/BSP/BspEeprom.c"
  2458 ;; Parameters:    Size  Location     Type
  2459 ;;  StartAddr       1    wreg     unsigned char 
  2460 ;;  pSrc            2    0[BANK0 ] PTR const unsigned char 
  2461 ;;		 -> FactoryParam(30), SetupParam(6), 
  2462 ;;  Size            1    2[BANK0 ] unsigned char 
  2463 ;; Auto vars:     Size  Location     Type
  2464 ;;  StartAddr       1    7[BANK0 ] unsigned char 
  2465 ;;  i               1    8[BANK0 ] unsigned char 
  2466 ;;  GIETemp         1    6[BANK0 ] unsigned char 
  2467 ;;  ReadTemp        1    5[BANK0 ] unsigned char 
  2468 ;; Return value:  Size  Location     Type
  2469 ;;		None               void
  2470 ;; Registers used:
  2471 ;;		wreg, fsr0l, fsr0h, status,2, status,0
  2472 ;; Tracked objects:
  2473 ;;		On entry : 60/100
  2474 ;;		On exit  : 60/0
  2475 ;;		Unchanged: FFE9F/0
  2476 ;; Data sizes:     COMMON   BANK0   BANK1   BANK2
  2477 ;;      Params:         0       3       0       0
  2478 ;;      Locals:         0       4       0       0
  2479 ;;      Temps:          0       2       0       0
  2480 ;;      Totals:         0       9       0       0
  2481 ;;Total ram usage:        9 bytes
  2482 ;; Hardware stack levels used:    1
  2483 ;; Hardware stack levels required when called:    2
  2484 ;; This function calls:
  2485 ;;		Nothing
  2486 ;; This function is called by:
  2487 ;;		_LcdMenu_Setup
  2488 ;;		_LcdMenu_Factory
  2489 ;; This function uses a non-reentrant model
  2490 ;;
  2491  0F20                     _BspEeprom_SaveParam:	
  2492                           
  2493                           ; Regs used in _BspEeprom_SaveParam: [wreg-fsr0h+status,2+status,0]
  2494                           ;BspEeprom_SaveParam@StartAddr stored from wreg
  2495  0F20  00A7               	movwf	BspEeprom_SaveParam@StartAddr
  2496                           
  2497                           ;BspEeprom.c: 40: u8 ReadTemp = 0;
  2498  0F21  01A5               	clrf	BspEeprom_SaveParam@ReadTemp
  2499                           
  2500                           ;BspEeprom.c: 42: for(i=0;i<Size;i++)
  2501  0F22  01A8               	clrf	BspEeprom_SaveParam@i
  2502  0F23                     l14797:	
  2503  0F23  0822               	movf	BspEeprom_SaveParam@Size,w
  2504  0F24  0228               	subwf	BspEeprom_SaveParam@i,w
  2505  0F25  1803               	btfsc	3,0
  2506  0F26  0008               	return
  2507  0F27                     l4493:	
  2508                           ;BspEeprom.c: 45: {
  2509                           ;BspEeprom.c: 46: do{;}
  2510                           
  2511                           
  2512                           ;BspEeprom.c: 47: while(WR == 1);
  2513  0F27  1683               	bsf	3,5	;RP0=1, select bank3
  2514  0F28  1703               	bsf	3,6	;RP1=1, select bank3
  2515  0F29  188C               	btfsc	12,1
  2516  0F2A  2F27               	goto	l4493
  2517                           
  2518                           ;BspEeprom.c: 48: EEADR = (StartAddr+i);
  2519  0F2B  1283               	bcf	3,5	;RP0=0, select bank0
  2520  0F2C  1303               	bcf	3,6	;RP1=0, select bank0
  2521  0F2D  0828               	movf	BspEeprom_SaveParam@i,w
  2522  0F2E  0727               	addwf	BspEeprom_SaveParam@StartAddr,w
  2523  0F2F  1703               	bsf	3,6	;RP1=1, select bank2
  2524  0F30  008D               	movwf	13	;volatile
  2525                           
  2526                           ;BspEeprom.c: 49: EEDATL = *(pSrc+i);
  2527  0F31  1303               	bcf	3,6	;RP1=0, select bank0
  2528  0F32  0828               	movf	BspEeprom_SaveParam@i,w
  2529  0F33  276A  158A         	fcall	PL6	;call to abstracted procedure
  2530  0F35  1703               	bsf	3,6	;RP1=1, select bank2
  2531  0F36  008C               	movwf	12	;volatile
  2532                           
  2533                           ;BspEeprom.c: 50: GIETemp = 0;
  2534  0F37  1303               	bcf	3,6	;RP1=0, select bank0
  2535  0F38  01A6               	clrf	BspEeprom_SaveParam@GIETemp
  2536                           
  2537                           ;BspEeprom.c: 51: if(GIE)
  2538  0F39  1F8B               	btfss	11,7
  2539  0F3A  2F3E               	goto	L19
  2540                           
  2541                           ;BspEeprom.c: 52: GIETemp = 1;
  2542  0F3B  01A6               	clrf	BspEeprom_SaveParam@GIETemp
  2543  0F3C  0AA6               	incf	BspEeprom_SaveParam@GIETemp,f
  2544                           
  2545                           ;BspEeprom.c: 53: GIE = 0;
  2546  0F3D  138B               	bcf	11,7
  2547  0F3E                     L19:	
  2548                           
  2549                           ;BspEeprom.c: 54: EEPGD = 0;
  2550  0F3E  1683               	bsf	3,5	;RP0=1, select bank3
  2551  0F3F  3055               	movlw	85
  2552  0F40  1703               	bsf	3,6	;RP1=1, select bank3
  2553  0F41  138C               	bcf	12,7
  2554                           
  2555                           ;BspEeprom.c: 55: WREN = 1;
  2556  0F42  150C               	bsf	12,2
  2557                           
  2558                           ;BspEeprom.c: 56: EECON2 = 0x55;
  2559  0F43  008D               	movwf	13	;volatile
  2560                           
  2561                           ;BspEeprom.c: 57: EECON2 = 0xAA;
  2562  0F44  30AA               	movlw	170
  2563  0F45  008D               	movwf	13	;volatile
  2564                           
  2565                           ;BspEeprom.c: 58: WR = 1;
  2566  0F46  148C               	bsf	12,1
  2567  0F47                     l14779:	
  2568                           
  2569                           ;BspEeprom.c: 60: while(WR == 1);
  2570  0F47  188C               	btfsc	12,1
  2571  0F48  2F47               	goto	l14779
  2572                           
  2573                           ;BspEeprom.c: 61: WREN = 0;
  2574  0F49  110C               	bcf	12,2
  2575                           
  2576                           ;BspEeprom.c: 62: EEIF = 0;
  2577  0F4A  1283               	bcf	3,5	;RP0=0, select bank0
  2578  0F4B  1303               	bcf	3,6	;RP1=0, select bank0
  2579  0F4C  138C               	bcf	12,7
  2580  0F4D                     l4498:	
  2581                           ;BspEeprom.c: 64: do{;}
  2582                           
  2583                           
  2584                           ;BspEeprom.c: 65: while(RD == 1);
  2585  0F4D  1683               	bsf	3,5	;RP0=1, select bank3
  2586  0F4E  1703               	bsf	3,6	;RP1=1, select bank3
  2587  0F4F  180C               	btfsc	12,0
  2588  0F50  2F4D               	goto	l4498
  2589                           
  2590                           ;BspEeprom.c: 66: EEADR = (StartAddr+i);
  2591  0F51  1283               	bcf	3,5	;RP0=0, select bank0
  2592  0F52  1303               	bcf	3,6	;RP1=0, select bank0
  2593  0F53  0828               	movf	BspEeprom_SaveParam@i,w
  2594  0F54  0727               	addwf	BspEeprom_SaveParam@StartAddr,w
  2595                           
  2596                           ;BspEeprom.c: 67: EEPGD = 0;
  2597                           
  2598                           ;BspEeprom.c: 68: RD = 1;
  2599                           
  2600                           ;BspEeprom.c: 70: while(RD == 1);
  2601                           
  2602                           ;BspEeprom.c: 71: ReadTemp = EEDATL;
  2603  0F55  27F5  158A         	fcall	PL4	;call to abstracted procedure
  2604  0F57  00A5               	movwf	BspEeprom_SaveParam@ReadTemp
  2605                           
  2606                           ;BspEeprom.c: 72: if(GIETemp)
  2607  0F58  0826               	movf	BspEeprom_SaveParam@GIETemp,w
  2608  0F59  1D03               	skipz
  2609                           
  2610                           ;BspEeprom.c: 73: GIE = 1;
  2611  0F5A  178B               	bsf	11,7
  2612                           
  2613                           ;BspEeprom.c: 74: }while(ReadTemp != *(pSrc+i));
  2614  0F5B  0828               	movf	BspEeprom_SaveParam@i,w
  2615  0F5C  276A  158A         	fcall	PL6	;call to abstracted procedure
  2616  0F5E  0625               	xorwf	BspEeprom_SaveParam@ReadTemp,w
  2617  0F5F  1D03               	skipz
  2618  0F60  2F27               	goto	l4493
  2619  0F61  0AA8               	incf	BspEeprom_SaveParam@i,f
  2620  0F62  2F23               	goto	l14797
  2621  0F63                     __end_of_BspEeprom_SaveParam:	
  2622  0F63                     PL5:	
  2623  0F63  0754               	addwf	LcdMenu_Factory@pParam,w
  2624  0F64  00D5               	movwf	??_LcdMenu_Factory
  2625  0F65  086F               	movf	LcdMenu_Factory@Section,w
  2626  0F66  0755               	addwf	??_LcdMenu_Factory,w
  2627  0F67  00D6               	movwf	??_LcdMenu_Factory+1
  2628  0F68  0084               	movwf	4
  2629  0F69  0008               	return
  2630  0F6A                     PL6:	
  2631  0F6A  0720               	addwf	BspEeprom_SaveParam@pSrc,w
  2632  0F6B  00A3               	movwf	??_BspEeprom_SaveParam
  2633  0F6C  0821               	movf	BspEeprom_SaveParam@pSrc+1,w
  2634  0F6D  1803               	skipnc
  2635  0F6E  3E01               	addlw	1
  2636  0F6F  00A4               	movwf	??_BspEeprom_SaveParam+1
  2637  0F70  0823               	movf	??_BspEeprom_SaveParam,w
  2638  0F71  0084               	movwf	4
  2639  0F72  1783               	bsf	3,7
  2640  0F73  1C24               	btfss	??_BspEeprom_SaveParam+1,0
  2641  0F74  1383               	bcf	3,7
  2642  0F75  0800               	movf	0,w
  2643  0F76  0008               	return
  2644  0F77                     PL8:	
  2645  0F77  0084               	movwf	4
  2646  0F78  1783               	bsf	3,7	;select IRP bank2
  2647  0F79  0800               	movf	0,w
  2648  0F7A  00BF               	movwf	?_LcdMenu_VPrintf+2
  2649  0F7B  01C0               	clrf	?_LcdMenu_VPrintf+3
  2650  0F7C  0854               	movf	LcdMenu_Factory@pParam,w
  2651  0F7D  0008               	return
  2652  0F7E                     PL16:	
  2653  0F7E  0754               	addwf	LcdMenu_Factory@pParam,w
  2654  0F7F  00D5               	movwf	??_LcdMenu_Factory
  2655  0F80  0858               	movf	LcdMenu_Factory@j,w
  2656  0F81  0755               	addwf	??_LcdMenu_Factory,w
  2657  0F82  00D6               	movwf	??_LcdMenu_Factory+1
  2658  0F83  0084               	movwf	4
  2659  0F84  340A               	retlw	10
  2660  0F85                     PL17:	
  2661  0F85  0084               	movwf	4
  2662  0F86  0800               	movf	0,w
  2663  0F87  00CB               	movwf	?_LcdMenu_VPrintf+14
  2664  0F88  01CC               	clrf	?_LcdMenu_VPrintf+15
  2665  0F89  0854               	movf	LcdMenu_Factory@pParam,w
  2666  0F8A  0008               	return
  2667  0F8B                     PL18:	
  2668  0F8B  1283               	bcf	3,5	;RP0=0, select bank0
  2669  0F8C  30B2               	movlw	_LcdMenu_StrTemp& (0+255)
  2670  0F8D  01A6               	clrf	?_Lcd_StrDisp
  2671  0F8E  00A7               	movwf	?_Lcd_StrDisp+1
  2672  0F8F  3402               	retlw	2
  2673  0F90                     PL19:	
  2674  0F90  1283               	bcf	3,5	;RP0=0, select bank0
  2675  0F91  30B2               	movlw	_LcdMenu_StrTemp& (0+255)
  2676  0F92  01A6               	clrf	?_Lcd_StrDisp
  2677  0F93  00A7               	movwf	?_Lcd_StrDisp+1
  2678  0F94  3403               	retlw	3
  2679  0F95                     PL20:	
  2680  0F95  0084               	movwf	4
  2681  0F96  0800               	movf	0,w
  2682  0F97  00C1               	movwf	?_LcdMenu_VPrintf+4
  2683  0F98  01C2               	clrf	?_LcdMenu_VPrintf+5
  2684  0F99  0854               	movf	LcdMenu_Factory@pParam,w
  2685  0F9A  0008               	return
  2686  0F9B                     PL21:	
  2687  0F9B  0084               	movwf	4
  2688  0F9C  0800               	movf	0,w
  2689  0F9D  00C7               	movwf	?_LcdMenu_VPrintf+10
  2690  0F9E  01C8               	clrf	?_LcdMenu_VPrintf+11
  2691  0F9F  0854               	movf	LcdMenu_Factory@pParam,w
  2692  0FA0  0008               	return
  2693  0FA1                     PL22:	
  2694  0FA1  0084               	movwf	4
  2695  0FA2  0800               	movf	0,w
  2696  0FA3  00C9               	movwf	?_LcdMenu_VPrintf+12
  2697  0FA4  01CA               	clrf	?_LcdMenu_VPrintf+13
  2698  0FA5  0854               	movf	LcdMenu_Factory@pParam,w
  2699  0FA6  0008               	return
  2700  0FA7                     PL23:	
  2701  0FA7  0084               	movwf	4
  2702  0FA8  0800               	movf	0,w
  2703  0FA9  00C5               	movwf	?_LcdMenu_VPrintf+8
  2704  0FAA  01C6               	clrf	?_LcdMenu_VPrintf+9
  2705  0FAB  0854               	movf	LcdMenu_Factory@pParam,w
  2706  0FAC  0008               	return
  2707  0FAD                     PL24:	
  2708  0FAD  0084               	movwf	4
  2709  0FAE  0800               	movf	0,w
  2710  0FAF  00C3               	movwf	?_LcdMenu_VPrintf+6
  2711  0FB0  01C4               	clrf	?_LcdMenu_VPrintf+7
  2712  0FB1  0854               	movf	LcdMenu_Factory@pParam,w
  2713  0FB2  0008               	return
  2714  0FB3                     PL28:	
  2715  0FB3  0084               	movwf	4
  2716  0FB4  0800               	movf	0,w
  2717  0FB5  00CD               	movwf	?_LcdMenu_VPrintf+16
  2718  0FB6  01CE               	clrf	?_LcdMenu_VPrintf+17
  2719  0FB7  0854               	movf	LcdMenu_Factory@pParam,w
  2720  0FB8  0008               	return
  2721  0FB9                     PL29:	
  2722  0FB9  0084               	movwf	4
  2723  0FBA  0800               	movf	0,w
  2724  0FBB  00CF               	movwf	?_LcdMenu_VPrintf+18
  2725  0FBC  01D0               	clrf	?_LcdMenu_VPrintf+19
  2726  0FBD  0854               	movf	LcdMenu_Factory@pParam,w
  2727  0FBE  0008               	return
  2728  0FBF                     PL33:	
  2729  0FBF  0084               	movwf	4
  2730  0FC0  0800               	movf	0,w
  2731  0FC1  00D1               	movwf	?_LcdMenu_VPrintf+20
  2732  0FC2  01D2               	clrf	?_LcdMenu_VPrintf+21
  2733  0FC3  0008               	return
  2734  0FC4                     __ptext686:	
  2735 ;; =============== function _Key_GetEvent ends ============
  2736                           
  2737                           
  2738 ;; *************** function _BspEeprom_GetParam *****************
  2739 ;; Defined at:
  2740 ;;		line 87 in file "Code/Driver/BSP/BspEeprom.c"
  2741 ;; Parameters:    Size  Location     Type
  2742 ;;  StartAddr       1    wreg     unsigned char 
  2743 ;;  pDes            2    0[BANK0 ] PTR unsigned char 
  2744 ;;		 -> FactoryParam(30), SetupParam(6), 
  2745 ;;  Size            1    2[BANK0 ] unsigned char 
  2746 ;; Auto vars:     Size  Location     Type
  2747 ;;  StartAddr       1    7[BANK0 ] unsigned char 
  2748 ;;  i               1    9[BANK0 ] unsigned char 
  2749 ;;  temp2           1    8[BANK0 ] unsigned char 
  2750 ;;  temp1           1    6[BANK0 ] unsigned char 
  2751 ;; Return value:  Size  Location     Type
  2752 ;;		None               void
  2753 ;; Registers used:
  2754 ;;		wreg, fsr0l, fsr0h, status,2, status,0
  2755 ;; Tracked objects:
  2756 ;;		On entry : 60/0
  2757 ;;		On exit  : 60/0
  2758 ;;		Unchanged: FFE9F/0
  2759 ;; Data sizes:     COMMON   BANK0   BANK1   BANK2
  2760 ;;      Params:         0       3       0       0
  2761 ;;      Locals:         0       4       0       0
  2762 ;;      Temps:          0       3       0       0
  2763 ;;      Totals:         0      10       0       0
  2764 ;;Total ram usage:       10 bytes
  2765 ;; Hardware stack levels used:    1
  2766 ;; Hardware stack levels required when called:    2
  2767 ;; This function calls:
  2768 ;;		Nothing
  2769 ;; This function is called by:
  2770 ;;		_main
  2771 ;; This function uses a non-reentrant model
  2772 ;;
  2773  0FC4                     _BspEeprom_GetParam:	
  2774                           
  2775                           ; Regs used in _BspEeprom_GetParam: [wreg-fsr0h+status,2+status,0]
  2776                           ;BspEeprom_GetParam@StartAddr stored from wreg
  2777  0FC4  00A7               	movwf	BspEeprom_GetParam@StartAddr
  2778                           
  2779                           ;BspEeprom.c: 88: u8 i;
  2780                           ;BspEeprom.c: 89: u8 temp1;
  2781                           ;BspEeprom.c: 90: u8 temp2;
  2782                           ;BspEeprom.c: 92: for(i=0;i<Size;i++)
  2783  0FC5  01A9               	clrf	BspEeprom_GetParam@i
  2784  0FC6                     l14829:	
  2785  0FC6  0822               	movf	BspEeprom_GetParam@Size,w
  2786  0FC7  0229               	subwf	BspEeprom_GetParam@i,w
  2787  0FC8  1803               	btfsc	3,0
  2788  0FC9  0008               	return
  2789  0FCA                     l4511:	
  2790                           ;BspEeprom.c: 95: {
  2791                           ;BspEeprom.c: 96: do{;}
  2792                           
  2793                           
  2794                           ;BspEeprom.c: 97: while(RD==1);
  2795  0FCA  1683               	bsf	3,5	;RP0=1, select bank3
  2796  0FCB  1703               	bsf	3,6	;RP1=1, select bank3
  2797  0FCC  180C               	btfsc	12,0
  2798  0FCD  2FCA               	goto	l4511
  2799                           
  2800                           ;BspEeprom.c: 98: EEADR=(StartAddr+i);
  2801  0FCE  1283               	bcf	3,5	;RP0=0, select bank0
  2802  0FCF  1303               	bcf	3,6	;RP1=0, select bank0
  2803  0FD0  0829               	movf	BspEeprom_GetParam@i,w
  2804  0FD1  0727               	addwf	BspEeprom_GetParam@StartAddr,w
  2805                           
  2806                           ;BspEeprom.c: 99: EEPGD=0;
  2807                           
  2808                           ;BspEeprom.c: 100: RD=1;
  2809                           
  2810                           ;BspEeprom.c: 102: while(RD==1);
  2811                           
  2812                           ;BspEeprom.c: 103: temp1 = EEDATL;
  2813  0FD2  27F5  158A         	fcall	PL4	;call to abstracted procedure
  2814  0FD4  00A6               	movwf	BspEeprom_GetParam@temp1
  2815  0FD5                     l14811:	
  2816                           
  2817                           ;BspEeprom.c: 106: while(RD==1);
  2818  0FD5  1683               	bsf	3,5	;RP0=1, select bank3
  2819  0FD6  1703               	bsf	3,6	;RP1=1, select bank3
  2820  0FD7  180C               	btfsc	12,0
  2821  0FD8  2FD5               	goto	l14811
  2822                           
  2823                           ;BspEeprom.c: 107: EEADR=(StartAddr+i);
  2824  0FD9  1283               	bcf	3,5	;RP0=0, select bank0
  2825  0FDA  1303               	bcf	3,6	;RP1=0, select bank0
  2826  0FDB  0829               	movf	BspEeprom_GetParam@i,w
  2827  0FDC  0727               	addwf	BspEeprom_GetParam@StartAddr,w
  2828                           
  2829                           ;BspEeprom.c: 108: EEPGD=0;
  2830                           
  2831                           ;BspEeprom.c: 109: RD=1;
  2832                           
  2833                           ;BspEeprom.c: 111: while(RD==1);
  2834                           
  2835                           ;BspEeprom.c: 112: temp2 = EEDATL;
  2836  0FDD  27F5  158A         	fcall	PL4	;call to abstracted procedure
  2837  0FDF  00A8               	movwf	BspEeprom_GetParam@temp2
  2838                           
  2839                           ;BspEeprom.c: 113: }while(temp1^temp2);
  2840  0FE0  0626               	xorwf	BspEeprom_GetParam@temp1,w
  2841  0FE1  1D03               	btfss	3,2
  2842  0FE2  2FCA               	goto	l4511
  2843                           
  2844                           ;BspEeprom.c: 115: *(pDes+i) = temp2;
  2845  0FE3  0828               	movf	BspEeprom_GetParam@temp2,w
  2846  0FE4  00A3               	movwf	??_BspEeprom_GetParam
  2847  0FE5  0829               	movf	BspEeprom_GetParam@i,w
  2848  0FE6  0720               	addwf	BspEeprom_GetParam@pDes,w
  2849  0FE7  00A4               	movwf	??_BspEeprom_GetParam+1
  2850  0FE8  0821               	movf	BspEeprom_GetParam@pDes+1,w
  2851  0FE9  1803               	skipnc
  2852  0FEA  3E01               	addlw	1
  2853  0FEB  00A5               	movwf	??_BspEeprom_GetParam+2
  2854  0FEC  0824               	movf	??_BspEeprom_GetParam+1,w
  2855  0FED  0084               	movwf	4
  2856  0FEE  1383               	bcf	3,7
  2857  0FEF  1825               	btfsc	??_BspEeprom_GetParam+2,0
  2858  0FF0  1783               	bsf	3,7
  2859  0FF1  0823               	movf	??_BspEeprom_GetParam,w
  2860  0FF2  0080               	movwf	0
  2861  0FF3  0AA9               	incf	BspEeprom_GetParam@i,f
  2862  0FF4  2FC6               	goto	l14829
  2863  0FF5                     __end_of_BspEeprom_GetParam:	
  2864  0FF5                     PL4:	
  2865  0FF5  1703               	bsf	3,6	;RP1=1, select bank2
  2866  0FF6  008D               	movwf	13	;volatile
  2867  0FF7  1683               	bsf	3,5	;RP0=1, select bank3
  2868  0FF8  138C               	bcf	12,7
  2869  0FF9  140C               	bsf	12,0
  2870  0FFA                     l14807:	
  2871  0FFA  180C               	btfsc	12,0
  2872  0FFB  2FFA               	goto	l14807
  2873  0FFC  1283               	bcf	3,5	;RP0=0, select bank2
  2874  0FFD  080C               	movf	12,w	;volatile
  2875  0FFE  1303               	bcf	3,6	;RP1=0, select bank0
  2876  0FFF  0008               	return
  2877                           
  2878                           	psect	text665
  2879  000F                     __ptext665:	
  2880 ;; =============== function _LcdMenu_Welcome ends ============
  2881                           
  2882                           
  2883 ;; *************** function _Lcd_ClrScreen *****************
  2884 ;; Defined at:
  2885 ;;		line 240 in file "Code/Driver/LCD/Lcd.c"
  2886 ;; Parameters:    Size  Location     Type
  2887 ;;		None
  2888 ;; Auto vars:     Size  Location     Type
  2889 ;;		None
  2890 ;; Return value:  Size  Location     Type
  2891 ;;		None               void
  2892 ;; Registers used:
  2893 ;;		wreg, status,2, status,0, pclath, cstack
  2894 ;; Tracked objects:
  2895 ;;		On entry : 60/0
  2896 ;;		On exit  : 60/0
  2897 ;;		Unchanged: FFE00/0
  2898 ;; Data sizes:     COMMON   BANK0   BANK1   BANK2
  2899 ;;      Params:         0       0       0       0
  2900 ;;      Locals:         0       0       0       0
  2901 ;;      Temps:          0       0       0       0
  2902 ;;      Totals:         0       0       0       0
  2903 ;;Total ram usage:        0 bytes
  2904 ;; Hardware stack levels used:    1
  2905 ;; Hardware stack levels required when called:    5
  2906 ;; This function calls:
  2907 ;;		_Lcd_WriteCmd
  2908 ;; This function is called by:
  2909 ;;		_main
  2910 ;; This function uses a non-reentrant model
  2911 ;;
  2912  000F                     _Lcd_ClrScreen:	
  2913                           
  2914                           ;Lcd.c: 241: Lcd_WriteCmd(0x01);
  2915                           
  2916                           ; Regs used in _Lcd_ClrScreen: [wreg+status,2+status,0+pclath+cstack]
  2917  000F  3001               	movlw	1
  2918  0010  2B97               	ljmp	_Lcd_WriteCmd
  2919  0011                     __end_of_Lcd_ClrScreen:	
  2920  0011                     __ptext664:	
  2921 ;; =============== function _LcdMenu_Normal ends ============
  2922                           
  2923                           
  2924 ;; *************** function _LcdMenu_Welcome *****************
  2925 ;; Defined at:
  2926 ;;		line 266 in file "Code/Driver/LCD/LcdMenu.c"
  2927 ;; Parameters:    Size  Location     Type
  2928 ;;		None
  2929 ;; Auto vars:     Size  Location     Type
  2930 ;;		None
  2931 ;; Return value:  Size  Location     Type
  2932 ;;		None               void
  2933 ;; Registers used:
  2934 ;;		wreg, fsr0l, fsr0h, status,2, status,0, btemp+1, pclath, cstack
  2935 ;; Tracked objects:
  2936 ;;		On entry : 60/0
  2937 ;;		On exit  : 160/0
  2938 ;;		Unchanged: FFE00/0
  2939 ;; Data sizes:     COMMON   BANK0   BANK1   BANK2
  2940 ;;      Params:         0       0       0       0
  2941 ;;      Locals:         0       0       0       0
  2942 ;;      Temps:          0       0       0       0
  2943 ;;      Totals:         0       0       0       0
  2944 ;;Total ram usage:        0 bytes
  2945 ;; Hardware stack levels used:    1
  2946 ;; Hardware stack levels required when called:    6
  2947 ;; This function calls:
  2948 ;;		_LcdMenu_VPrintf
  2949 ;;		_Lcd_StrDisp
  2950 ;; This function is called by:
  2951 ;;		_main
  2952 ;; This function uses a non-reentrant model
  2953 ;;
  2954  0011                     _LcdMenu_Welcome:	
  2955                           
  2956                           ;LcdMenu.c: 267: LcdMenu_VPrintf("");
  2957                           
  2958                           ; Regs used in _LcdMenu_Welcome: [wreg-fsr0h+status,2+status,0+btemp+1+pclath+cstack]
  2959  0011  30BA               	movlw	low (STR_1| (0+32768))
  2960  0012  00BD               	movwf	?_LcdMenu_VPrintf
  2961  0013  3088               	movlw	high (STR_1| (0+32768))
  2962  0014  00BE               	movwf	?_LcdMenu_VPrintf+1
  2963  0015  23A8  118A         	fcall	_LcdMenu_VPrintf
  2964                           
  2965                           ;LcdMenu.c: 268: Lcd_StrDisp(0,0,LcdMenu_StrTemp);
  2966  0017  262A  118A         	fcall	PL11	;call to abstracted procedure
  2967  0019  2357  118A         	fcall	_Lcd_StrDisp
  2968                           
  2969                           ;LcdMenu.c: 269: LcdMenu_VPrintf("05925100520");
  2970  001B  3000               	movlw	low (STR_2| (0+32768))
  2971  001C  00BD               	movwf	?_LcdMenu_VPrintf
  2972  001D  3089               	movlw	high (STR_2| (0+32768))
  2973  001E  00BE               	movwf	?_LcdMenu_VPrintf+1
  2974  001F  23A8  118A         	fcall	_LcdMenu_VPrintf
  2975                           
  2976                           ;LcdMenu.c: 270: Lcd_StrDisp(1,0,LcdMenu_StrTemp);
  2977  0021  2625  118A         	fcall	PL10	;call to abstracted procedure
  2978  0023  2B57               	ljmp	_Lcd_StrDisp
  2979  0024                     __end_of_LcdMenu_Welcome:	
  2980  0024                     __ptext667:	
  2981 ;; =============== function _Lcd_StrDisp ends ============
  2982                           
  2983                           
  2984 ;; *************** function _Lcd_Init *****************
  2985 ;; Defined at:
  2986 ;;		line 193 in file "Code/Driver/LCD/Lcd.c"
  2987 ;; Parameters:    Size  Location     Type
  2988 ;;		None
  2989 ;; Auto vars:     Size  Location     Type
  2990 ;;		None
  2991 ;; Return value:  Size  Location     Type
  2992 ;;		None               void
  2993 ;; Registers used:
  2994 ;;		wreg, status,2, status,0, pclath, cstack
  2995 ;; Tracked objects:
  2996 ;;		On entry : 17F/0
  2997 ;;		On exit  : 60/0
  2998 ;;		Unchanged: FFE00/0
  2999 ;; Data sizes:     COMMON   BANK0   BANK1   BANK2
  3000 ;;      Params:         0       0       0       0
  3001 ;;      Locals:         0       0       0       0
  3002 ;;      Temps:          0       0       0       0
  3003 ;;      Totals:         0       0       0       0
  3004 ;;Total ram usage:        0 bytes
  3005 ;; Hardware stack levels used:    1
  3006 ;; Hardware stack levels required when called:    5
  3007 ;; This function calls:
  3008 ;;		_Lcd_Delay
  3009 ;;		_Lcd_WriteCmd
  3010 ;; This function is called by:
  3011 ;;		_main
  3012 ;; This function uses a non-reentrant model
  3013 ;;
  3014  0024                     _Lcd_Init:	
  3015                           
  3016                           ;Lcd.c: 194: ANSEL = 0x00;
  3017                           
  3018                           ; Regs used in _Lcd_Init: [wreg+status,2+status,0+pclath+cstack]
  3019  0024  1683               	bsf	3,5	;RP0=1, select bank1
  3020  0025  0191               	clrf	17	;volatile
  3021                           
  3022                           ;Lcd.c: 195: Lcd_Delay(10);
  3023  0026  300A               	movlw	10
  3024  0027  1283               	bcf	3,5	;RP0=0, select bank0
  3025  0028  00A0               	movwf	?_Lcd_Delay
  3026  0029  01A1               	clrf	?_Lcd_Delay+1
  3027  002A  204B  118A         	fcall	_Lcd_Delay
  3028                           
  3029                           ;Lcd.c: 196: Lcd_WriteCmd(0x30);
  3030  002C  3030               	movlw	48
  3031  002D  2397  118A         	fcall	_Lcd_WriteCmd
  3032                           
  3033                           ;Lcd.c: 197: Lcd_Delay(1);
  3034  002F  01A0               	clrf	?_Lcd_Delay
  3035  0030  0AA0               	incf	?_Lcd_Delay,f
  3036  0031  01A1               	clrf	?_Lcd_Delay+1
  3037  0032  204B  118A         	fcall	_Lcd_Delay
  3038                           
  3039                           ;Lcd.c: 198: Lcd_WriteCmd(0x30);
  3040  0034  3030               	movlw	48
  3041  0035  2397  118A         	fcall	_Lcd_WriteCmd
  3042                           
  3043                           ;Lcd.c: 199: Lcd_Delay(1);
  3044  0037  01A0               	clrf	?_Lcd_Delay
  3045  0038  0AA0               	incf	?_Lcd_Delay,f
  3046  0039  01A1               	clrf	?_Lcd_Delay+1
  3047  003A  204B  118A         	fcall	_Lcd_Delay
  3048                           
  3049                           ;Lcd.c: 200: Lcd_WriteCmd(0x0c);
  3050  003C  300C               	movlw	12
  3051  003D  2397  118A         	fcall	_Lcd_WriteCmd
  3052                           
  3053                           ;Lcd.c: 201: Lcd_Delay(1);
  3054  003F  01A0               	clrf	?_Lcd_Delay
  3055  0040  0AA0               	incf	?_Lcd_Delay,f
  3056  0041  01A1               	clrf	?_Lcd_Delay+1
  3057  0042  204B  118A         	fcall	_Lcd_Delay
  3058                           
  3059                           ;Lcd.c: 202: Lcd_WriteCmd(0x01);
  3060  0044  3001               	movlw	1
  3061  0045  2397  118A         	fcall	_Lcd_WriteCmd
  3062                           
  3063                           ;Lcd.c: 203: Lcd_Delay(10);
  3064  0047  300A               	movlw	10
  3065  0048  00A0               	movwf	?_Lcd_Delay
  3066  0049  01A1               	clrf	?_Lcd_Delay+1
  3067  004A  284B               	ljmp	l14859
  3068  004B                     __end_of_Lcd_Init:	
  3069  004B                     __ptext684:	
  3070 ;; =============== function _SendByte ends ============
  3071                           
  3072                           
  3073 ;; *************** function _Lcd_Delay *****************
  3074 ;; Defined at:
  3075 ;;		line 38 in file "Code/Driver/LCD/Lcd.c"
  3076 ;; Parameters:    Size  Location     Type
  3077 ;;  t               2    0[BANK0 ] unsigned short 
  3078 ;; Auto vars:     Size  Location     Type
  3079 ;;  i               1    2[BANK0 ] unsigned char 
  3080 ;; Return value:  Size  Location     Type
  3081 ;;		None               void
  3082 ;; Registers used:
  3083 ;;		wreg, status,2, status,0
  3084 ;; Tracked objects:
  3085 ;;		On entry : 60/0
  3086 ;;		On exit  : 60/0
  3087 ;;		Unchanged: FFF9F/0
  3088 ;; Data sizes:     COMMON   BANK0   BANK1   BANK2
  3089 ;;      Params:         0       2       0       0
  3090 ;;      Locals:         0       1       0       0
  3091 ;;      Temps:          0       0       0       0
  3092 ;;      Totals:         0       3       0       0
  3093 ;;Total ram usage:        3 bytes
  3094 ;; Hardware stack levels used:    1
  3095 ;; Hardware stack levels required when called:    2
  3096 ;; This function calls:
  3097 ;;		Nothing
  3098 ;; This function is called by:
  3099 ;;		_Lcd_Init
  3100 ;;		_main
  3101 ;; This function uses a non-reentrant model
  3102 ;;
  3103  004B                     _Lcd_Delay:	
  3104  004B                     l14859:	
  3105                           ;Lcd.c: 39: u8 i;
  3106                           ;Lcd.c: 40: while(t--)
  3107                           
  3108                           ; Regs used in _Lcd_Delay: [wreg+status,2+status,0]
  3109                           
  3110  004B  3001               	movlw	1
  3111  004C  02A0               	subwf	Lcd_Delay@t,f
  3112  004D  3000               	movlw	0
  3113  004E  1C03               	skipc
  3114  004F  03A1               	decf	Lcd_Delay@t+1,f
  3115  0050  02A1               	subwf	Lcd_Delay@t+1,f
  3116  0051  0A20               	incf	Lcd_Delay@t,w
  3117  0052  1903               	skipnz
  3118  0053  0A21               	incf	Lcd_Delay@t+1,w
  3119  0054  1903               	btfsc	3,2
  3120  0055  0008               	return
  3121                           
  3122                           ;Lcd.c: 41: {
  3123                           ;Lcd.c: 42: for(i=0;i<125;i++);
  3124  0056  01A2               	clrf	Lcd_Delay@i
  3125  0057                     l14855:	
  3126  0057  307D               	movlw	125
  3127  0058  0AA2               	incf	Lcd_Delay@i,f
  3128  0059  0222               	subwf	Lcd_Delay@i,w
  3129  005A  1803               	btfsc	3,0
  3130  005B  284B               	goto	l14859
  3131  005C  2857               	goto	l14855
  3132  005D                     __end_of_Lcd_Delay:	
  3133  005D                     __ptext663:	
  3134 ;; =============== function _LcdMenu_Setup ends ============
  3135                           
  3136                           
  3137 ;; *************** function _LcdMenu_Normal *****************
  3138 ;; Defined at:
  3139 ;;		line 282 in file "Code/Driver/LCD/LcdMenu.c"
  3140 ;; Parameters:    Size  Location     Type
  3141 ;;  KeyEvent        1    wreg     unsigned char 
  3142 ;;  PaperNum        2   52[BANK0 ] unsigned short 
  3143 ;; Auto vars:     Size  Location     Type
  3144 ;;  KeyEvent        1   58[BANK0 ] unsigned char 
  3145 ;;  num4            1   57[BANK0 ] unsigned char 
  3146 ;;  num3            1   56[BANK0 ] unsigned char 
  3147 ;;  num2            1   55[BANK0 ] unsigned char 
  3148 ;;  num1            1   54[BANK0 ] unsigned char 
  3149 ;; Return value:  Size  Location     Type
  3150 ;;		None               void
  3151 ;; Registers used:
  3152 ;;		wreg, fsr0l, fsr0h, status,2, status,0, btemp+1, pclath, cstack
  3153 ;; Tracked objects:
  3154 ;;		On entry : 60/0
  3155 ;;		On exit  : 160/0
  3156 ;;		Unchanged: FFE00/0
  3157 ;; Data sizes:     COMMON   BANK0   BANK1   BANK2
  3158 ;;      Params:         0       2       0       0
  3159 ;;      Locals:         0       5       0       0
  3160 ;;      Temps:          0       0       0       0
  3161 ;;      Totals:         0       7       0       0
  3162 ;;Total ram usage:        7 bytes
  3163 ;; Hardware stack levels used:    1
  3164 ;; Hardware stack levels required when called:    6
  3165 ;; This function calls:
  3166 ;;		___lwmod
  3167 ;;		___lwdiv
  3168 ;;		_LcdMenu_VPrintf
  3169 ;;		_Lcd_StrDisp
  3170 ;;		_LcdMenu_CharMasK
  3171 ;; This function is called by:
  3172 ;;		_main
  3173 ;; This function uses a non-reentrant model
  3174 ;;
  3175  005D                     _LcdMenu_Normal:	
  3176                           
  3177                           ; Regs used in _LcdMenu_Normal: [wreg-fsr0h+status,2+status,0+btemp+1+pclath+cstack]
  3178                           ;LcdMenu_Normal@KeyEvent stored from wreg
  3179  005D  00DA               	movwf	LcdMenu_Normal@KeyEvent
  3180                           
  3181                           ;LcdMenu.c: 283: u8 num1,num2,num3,num4;
  3182                           ;LcdMenu.c: 284: static u8 Index = 0;
  3183                           ;LcdMenu.c: 285: static u8 FlashStop = 1;
  3184                           ;LcdMenu.c: 287: num4 = (PaperNum)%10;
  3185  005E  300A               	movlw	10
  3186  005F  00A7               	movwf	?___lwmod
  3187  0060  01A8               	clrf	?___lwmod+1
  3188  0061  0855               	movf	LcdMenu_Normal@PaperNum+1,w
  3189  0062  00AA               	movwf	?___lwmod+3
  3190  0063  0854               	movf	LcdMenu_Normal@PaperNum,w
  3191  0064  00A9               	movwf	?___lwmod+2
  3192  0065  2318  118A         	fcall	___lwmod
  3193  0067  0827               	movf	?___lwmod,w
  3194  0068  00D9               	movwf	LcdMenu_Normal@num4
  3195                           
  3196                           ;LcdMenu.c: 288: num3 = (PaperNum/10)%10;
  3197  0069  300A               	movlw	10
  3198  006A  00A7               	movwf	?___lwmod
  3199  006B  2649  118A         	fcall	PL15	;call to abstracted procedure
  3200  006D  2504  118A         	fcall	___lwdiv
  3201  006F  2651  118A         	fcall	PL25	;call to abstracted procedure
  3202  0071  2318  118A         	fcall	___lwmod
  3203  0073  0827               	movf	?___lwmod,w
  3204  0074  00D8               	movwf	LcdMenu_Normal@num3
  3205                           
  3206                           ;LcdMenu.c: 289: num2 = (PaperNum/100)%10;
  3207  0075  300A               	movlw	10
  3208  0076  00A7               	movwf	?___lwmod
  3209  0077  3064               	movlw	100
  3210  0078  2649  118A         	fcall	PL15	;call to abstracted procedure
  3211  007A  2504  118A         	fcall	___lwdiv
  3212  007C  2651  118A         	fcall	PL25	;call to abstracted procedure
  3213  007E  2318  118A         	fcall	___lwmod
  3214  0080  0827               	movf	?___lwmod,w
  3215  0081  00D7               	movwf	LcdMenu_Normal@num2
  3216                           
  3217                           ;LcdMenu.c: 290: num1 = (PaperNum/1000)%10;
  3218  0082  2641  118A         	fcall	PL14	;call to abstracted procedure
  3219  0084  0855               	movf	LcdMenu_Normal@PaperNum+1,w
  3220  0085  00A3               	movwf	?___lwdiv+3
  3221  0086  0854               	movf	LcdMenu_Normal@PaperNum,w
  3222  0087  00A2               	movwf	?___lwdiv+2
  3223  0088  2504  118A         	fcall	___lwdiv
  3224  008A  2651  118A         	fcall	PL25	;call to abstracted procedure
  3225  008C  2318  118A         	fcall	___lwmod
  3226  008E  0827               	movf	?___lwmod,w
  3227  008F  00D6               	movwf	LcdMenu_Normal@num1
  3228                           
  3229                           ;LcdMenu.c: 292: if(KeyEvent == EVENT_KEYSETUPS)
  3230  0090  085A               	movf	LcdMenu_Normal@KeyEvent,w
  3231  0091  3A0D               	xorlw	13
  3232  0092  1D03               	skipz
  3233  0093  2898               	goto	l15273
  3234                           
  3235                           ;LcdMenu.c: 293: {
  3236                           ;LcdMenu.c: 295: FlashStop = 1;
  3237  0094  1683               	bsf	3,5	;RP0=1, select bank1
  3238  0095  01EB               	clrf	LcdMenu_Normal@FlashStop^(0+128)
  3239  0096  0AEB               	incf	LcdMenu_Normal@FlashStop^(0+128),f
  3240                           
  3241                           ;LcdMenu.c: 296: Index = 0;
  3242  0097  01AE               	clrf	LcdMenu_Normal@Index^(0+128)
  3243  0098                     l15273:	
  3244                           
  3245                           ;LcdMenu.c: 297: }
  3246                           ;LcdMenu.c: 299: if(KeyEvent == EVENT_KEYUPS)
  3247  0098  1283               	bcf	3,5	;RP0=0, select bank0
  3248  0099  0B5A               	decfsz	LcdMenu_Normal@KeyEvent,w
  3249  009A  28A2               	goto	l15281
  3250                           
  3251                           ;LcdMenu.c: 300: {
  3252                           ;LcdMenu.c: 301: if(Index >= 1)
  3253  009B  1683               	bsf	3,5	;RP0=1, select bank1
  3254  009C  082E               	movf	LcdMenu_Normal@Index^(0+128),w
  3255  009D  1903               	btfsc	3,2
  3256  009E  28A1               	goto	l15279
  3257                           
  3258                           ;LcdMenu.c: 302: Index = 0;
  3259  009F  01AE               	clrf	LcdMenu_Normal@Index^(0+128)
  3260  00A0  28A2               	goto	l15281
  3261  00A1                     l15279:	
  3262                           
  3263                           ;LcdMenu.c: 303: else
  3264                           ;LcdMenu.c: 304: Index++;
  3265  00A1  0AAE               	incf	LcdMenu_Normal@Index^(0+128),f
  3266  00A2                     l15281:	
  3267                           
  3268                           ;LcdMenu.c: 305: }
  3269                           ;LcdMenu.c: 307: if(KeyEvent == EVENT_KEYDOWNS)
  3270  00A2  1283               	bcf	3,5	;RP0=0, select bank0
  3271  00A3  085A               	movf	LcdMenu_Normal@KeyEvent,w
  3272  00A4  3A03               	xorlw	3
  3273  00A5  1D03               	skipz
  3274  00A6  28AF               	goto	l15289
  3275                           
  3276                           ;LcdMenu.c: 308: {
  3277                           ;LcdMenu.c: 309: if(Index == 0)
  3278  00A7  1683               	bsf	3,5	;RP0=1, select bank1
  3279  00A8  08AE               	movf	LcdMenu_Normal@Index^(0+128),f
  3280  00A9  1D03               	skipz
  3281  00AA  28AE               	goto	l15287
  3282                           
  3283                           ;LcdMenu.c: 310: Index = 1;
  3284  00AB  01AE               	clrf	LcdMenu_Normal@Index^(0+128)
  3285  00AC  0AAE               	incf	LcdMenu_Normal@Index^(0+128),f
  3286  00AD  28AF               	goto	l15289
  3287  00AE                     l15287:	
  3288                           
  3289                           ;LcdMenu.c: 311: else
  3290                           ;LcdMenu.c: 312: Index--;
  3291  00AE  03AE               	decf	LcdMenu_Normal@Index^(0+128),f
  3292  00AF                     l15289:	
  3293                           
  3294                           ;LcdMenu.c: 313: }
  3295                           ;LcdMenu.c: 315: if(KeyEvent == EVENT_KEYENTERS)
  3296  00AF  1283               	bcf	3,5	;RP0=0, select bank0
  3297  00B0  085A               	movf	LcdMenu_Normal@KeyEvent,w
  3298  00B1  3A0F               	xorlw	15
  3299  00B2  1D03               	skipz
  3300  00B3  28BC               	goto	l15299
  3301                           
  3302                           ;LcdMenu.c: 316: {
  3303                           ;LcdMenu.c: 317: if (Index == 0)
  3304  00B4  1683               	bsf	3,5	;RP0=1, select bank1
  3305  00B5  08AE               	movf	LcdMenu_Normal@Index^(0+128),f
  3306  00B6  1D03               	skipz
  3307  00B7  28B9               	goto	l15295
  3308                           
  3309                           ;LcdMenu.c: 318: Index++;
  3310  00B8  0AAE               	incf	LcdMenu_Normal@Index^(0+128),f
  3311  00B9                     l15295:	
  3312                           
  3313                           ;LcdMenu.c: 319: if(Index == 1)
  3314  00B9  0B2E               	decfsz	LcdMenu_Normal@Index^(0+128),w
  3315  00BA  28BC               	goto	l15299
  3316                           
  3317                           ;LcdMenu.c: 320: FlashStop = 0;
  3318  00BB  01EB               	clrf	LcdMenu_Normal@FlashStop^(0+128)
  3319  00BC                     l15299:	
  3320                           
  3321                           ;LcdMenu.c: 322: }
  3322                           ;LcdMenu.c: 324: LcdMenu_VPrintf(":%dS",5);
  3323  00BC  30F3               	movlw	low (STR_3| (0+32768))
  3324  00BD  1283               	bcf	3,5	;RP0=0, select bank0
  3325  00BE  00BD               	movwf	?_LcdMenu_VPrintf
  3326  00BF  3088               	movlw	high (STR_3| (0+32768))
  3327  00C0  00BE               	movwf	?_LcdMenu_VPrintf+1
  3328  00C1  3005               	movlw	5
  3329  00C2  00BF               	movwf	?_LcdMenu_VPrintf+2
  3330  00C3  01C0               	clrf	?_LcdMenu_VPrintf+3
  3331  00C4  23A8  118A         	fcall	_LcdMenu_VPrintf
  3332                           
  3333                           ;LcdMenu.c: 325: Lcd_StrDisp(0,0,LcdMenu_StrTemp);
  3334  00C6  262A  118A         	fcall	PL11	;call to abstracted procedure
  3335  00C8  2357  118A         	fcall	_Lcd_StrDisp
  3336                           
  3337                           ;LcdMenu.c: 326: LcdMenu_VPrintf(":%d%d%d%d",num1,num2,num3,num4);
  3338  00CA  30CB               	movlw	low (STR_4| (0+32768))
  3339  00CB  00BD               	movwf	?_LcdMenu_VPrintf
  3340  00CC  3088               	movlw	high (STR_4| (0+32768))
  3341  00CD  00BE               	movwf	?_LcdMenu_VPrintf+1
  3342  00CE  0856               	movf	LcdMenu_Normal@num1,w
  3343  00CF  00BF               	movwf	?_LcdMenu_VPrintf+2
  3344  00D0  01C0               	clrf	?_LcdMenu_VPrintf+3
  3345  00D1  0857               	movf	LcdMenu_Normal@num2,w
  3346  00D2  00C1               	movwf	?_LcdMenu_VPrintf+4
  3347  00D3  01C2               	clrf	?_LcdMenu_VPrintf+5
  3348  00D4  0858               	movf	LcdMenu_Normal@num3,w
  3349  00D5  00C3               	movwf	?_LcdMenu_VPrintf+6
  3350  00D6  01C4               	clrf	?_LcdMenu_VPrintf+7
  3351  00D7  0859               	movf	LcdMenu_Normal@num4,w
  3352  00D8  00C5               	movwf	?_LcdMenu_VPrintf+8
  3353  00D9  01C6               	clrf	?_LcdMenu_VPrintf+9
  3354  00DA  23A8  118A         	fcall	_LcdMenu_VPrintf
  3355                           
  3356                           ;LcdMenu.c: 327: Lcd_StrDisp(1,0,LcdMenu_StrTemp);
  3357  00DC  2625  118A         	fcall	PL10	;call to abstracted procedure
  3358  00DE  2357  118A         	fcall	_Lcd_StrDisp
  3359                           
  3360                           ;LcdMenu.c: 329: LcdMenu_VPrintf(": ");
  3361  00E0  30E6               	movlw	low (STR_5| (0+32768))
  3362  00E1  00BD               	movwf	?_LcdMenu_VPrintf
  3363  00E2  3088               	movlw	high (STR_5| (0+32768))
  3364  00E3  00BE               	movwf	?_LcdMenu_VPrintf+1
  3365  00E4  23A8  118A         	fcall	_LcdMenu_VPrintf
  3366                           
  3367                           ;LcdMenu.c: 330: if(u8_Timer_Flash && Index==0 && FlashStop)
  3368  00E6  0831               	movf	_u8_Timer_Flash^(0+128),w
  3369  00E7  1903               	btfsc	3,2
  3370  00E8  28F7               	goto	l9203
  3371  00E9  08AE               	movf	LcdMenu_Normal@Index^(0+128),f
  3372  00EA  1D03               	skipz
  3373  00EB  28F7               	goto	l9203
  3374  00EC  086B               	movf	LcdMenu_Normal@FlashStop^(0+128),w
  3375  00ED  1903               	btfsc	3,2
  3376  00EE  28F7               	goto	l9203
  3377                           
  3378                           ;LcdMenu.c: 331: LcdMenu_CharMasK(" ",LcdMenu_StrTemp);
  3379  00EF  30ED               	movlw	low ((STR_5+7)| (0+32768))
  3380  00F0  1283               	bcf	3,5	;RP0=0, select bank0
  3381  00F1  00A0               	movwf	?_LcdMenu_CharMasK
  3382  00F2  3088               	movlw	high ((STR_5+7)| (0+32768))
  3383  00F3  00A1               	movwf	?_LcdMenu_CharMasK+1
  3384  00F4  30B2               	movlw	_LcdMenu_StrTemp& (0+255)
  3385  00F5  00A2               	movwf	?_LcdMenu_CharMasK+2
  3386  00F6  2593               	fcall	_LcdMenu_CharMasK
  3387  00F7                     l9203:	
  3388                           
  3389                           ;LcdMenu.c: 332: Lcd_StrDisp(2,0,LcdMenu_StrTemp);
  3390  00F7  158A  278B  118A   	fcall	PL18	;call to abstracted procedure
  3391  00FA  2357  118A         	fcall	_Lcd_StrDisp
  3392                           
  3393                           ;LcdMenu.c: 334: LcdMenu_VPrintf(": ");
  3394  00FC  30D9               	movlw	low (STR_7| (0+32768))
  3395  00FD  00BD               	movwf	?_LcdMenu_VPrintf
  3396  00FE  3088               	movlw	high (STR_7| (0+32768))
  3397  00FF  00BE               	movwf	?_LcdMenu_VPrintf+1
  3398  0100  23A8  118A         	fcall	_LcdMenu_VPrintf
  3399                           
  3400                           ;LcdMenu.c: 335: if(u8_Timer_Flash && Index==1 && FlashStop)
  3401  0102  0831               	movf	_u8_Timer_Flash^(0+128),w
  3402  0103  1903               	btfsc	3,2
  3403  0104  2912               	goto	l9204
  3404  0105  0B2E               	decfsz	LcdMenu_Normal@Index^(0+128),w
  3405  0106  2912               	goto	l9204
  3406  0107  086B               	movf	LcdMenu_Normal@FlashStop^(0+128),w
  3407  0108  1903               	btfsc	3,2
  3408  0109  2912               	goto	l9204
  3409                           
  3410                           ;LcdMenu.c: 336: LcdMenu_CharMasK(" ",LcdMenu_StrTemp);
  3411  010A  30E0               	movlw	low ((STR_7+7)| (0+32768))
  3412  010B  1283               	bcf	3,5	;RP0=0, select bank0
  3413  010C  00A0               	movwf	?_LcdMenu_CharMasK
  3414  010D  3088               	movlw	high ((STR_7+7)| (0+32768))
  3415  010E  00A1               	movwf	?_LcdMenu_CharMasK+1
  3416  010F  30B2               	movlw	_LcdMenu_StrTemp& (0+255)
  3417  0110  00A2               	movwf	?_LcdMenu_CharMasK+2
  3418  0111  2593               	fcall	_LcdMenu_CharMasK
  3419  0112                     l9204:	
  3420                           
  3421                           ;LcdMenu.c: 337: Lcd_StrDisp(3,0,LcdMenu_StrTemp);
  3422  0112  158A  2790  118A   	fcall	PL19	;call to abstracted procedure
  3423  0115  2B57               	ljmp	_Lcd_StrDisp
  3424  0116                     __end_of_LcdMenu_Normal:	
  3425  0116                     __ptext662:	
  3426 ;; =============== function _LcdMenu_Factory ends ============
  3427                           
  3428                           
  3429 ;; *************** function _LcdMenu_Setup *****************
  3430 ;; Defined at:
  3431 ;;		line 349 in file "Code/Driver/LCD/LcdMenu.c"
  3432 ;; Parameters:    Size  Location     Type
  3433 ;;  KeyEvent        1    wreg     unsigned char 
  3434 ;;  pParam          1   52[BANK0 ] PTR struct .
  3435 ;;		 -> SetupParam(6), 
  3436 ;; Auto vars:     Size  Location     Type
  3437 ;;  KeyEvent        1   73[BANK0 ] unsigned char 
  3438 ;;  num            12   61[BANK0 ] unsigned char [4][3]
  3439 ;;  Change          1    0        unsigned char 
  3440 ;; Return value:  Size  Location     Type
  3441 ;;		None               void
  3442 ;; Registers used:
  3443 ;;		wreg, fsr0l, fsr0h, status,2, status,0, btemp+1, pclath, cstack
  3444 ;; Tracked objects:
  3445 ;;		On entry : 60/0
  3446 ;;		On exit  : 160/0
  3447 ;;		Unchanged: FFE00/0
  3448 ;; Data sizes:     COMMON   BANK0   BANK1   BANK2
  3449 ;;      Params:         0       1       0       0
  3450 ;;      Locals:         0      13       0       0
  3451 ;;      Temps:          0       8       0       0
  3452 ;;      Totals:         0      22       0       0
  3453 ;;Total ram usage:       22 bytes
  3454 ;; Hardware stack levels used:    1
  3455 ;; Hardware stack levels required when called:    6
  3456 ;; This function calls:
  3457 ;;		___lwmod
  3458 ;;		___lwdiv
  3459 ;;		___lbmod
  3460 ;;		___lbdiv
  3461 ;;		_BspEeprom_SaveParam
  3462 ;;		___wmul
  3463 ;;		___bmul
  3464 ;;		_LcdMenu_VPrintf
  3465 ;;		_Lcd_StrDisp
  3466 ;;		_LcdMenu_NumMasK
  3467 ;; This function is called by:
  3468 ;;		_main
  3469 ;; This function uses a non-reentrant model
  3470 ;;
  3471  0116                     _LcdMenu_Setup:	
  3472                           
  3473                           ; Regs used in _LcdMenu_Setup: [wreg-fsr0h+status,2+status,0+btemp+1+pclath+cstack]
  3474                           ;LcdMenu_Setup@KeyEvent stored from wreg
  3475  0116  00E9               	movwf	LcdMenu_Setup@KeyEvent
  3476                           
  3477                           ;LcdMenu.c: 351: static u8 Section = 0;
  3478                           ;LcdMenu.c: 352: static u8 Index = 0;
  3479                           ;LcdMenu.c: 353: static u8 FlashStop = 1;
  3480                           ;LcdMenu.c: 354: u8 num[3][4] ;
  3481                           ;LcdMenu.c: 356: num[0][3] = (pParam->PaperNum)%10;
  3482  0117  300A               	movlw	10
  3483  0118  00A7               	movwf	?___lwmod
  3484  0119  01A8               	clrf	?___lwmod+1
  3485  011A  0854               	movf	LcdMenu_Setup@pParam,w
  3486  011B  0084               	movwf	4
  3487  011C  1383               	bcf	3,7	;select IRP bank0
  3488  011D  0800               	movf	0,w
  3489  011E  00A9               	movwf	?___lwmod+2
  3490  011F  0A84               	incf	4,f
  3491  0120  0800               	movf	0,w
  3492  0121  00AA               	movwf	?___lwmod+3
  3493  0122  2318  118A         	fcall	___lwmod
  3494  0124  0827               	movf	?___lwmod,w
  3495  0125  00E0               	movwf	LcdMenu_Setup@num+3
  3496                           
  3497                           ;LcdMenu.c: 357: num[0][2] = (pParam->PaperNum/10)%10;
  3498  0126  300A               	movlw	10
  3499  0127  00A7               	movwf	?___lwmod
  3500  0128  01A8               	clrf	?___lwmod+1
  3501  0129  00A0               	movwf	?___lwdiv
  3502  012A  01A1               	clrf	?___lwdiv+1
  3503  012B  2617  118A         	fcall	PL7	;call to abstracted procedure
  3504  012D  2504  118A         	fcall	___lwdiv
  3505  012F  2651  118A         	fcall	PL25	;call to abstracted procedure
  3506  0131  2318  118A         	fcall	___lwmod
  3507  0133  0827               	movf	?___lwmod,w
  3508  0134  00DF               	movwf	LcdMenu_Setup@num+2
  3509                           
  3510                           ;LcdMenu.c: 358: num[0][1] = (pParam->PaperNum/100)%10;
  3511  0135  300A               	movlw	10
  3512  0136  00A7               	movwf	?___lwmod
  3513  0137  3064               	movlw	100
  3514  0138  01A8               	clrf	?___lwmod+1
  3515  0139  00A0               	movwf	?___lwdiv
  3516  013A  01A1               	clrf	?___lwdiv+1
  3517  013B  2617  118A         	fcall	PL7	;call to abstracted procedure
  3518  013D  2504  118A         	fcall	___lwdiv
  3519  013F  2651  118A         	fcall	PL25	;call to abstracted procedure
  3520  0141  2318  118A         	fcall	___lwmod
  3521  0143  0827               	movf	?___lwmod,w
  3522  0144  00DE               	movwf	LcdMenu_Setup@num+1
  3523                           
  3524                           ;LcdMenu.c: 359: num[0][0] = (pParam->PaperNum/1000)%10;
  3525  0145  2641  118A         	fcall	PL14	;call to abstracted procedure
  3526  0147  2617  118A         	fcall	PL7	;call to abstracted procedure
  3527  0149  2504  118A         	fcall	___lwdiv
  3528  014B  2651  118A         	fcall	PL25	;call to abstracted procedure
  3529  014D  2318  118A         	fcall	___lwmod
  3530  014F  0827               	movf	?___lwmod,w
  3531  0150  00DD               	movwf	LcdMenu_Setup@num
  3532                           
  3533                           ;LcdMenu.c: 361: num[1][3] = (pParam->ShuaLiao)%10;
  3534  0151  300A               	movlw	10
  3535  0152  00A4               	movwf	?___lbmod
  3536  0153  266D  118A         	fcall	PL32	;call to abstracted procedure
  3537  0155  22FC  118A         	fcall	___lbmod
  3538  0157  00E4               	movwf	LcdMenu_Setup@num+7
  3539                           
  3540                           ;LcdMenu.c: 362: num[1][2] = (pParam->ShuaLiao/10)%10;
  3541  0158  300A               	movlw	10
  3542  0159  00A4               	movwf	?___lbmod
  3543  015A  00A0               	movwf	?___lbdiv
  3544  015B  266D  118A         	fcall	PL32	;call to abstracted procedure
  3545  015D  233C  118A         	fcall	___lbdiv
  3546  015F  22FC  118A         	fcall	___lbmod
  3547  0161  00E3               	movwf	LcdMenu_Setup@num+6
  3548                           
  3549                           ;LcdMenu.c: 363: num[1][1] = (pParam->ShuaJiao)%10;
  3550  0162  300A               	movlw	10
  3551  0163  00A4               	movwf	?___lbmod
  3552  0164  2672  118A         	fcall	PL34	;call to abstracted procedure
  3553  0166  22FC  118A         	fcall	___lbmod
  3554  0168  00E2               	movwf	LcdMenu_Setup@num+5
  3555                           
  3556                           ;LcdMenu.c: 364: num[1][0] = (pParam->ShuaJiao/10)%10;
  3557  0169  300A               	movlw	10
  3558  016A  00A4               	movwf	?___lbmod
  3559  016B  00A0               	movwf	?___lbdiv
  3560  016C  2672  118A         	fcall	PL34	;call to abstracted procedure
  3561  016E  233C  118A         	fcall	___lbdiv
  3562  0170  22FC  118A         	fcall	___lbmod
  3563  0172  00E1               	movwf	LcdMenu_Setup@num+4
  3564                           
  3565                           ;LcdMenu.c: 366: num[2][3] = (pParam->Back)%10;
  3566  0173  300A               	movlw	10
  3567  0174  00A4               	movwf	?___lbmod
  3568  0175  2681  118A         	fcall	PL37	;call to abstracted procedure
  3569  0177  22FC  118A         	fcall	___lbmod
  3570  0179  00E8               	movwf	LcdMenu_Setup@num+11
  3571                           
  3572                           ;LcdMenu.c: 367: num[2][2] = (pParam->Back/10)%10;
  3573  017A  300A               	movlw	10
  3574  017B  00A4               	movwf	?___lbmod
  3575  017C  00A0               	movwf	?___lbdiv
  3576  017D  2681  118A         	fcall	PL37	;call to abstracted procedure
  3577  017F  233C  118A         	fcall	___lbdiv
  3578  0181  22FC  118A         	fcall	___lbmod
  3579  0183  00E7               	movwf	LcdMenu_Setup@num+10
  3580                           
  3581                           ;LcdMenu.c: 368: num[2][1] = (pParam->Startup)%10;
  3582  0184  300A               	movlw	10
  3583  0185  00A4               	movwf	?___lbmod
  3584  0186  2677  118A         	fcall	PL35	;call to abstracted procedure
  3585  0188  22FC  118A         	fcall	___lbmod
  3586  018A  00E6               	movwf	LcdMenu_Setup@num+9
  3587                           
  3588                           ;LcdMenu.c: 369: num[2][0] = (pParam->Startup/10)%10;
  3589  018B  300A               	movlw	10
  3590  018C  00A4               	movwf	?___lbmod
  3591  018D  00A0               	movwf	?___lbdiv
  3592  018E  2677  118A         	fcall	PL35	;call to abstracted procedure
  3593  0190  233C  118A         	fcall	___lbdiv
  3594  0192  22FC  118A         	fcall	___lbmod
  3595  0194  00E5               	movwf	LcdMenu_Setup@num+8
  3596                           
  3597                           ;LcdMenu.c: 371: if(KeyEvent == EVENT_KEYSETUPS)
  3598  0195  0869               	movf	LcdMenu_Setup@KeyEvent,w
  3599  0196  3A0D               	xorlw	13
  3600  0197  1D03               	skipz
  3601  0198  299E               	goto	l15333
  3602                           
  3603                           ;LcdMenu.c: 372: {
  3604                           ;LcdMenu.c: 374: FlashStop = 1;
  3605  0199  1683               	bsf	3,5	;RP0=1, select bank1
  3606  019A  01EC               	clrf	LcdMenu_Setup@FlashStop^(0+128)
  3607  019B  0AEC               	incf	LcdMenu_Setup@FlashStop^(0+128),f
  3608                           
  3609                           ;LcdMenu.c: 375: Index = 0;
  3610  019C  01AF               	clrf	LcdMenu_Setup@Index^(0+128)
  3611                           
  3612                           ;LcdMenu.c: 376: Section = 0;
  3613  019D  01B0               	clrf	LcdMenu_Setup@Section^(0+128)
  3614  019E                     l15333:	
  3615                           
  3616                           ;LcdMenu.c: 377: }
  3617                           ;LcdMenu.c: 379: if(KeyEvent == EVENT_KEYDOWNS)
  3618  019E  1283               	bcf	3,5	;RP0=0, select bank0
  3619  019F  0869               	movf	LcdMenu_Setup@KeyEvent,w
  3620  01A0  3A03               	xorlw	3
  3621  01A1  1D03               	skipz
  3622  01A2  29AB               	goto	l15341
  3623                           
  3624                           ;LcdMenu.c: 380: {
  3625                           ;LcdMenu.c: 381: if(Index >= 2)
  3626  01A3  3002               	movlw	2
  3627  01A4  1683               	bsf	3,5	;RP0=1, select bank1
  3628  01A5  022F               	subwf	LcdMenu_Setup@Index^(0+128),w
  3629  01A6  1C03               	skipc
  3630  01A7  29AA               	goto	l15339
  3631                           
  3632                           ;LcdMenu.c: 382: Index = 0;
  3633  01A8  01AF               	clrf	LcdMenu_Setup@Index^(0+128)
  3634  01A9  29AB               	goto	l15341
  3635  01AA                     l15339:	
  3636                           
  3637                           ;LcdMenu.c: 383: else
  3638                           ;LcdMenu.c: 384: Index++;
  3639  01AA  0AAF               	incf	LcdMenu_Setup@Index^(0+128),f
  3640  01AB                     l15341:	
  3641                           
  3642                           ;LcdMenu.c: 385: }
  3643                           ;LcdMenu.c: 387: if(KeyEvent == EVENT_KEYUPS)
  3644  01AB  1283               	bcf	3,5	;RP0=0, select bank0
  3645  01AC  0B69               	decfsz	LcdMenu_Setup@KeyEvent,w
  3646  01AD  29B6               	goto	l15349
  3647                           
  3648                           ;LcdMenu.c: 388: {
  3649                           ;LcdMenu.c: 389: if(Index == 0)
  3650  01AE  1683               	bsf	3,5	;RP0=1, select bank1
  3651  01AF  08AF               	movf	LcdMenu_Setup@Index^(0+128),f
  3652  01B0  1D03               	skipz
  3653  01B1  29B5               	goto	l15347
  3654                           
  3655                           ;LcdMenu.c: 390: Index = 2;
  3656  01B2  3002               	movlw	2
  3657  01B3  00AF               	movwf	LcdMenu_Setup@Index^(0+128)
  3658  01B4  29B6               	goto	l15349
  3659  01B5                     l15347:	
  3660                           
  3661                           ;LcdMenu.c: 391: else
  3662                           ;LcdMenu.c: 392: Index--;
  3663  01B5  03AF               	decf	LcdMenu_Setup@Index^(0+128),f
  3664  01B6                     l15349:	
  3665                           
  3666                           ;LcdMenu.c: 393: }
  3667                           ;LcdMenu.c: 395: if(KeyEvent == EVENT_KEYRIGHTS)
  3668  01B6  1283               	bcf	3,5	;RP0=0, select bank0
  3669  01B7  0869               	movf	LcdMenu_Setup@KeyEvent,w
  3670  01B8  3A07               	xorlw	7
  3671  01B9  1D03               	skipz
  3672  01BA  29C3               	goto	l15357
  3673                           
  3674                           ;LcdMenu.c: 396: {
  3675                           ;LcdMenu.c: 397: if(Section >= 3)
  3676  01BB  3003               	movlw	3
  3677  01BC  1683               	bsf	3,5	;RP0=1, select bank1
  3678  01BD  0230               	subwf	LcdMenu_Setup@Section^(0+128),w
  3679  01BE  1C03               	skipc
  3680  01BF  29C2               	goto	l15355
  3681                           
  3682                           ;LcdMenu.c: 398: Section = 0;
  3683  01C0  01B0               	clrf	LcdMenu_Setup@Section^(0+128)
  3684  01C1  29C3               	goto	l15357
  3685  01C2                     l15355:	
  3686                           
  3687                           ;LcdMenu.c: 399: else
  3688                           ;LcdMenu.c: 400: Section++;
  3689  01C2  0AB0               	incf	LcdMenu_Setup@Section^(0+128),f
  3690  01C3                     l15357:	
  3691                           
  3692                           ;LcdMenu.c: 401: }
  3693                           ;LcdMenu.c: 403: if(KeyEvent == EVENT_KEYLEFTS)
  3694  01C3  1283               	bcf	3,5	;RP0=0, select bank0
  3695  01C4  0869               	movf	LcdMenu_Setup@KeyEvent,w
  3696  01C5  3A05               	xorlw	5
  3697  01C6  1D03               	skipz
  3698  01C7  29D0               	goto	l15365
  3699                           
  3700                           ;LcdMenu.c: 404: {
  3701                           ;LcdMenu.c: 405: if(Section == 0)
  3702  01C8  1683               	bsf	3,5	;RP0=1, select bank1
  3703  01C9  08B0               	movf	LcdMenu_Setup@Section^(0+128),f
  3704  01CA  1D03               	skipz
  3705  01CB  29CF               	goto	l15363
  3706                           
  3707                           ;LcdMenu.c: 406: Section = 3;
  3708  01CC  3003               	movlw	3
  3709  01CD  00B0               	movwf	LcdMenu_Setup@Section^(0+128)
  3710  01CE  29D0               	goto	l15365
  3711  01CF                     l15363:	
  3712                           
  3713                           ;LcdMenu.c: 407: else
  3714                           ;LcdMenu.c: 408: Section--;
  3715  01CF  03B0               	decf	LcdMenu_Setup@Section^(0+128),f
  3716  01D0                     l15365:	
  3717                           
  3718                           ;LcdMenu.c: 409: }
  3719                           ;LcdMenu.c: 411: if(KeyEvent == EVENT_KEYPLUSS)
  3720  01D0  1283               	bcf	3,5	;RP0=0, select bank0
  3721  01D1  0869               	movf	LcdMenu_Setup@KeyEvent,w
  3722  01D2  3A09               	xorlw	9
  3723  01D3  1D03               	skipz
  3724  01D4  29E5               	goto	l15373
  3725                           
  3726                           ;LcdMenu.c: 412: {
  3727                           ;LcdMenu.c: 413: if(num[Index][Section] >= 9)
  3728  01D5  1683               	bsf	3,5	;RP0=1, select bank1
  3729  01D6  25F9  118A         	fcall	PL2	;call to abstracted procedure
  3730  01D8  3009               	movlw	9
  3731  01D9  0200               	subwf	0,w
  3732  01DA  1C03               	skipc
  3733  01DB  29E1               	goto	l15371
  3734                           
  3735                           ;LcdMenu.c: 414: num[Index][Section] = 0;
  3736  01DC  1683               	bsf	3,5	;RP0=1, select bank1
  3737  01DD  25F9  118A         	fcall	PL2	;call to abstracted procedure
  3738  01DF  0180               	clrf	0
  3739  01E0  29E5               	goto	l15373
  3740  01E1                     l15371:	
  3741                           
  3742                           ;LcdMenu.c: 415: else
  3743                           ;LcdMenu.c: 416: num[Index][Section]++;
  3744  01E1  1683               	bsf	3,5	;RP0=1, select bank1
  3745  01E2  25F9  118A         	fcall	PL2	;call to abstracted procedure
  3746  01E4  0A80               	incf	0,f
  3747  01E5                     l15373:	
  3748                           
  3749                           ;LcdMenu.c: 418: }
  3750                           ;LcdMenu.c: 420: if(KeyEvent == EVENT_KEYMINUSS)
  3751  01E5  0869               	movf	LcdMenu_Setup@KeyEvent,w
  3752  01E6  3A0B               	xorlw	11
  3753  01E7  1D03               	skipz
  3754  01E8  29F9               	goto	l15381
  3755                           
  3756                           ;LcdMenu.c: 421: {
  3757                           ;LcdMenu.c: 422: if(num[Index][Section] > 0)
  3758  01E9  1683               	bsf	3,5	;RP0=1, select bank1
  3759  01EA  25F9  118A         	fcall	PL2	;call to abstracted procedure
  3760  01EC  0880               	movf	0,f
  3761  01ED  1903               	skipnz
  3762  01EE  29F4               	goto	l15379
  3763                           
  3764                           ;LcdMenu.c: 423: num[Index][Section]--;
  3765  01EF  1683               	bsf	3,5	;RP0=1, select bank1
  3766  01F0  25F9  118A         	fcall	PL2	;call to abstracted procedure
  3767  01F2  0380               	decf	0,f
  3768  01F3  29F9               	goto	l15381
  3769  01F4                     l15379:	
  3770                           
  3771                           ;LcdMenu.c: 424: else
  3772                           ;LcdMenu.c: 425: num[Index][Section] = 9;
  3773  01F4  1683               	bsf	3,5	;RP0=1, select bank1
  3774  01F5  25F9  118A         	fcall	PL2	;call to abstracted procedure
  3775  01F7  3009               	movlw	9
  3776  01F8  0080               	movwf	0
  3777  01F9                     l15381:	
  3778                           
  3779                           ;LcdMenu.c: 427: }
  3780                           ;LcdMenu.c: 429: if(KeyEvent == EVENT_KEYENTERS)
  3781  01F9  0869               	movf	LcdMenu_Setup@KeyEvent,w
  3782  01FA  3A0F               	xorlw	15
  3783  01FB  1D03               	skipz
  3784  01FC  2A0F               	goto	l15391
  3785                           
  3786                           ;LcdMenu.c: 430: {
  3787                           ;LcdMenu.c: 431: if(Index >= 2)
  3788  01FD  3002               	movlw	2
  3789  01FE  1683               	bsf	3,5	;RP0=1, select bank1
  3790  01FF  022F               	subwf	LcdMenu_Setup@Index^(0+128),w
  3791  0200  1C03               	skipc
  3792  0201  2A04               	goto	l15387
  3793                           
  3794                           ;LcdMenu.c: 432: FlashStop = 0;
  3795  0202  01EC               	clrf	LcdMenu_Setup@FlashStop^(0+128)
  3796  0203  2A05               	goto	l15389
  3797  0204                     l15387:	
  3798                           
  3799                           ;LcdMenu.c: 433: else
  3800                           ;LcdMenu.c: 434: Index++;
  3801  0204  0AAF               	incf	LcdMenu_Setup@Index^(0+128),f
  3802  0205                     l15389:	
  3803                           
  3804                           ;LcdMenu.c: 436: BspEeprom_SaveParam(0,(const u8 *)pParam,sizeof(t_SetupParam));
  3805  0205  1283               	bcf	3,5	;RP0=0, select bank0
  3806  0206  0854               	movf	LcdMenu_Setup@pParam,w
  3807  0207  00A0               	movwf	?_BspEeprom_SaveParam
  3808  0208  3006               	movlw	6
  3809  0209  01A1               	clrf	?_BspEeprom_SaveParam+1
  3810  020A  00A2               	movwf	?_BspEeprom_SaveParam+2
  3811  020B  3000               	movlw	0
  3812  020C  158A  2720  118A   	fcall	_BspEeprom_SaveParam
  3813  020F                     l15391:	
  3814                           
  3815                           ;LcdMenu.c: 437: }
  3816                           ;LcdMenu.c: 439: pParam->PaperNum = num[0][0]*1000+num[0][1]*100+num[0][2]*10+num[0][3];
  3817  020F  085D               	movf	LcdMenu_Setup@num,w
  3818  0210  00A0               	movwf	?___wmul
  3819  0211  30E8               	movlw	232
  3820  0212  01A1               	clrf	?___wmul+1
  3821  0213  00A2               	movwf	?___wmul+2
  3822  0214  3003               	movlw	3
  3823  0215  00A3               	movwf	?___wmul+3
  3824  0216  237E  118A         	fcall	___wmul
  3825  0218  0820               	movf	?___wmul,w
  3826  0219  00D5               	movwf	??_LcdMenu_Setup
  3827  021A  0821               	movf	?___wmul+1,w
  3828  021B  00D6               	movwf	??_LcdMenu_Setup+1
  3829  021C  085E               	movf	LcdMenu_Setup@num+1,w
  3830  021D  00A0               	movwf	?___wmul
  3831  021E  3064               	movlw	100
  3832  021F  01A1               	clrf	?___wmul+1
  3833  0220  00A2               	movwf	?___wmul+2
  3834  0221  01A3               	clrf	?___wmul+3
  3835  0222  237E  118A         	fcall	___wmul
  3836  0224  0820               	movf	?___wmul,w
  3837  0225  0755               	addwf	??_LcdMenu_Setup,w
  3838  0226  00D7               	movwf	??_LcdMenu_Setup+2
  3839  0227  0821               	movf	?___wmul+1,w
  3840  0228  1803               	skipnc
  3841  0229  0A21               	incf	?___wmul+1,w
  3842  022A  0756               	addwf	??_LcdMenu_Setup+1,w
  3843  022B  00D8               	movwf	??_LcdMenu_Setup+3
  3844  022C  085F               	movf	LcdMenu_Setup@num+2,w
  3845  022D  00A0               	movwf	?___wmul
  3846  022E  300A               	movlw	10
  3847  022F  01A1               	clrf	?___wmul+1
  3848  0230  00A2               	movwf	?___wmul+2
  3849  0231  01A3               	clrf	?___wmul+3
  3850  0232  237E               	fcall	___wmul
  3851  0233  0820               	movf	?___wmul,w
  3852  0234  0757               	addwf	??_LcdMenu_Setup+2,w
  3853  0235  00D9               	movwf	??_LcdMenu_Setup+4
  3854  0236  0821               	movf	?___wmul+1,w
  3855  0237  1803               	skipnc
  3856  0238  0A21               	incf	?___wmul+1,w
  3857  0239  0758               	addwf	??_LcdMenu_Setup+3,w
  3858  023A  00DA               	movwf	??_LcdMenu_Setup+5
  3859  023B  0860               	movf	LcdMenu_Setup@num+3,w
  3860  023C  0759               	addwf	??_LcdMenu_Setup+4,w
  3861  023D  00DB               	movwf	??_LcdMenu_Setup+6
  3862  023E  3000               	movlw	0
  3863  023F  1803               	skipnc
  3864  0240  3001               	movlw	1
  3865  0241  075A               	addwf	??_LcdMenu_Setup+5,w
  3866  0242  00DC               	movwf	??_LcdMenu_Setup+7
  3867  0243  0854               	movf	LcdMenu_Setup@pParam,w
  3868  0244  0084               	movwf	4
  3869  0245  085B               	movf	??_LcdMenu_Setup+6,w
  3870  0246  1383               	bcf	3,7	;select IRP bank0
  3871  0247  0080               	movwf	0
  3872  0248  0A84               	incf	4,f
  3873  0249  085C               	movf	??_LcdMenu_Setup+7,w
  3874  024A  0080               	movwf	0
  3875                           
  3876                           ;LcdMenu.c: 440: pParam->ShuaJiao = num[1][0]*10+num[1][1];
  3877  024B  0854               	movf	LcdMenu_Setup@pParam,w
  3878  024C  3E02               	addlw	2
  3879  024D  0084               	movwf	4
  3880  024E  300A               	movlw	10
  3881  024F  00A0               	movwf	?___bmul
  3882  0250  0861               	movf	LcdMenu_Setup@num+4,w
  3883  0251  158A  26DA  118A   	fcall	___bmul
  3884  0254  00D5               	movwf	??_LcdMenu_Setup
  3885  0255  0862               	movf	LcdMenu_Setup@num+5,w
  3886  0256  0755               	addwf	??_LcdMenu_Setup,w
  3887  0257  0080               	movwf	0
  3888                           
  3889                           ;LcdMenu.c: 441: pParam->ShuaLiao = num[1][2]*10+num[1][3];
  3890  0258  0854               	movf	LcdMenu_Setup@pParam,w
  3891  0259  3E03               	addlw	3
  3892  025A  0084               	movwf	4
  3893  025B  300A               	movlw	10
  3894  025C  00A0               	movwf	?___bmul
  3895  025D  0863               	movf	LcdMenu_Setup@num+6,w
  3896  025E  158A  26DA  118A   	fcall	___bmul
  3897  0261  00D5               	movwf	??_LcdMenu_Setup
  3898  0262  0864               	movf	LcdMenu_Setup@num+7,w
  3899  0263  0755               	addwf	??_LcdMenu_Setup,w
  3900  0264  0080               	movwf	0
  3901                           
  3902                           ;LcdMenu.c: 442: pParam->Startup = num[2][0]*10+num[2][1];
  3903  0265  0854               	movf	LcdMenu_Setup@pParam,w
  3904  0266  3E04               	addlw	4
  3905  0267  0084               	movwf	4
  3906  0268  300A               	movlw	10
  3907  0269  00A0               	movwf	?___bmul
  3908  026A  0865               	movf	LcdMenu_Setup@num+8,w
  3909  026B  158A  26DA  118A   	fcall	___bmul
  3910  026E  00D5               	movwf	??_LcdMenu_Setup
  3911  026F  0866               	movf	LcdMenu_Setup@num+9,w
  3912  0270  0755               	addwf	??_LcdMenu_Setup,w
  3913  0271  0080               	movwf	0
  3914                           
  3915                           ;LcdMenu.c: 443: pParam->Back = num[2][2]*10+num[2][3];
  3916  0272  0854               	movf	LcdMenu_Setup@pParam,w
  3917  0273  3E05               	addlw	5
  3918  0274  0084               	movwf	4
  3919  0275  300A               	movlw	10
  3920  0276  00A0               	movwf	?___bmul
  3921  0277  0867               	movf	LcdMenu_Setup@num+10,w
  3922  0278  158A  26DA  118A   	fcall	___bmul
  3923  027B  00D5               	movwf	??_LcdMenu_Setup
  3924  027C  0868               	movf	LcdMenu_Setup@num+11,w
  3925  027D  0755               	addwf	??_LcdMenu_Setup,w
  3926  027E  0080               	movwf	0
  3927                           
  3928                           ;LcdMenu.c: 445: LcdMenu_VPrintf("");
  3929  027F  3015               	movlw	low (STR_9| (0+32768))
  3930  0280  00BD               	movwf	?_LcdMenu_VPrintf
  3931  0281  3089               	movlw	high (STR_9| (0+32768))
  3932  0282  00BE               	movwf	?_LcdMenu_VPrintf+1
  3933  0283  23A8  118A         	fcall	_LcdMenu_VPrintf
  3934                           
  3935                           ;LcdMenu.c: 446: Lcd_StrDisp(0,0,LcdMenu_StrTemp);
  3936  0285  262A  118A         	fcall	PL11	;call to abstracted procedure
  3937  0287  2357  118A         	fcall	_Lcd_StrDisp
  3938                           
  3939                           ;LcdMenu.c: 447: LcdMenu_VPrintf(":%d%d%d%d",num[0][0],num[0][1],num[0][2],num[0
      +                          ][3]);
  3940  0289  30A8               	movlw	low (STR_10| (0+32768))
  3941  028A  00BD               	movwf	?_LcdMenu_VPrintf
  3942  028B  3088               	movlw	high (STR_10| (0+32768))
  3943  028C  00BE               	movwf	?_LcdMenu_VPrintf+1
  3944  028D  085D               	movf	LcdMenu_Setup@num,w
  3945  028E  00BF               	movwf	?_LcdMenu_VPrintf+2
  3946  028F  01C0               	clrf	?_LcdMenu_VPrintf+3
  3947  0290  085E               	movf	LcdMenu_Setup@num+1,w
  3948  0291  00C1               	movwf	?_LcdMenu_VPrintf+4
  3949  0292  01C2               	clrf	?_LcdMenu_VPrintf+5
  3950  0293  085F               	movf	LcdMenu_Setup@num+2,w
  3951  0294  00C3               	movwf	?_LcdMenu_VPrintf+6
  3952  0295  01C4               	clrf	?_LcdMenu_VPrintf+7
  3953  0296  0860               	movf	LcdMenu_Setup@num+3,w
  3954  0297  00C5               	movwf	?_LcdMenu_VPrintf+8
  3955  0298  01C6               	clrf	?_LcdMenu_VPrintf+9
  3956  0299  23A8  118A         	fcall	_LcdMenu_VPrintf
  3957                           
  3958                           ;LcdMenu.c: 448: if(Index == 0 && u8_Timer_Flash && FlashStop)
  3959  029B  08AF               	movf	LcdMenu_Setup@Index^(0+128),f
  3960  029C  1D03               	skipz
  3961  029D  2AAB               	goto	l15415
  3962  029E  0831               	movf	_u8_Timer_Flash^(0+128),w
  3963  029F  1903               	btfsc	3,2
  3964  02A0  2AAB               	goto	l15415
  3965  02A1  086C               	movf	LcdMenu_Setup@FlashStop^(0+128),w
  3966  02A2  1903               	btfsc	3,2
  3967  02A3  2AAB               	goto	l15415
  3968                           
  3969                           ;LcdMenu.c: 449: LcdMenu_NumMasK(LcdMenu_StrTemp, Section+1);
  3970  02A4  0A30               	incf	LcdMenu_Setup@Section^(0+128),w
  3971  02A5  1283               	bcf	3,5	;RP0=0, select bank0
  3972  02A6  00A0               	movwf	?_LcdMenu_NumMasK
  3973  02A7  30B2               	movlw	_LcdMenu_StrTemp& (0+255)
  3974  02A8  158A  26E8  118A   	fcall	_LcdMenu_NumMasK
  3975  02AB                     l15415:	
  3976                           
  3977                           ;LcdMenu.c: 450: Lcd_StrDisp(1,0,LcdMenu_StrTemp);
  3978  02AB  2625  118A         	fcall	PL10	;call to abstracted procedure
  3979  02AD  2357  118A         	fcall	_Lcd_StrDisp
  3980                           
  3981                           ;LcdMenu.c: 451: LcdMenu_VPrintf(":%d%dD:%d%dA",num[1][0],num[1][1],num[1][2],nu
      +                          m[1][3]);
  3982  02AF  307E               	movlw	low (STR_11| (0+32768))
  3983  02B0  00BD               	movwf	?_LcdMenu_VPrintf
  3984  02B1  3088               	movlw	high (STR_11| (0+32768))
  3985  02B2  00BE               	movwf	?_LcdMenu_VPrintf+1
  3986  02B3  0861               	movf	LcdMenu_Setup@num+4,w
  3987  02B4  00BF               	movwf	?_LcdMenu_VPrintf+2
  3988  02B5  01C0               	clrf	?_LcdMenu_VPrintf+3
  3989  02B6  0862               	movf	LcdMenu_Setup@num+5,w
  3990  02B7  00C1               	movwf	?_LcdMenu_VPrintf+4
  3991  02B8  01C2               	clrf	?_LcdMenu_VPrintf+5
  3992  02B9  0863               	movf	LcdMenu_Setup@num+6,w
  3993  02BA  00C3               	movwf	?_LcdMenu_VPrintf+6
  3994  02BB  01C4               	clrf	?_LcdMenu_VPrintf+7
  3995  02BC  0864               	movf	LcdMenu_Setup@num+7,w
  3996  02BD  00C5               	movwf	?_LcdMenu_VPrintf+8
  3997  02BE  01C6               	clrf	?_LcdMenu_VPrintf+9
  3998  02BF  23A8  118A         	fcall	_LcdMenu_VPrintf
  3999                           
  4000                           ;LcdMenu.c: 452: if(Index == 1 && u8_Timer_Flash && FlashStop)
  4001  02C1  0B2F               	decfsz	LcdMenu_Setup@Index^(0+128),w
  4002  02C2  2AD0               	goto	l15427
  4003  02C3  0831               	movf	_u8_Timer_Flash^(0+128),w
  4004  02C4  1903               	btfsc	3,2
  4005  02C5  2AD0               	goto	l15427
  4006  02C6  086C               	movf	LcdMenu_Setup@FlashStop^(0+128),w
  4007  02C7  1903               	btfsc	3,2
  4008  02C8  2AD0               	goto	l15427
  4009                           
  4010                           ;LcdMenu.c: 453: LcdMenu_NumMasK(LcdMenu_StrTemp, Section+1);
  4011  02C9  0A30               	incf	LcdMenu_Setup@Section^(0+128),w
  4012  02CA  1283               	bcf	3,5	;RP0=0, select bank0
  4013  02CB  00A0               	movwf	?_LcdMenu_NumMasK
  4014  02CC  30B2               	movlw	_LcdMenu_StrTemp& (0+255)
  4015  02CD  158A  26E8  118A   	fcall	_LcdMenu_NumMasK
  4016  02D0                     l15427:	
  4017                           
  4018                           ;LcdMenu.c: 454: Lcd_StrDisp(2,0,LcdMenu_StrTemp);
  4019  02D0  158A  278B  118A   	fcall	PL18	;call to abstracted procedure
  4020  02D3  2357  118A         	fcall	_Lcd_StrDisp
  4021                           
  4022                           ;LcdMenu.c: 455: LcdMenu_VPrintf(":%d%dC:%d%dC",num[2][0],num[2][1],num[2][2],nu
      +                          m[2][3]);
  4023  02D5  3093               	movlw	low (STR_12| (0+32768))
  4024  02D6  00BD               	movwf	?_LcdMenu_VPrintf
  4025  02D7  3088               	movlw	high (STR_12| (0+32768))
  4026  02D8  00BE               	movwf	?_LcdMenu_VPrintf+1
  4027  02D9  0865               	movf	LcdMenu_Setup@num+8,w
  4028  02DA  00BF               	movwf	?_LcdMenu_VPrintf+2
  4029  02DB  01C0               	clrf	?_LcdMenu_VPrintf+3
  4030  02DC  0866               	movf	LcdMenu_Setup@num+9,w
  4031  02DD  00C1               	movwf	?_LcdMenu_VPrintf+4
  4032  02DE  01C2               	clrf	?_LcdMenu_VPrintf+5
  4033  02DF  0867               	movf	LcdMenu_Setup@num+10,w
  4034  02E0  00C3               	movwf	?_LcdMenu_VPrintf+6
  4035  02E1  01C4               	clrf	?_LcdMenu_VPrintf+7
  4036  02E2  0868               	movf	LcdMenu_Setup@num+11,w
  4037  02E3  00C5               	movwf	?_LcdMenu_VPrintf+8
  4038  02E4  01C6               	clrf	?_LcdMenu_VPrintf+9
  4039  02E5  23A8  118A         	fcall	_LcdMenu_VPrintf
  4040                           
  4041                           ;LcdMenu.c: 456: if(Index == 2 && u8_Timer_Flash && FlashStop)
  4042  02E7  082F               	movf	LcdMenu_Setup@Index^(0+128),w
  4043  02E8  3A02               	xorlw	2
  4044  02E9  1D03               	skipz
  4045  02EA  2AF8               	goto	l15439
  4046  02EB  0831               	movf	_u8_Timer_Flash^(0+128),w
  4047  02EC  1903               	btfsc	3,2
  4048  02ED  2AF8               	goto	l15439
  4049  02EE  086C               	movf	LcdMenu_Setup@FlashStop^(0+128),w
  4050  02EF  1903               	btfsc	3,2
  4051  02F0  2AF8               	goto	l15439
  4052                           
  4053                           ;LcdMenu.c: 457: LcdMenu_NumMasK(LcdMenu_StrTemp, Section+1);
  4054  02F1  0A30               	incf	LcdMenu_Setup@Section^(0+128),w
  4055  02F2  1283               	bcf	3,5	;RP0=0, select bank0
  4056  02F3  00A0               	movwf	?_LcdMenu_NumMasK
  4057  02F4  30B2               	movlw	_LcdMenu_StrTemp& (0+255)
  4058  02F5  158A  26E8  118A   	fcall	_LcdMenu_NumMasK
  4059  02F8                     l15439:	
  4060                           
  4061                           ;LcdMenu.c: 458: Lcd_StrDisp(3,0,LcdMenu_StrTemp);
  4062  02F8  158A  2790  118A   	fcall	PL19	;call to abstracted procedure
  4063  02FB  2B57               	ljmp	_Lcd_StrDisp
  4064  02FC                     __end_of_LcdMenu_Setup:	
  4065  02FC                     __ptext674:	
  4066 ;; =============== function ___awdiv ends ============
  4067                           
  4068                           
  4069 ;; *************** function ___lbmod *****************
  4070 ;; Defined at:
  4071 ;;		line 5 in file "c:\Program Files\HI-TECH Software\PICC\9.83\sources\lbmod.c"
  4072 ;; Parameters:    Size  Location     Type
  4073 ;;  dividend        1    wreg     unsigned char 
  4074 ;;  divisor         1    4[BANK0 ] unsigned char 
  4075 ;; Auto vars:     Size  Location     Type
  4076 ;;  dividend        1    6[BANK0 ] unsigned char 
  4077 ;;  rem             1    8[BANK0 ] unsigned char 
  4078 ;;  counter         1    7[BANK0 ] unsigned char 
  4079 ;; Return value:  Size  Location     Type
  4080 ;;                  1    wreg      unsigned char 
  4081 ;; Registers used:
  4082 ;;		wreg, status,2, status,0
  4083 ;; Tracked objects:
  4084 ;;		On entry : 160/0
  4085 ;;		On exit  : 160/0
  4086 ;;		Unchanged: FFE9F/0
  4087 ;; Data sizes:     COMMON   BANK0   BANK1   BANK2
  4088 ;;      Params:         0       1       0       0
  4089 ;;      Locals:         0       3       0       0
  4090 ;;      Temps:          0       1       0       0
  4091 ;;      Totals:         0       5       0       0
  4092 ;;Total ram usage:        5 bytes
  4093 ;; Hardware stack levels used:    1
  4094 ;; Hardware stack levels required when called:    2
  4095 ;; This function calls:
  4096 ;;		Nothing
  4097 ;; This function is called by:
  4098 ;;		_LcdMenu_Setup
  4099 ;; This function uses a non-reentrant model
  4100 ;;
  4101  02FC                     ___lbmod:	
  4102                           
  4103                           ; Regs used in ___lbmod: [wreg+status,2+status,0]
  4104                           ;___lbmod@dividend stored from wreg
  4105  02FC  00A6               	movwf	___lbmod@dividend
  4106  02FD  3008               	movlw	8
  4107  02FE  00A7               	movwf	___lbmod@counter
  4108  02FF  01A8               	clrf	___lbmod@rem
  4109  0300                     l15047:	
  4110  0300  0826               	movf	___lbmod@dividend,w
  4111  0301  00A5               	movwf	??___lbmod
  4112  0302  3007               	movlw	7
  4113  0303  1003               	clrc
  4114  0304                     L11:	
  4115  0304  0CA5               	rrf	??___lbmod,f
  4116  0305  3EFF               	addlw	-1
  4117  0306  1003               	clrc
  4118  0307  1D03               	skipz
  4119  0308  2B04               	goto	L11
  4120  0309  0D28               	rlf	___lbmod@rem,w
  4121  030A  0425               	iorwf	??___lbmod,w
  4122  030B  00A8               	movwf	___lbmod@rem
  4123  030C  1003               	clrc
  4124  030D  0DA6               	rlf	___lbmod@dividend,f
  4125  030E  0824               	movf	___lbmod@divisor,w
  4126  030F  0228               	subwf	___lbmod@rem,w
  4127  0310  1C03               	skipc
  4128  0311  2B14               	goto	l15055
  4129  0312  0824               	movf	___lbmod@divisor,w
  4130  0313  02A8               	subwf	___lbmod@rem,f
  4131  0314                     l15055:	
  4132  0314  0BA7               	decfsz	___lbmod@counter,f
  4133  0315  2B00               	goto	l15047
  4134  0316  0828               	movf	___lbmod@rem,w
  4135  0317  0008               	return
  4136  0318                     __end_of___lbmod:	
  4137  0318                     __ptext676:	
  4138 ;; =============== function ___lbdiv ends ============
  4139                           
  4140                           
  4141 ;; *************** function ___lwmod *****************
  4142 ;; Defined at:
  4143 ;;		line 5 in file "c:\Program Files\HI-TECH Software\PICC\9.83\sources\lwmod.c"
  4144 ;; Parameters:    Size  Location     Type
  4145 ;;  divisor         2    7[BANK0 ] unsigned int 
  4146 ;;  dividend        2    9[BANK0 ] unsigned int 
  4147 ;; Auto vars:     Size  Location     Type
  4148 ;;  counter         1   11[BANK0 ] unsigned char 
  4149 ;; Return value:  Size  Location     Type
  4150 ;;                  2    7[BANK0 ] unsigned int 
  4151 ;; Registers used:
  4152 ;;		wreg, status,2, status,0
  4153 ;; Tracked objects:
  4154 ;;		On entry : 60/0
  4155 ;;		On exit  : 60/0
  4156 ;;		Unchanged: FFF9F/0
  4157 ;; Data sizes:     COMMON   BANK0   BANK1   BANK2
  4158 ;;      Params:         0       4       0       0
  4159 ;;      Locals:         0       1       0       0
  4160 ;;      Temps:          0       0       0       0
  4161 ;;      Totals:         0       5       0       0
  4162 ;;Total ram usage:        5 bytes
  4163 ;; Hardware stack levels used:    1
  4164 ;; Hardware stack levels required when called:    2
  4165 ;; This function calls:
  4166 ;;		Nothing
  4167 ;; This function is called by:
  4168 ;;		_myitoa
  4169 ;;		_LcdMenu_Normal
  4170 ;;		_LcdMenu_Setup
  4171 ;; This function uses a non-reentrant model
  4172 ;;
  4173  0318                     ___lwmod:	
  4174                           
  4175                           ; Regs used in ___lwmod: [wreg+status,2+status,0]
  4176  0318  0828               	movf	___lwmod@divisor+1,w
  4177  0319  0427               	iorwf	___lwmod@divisor,w
  4178  031A  1903               	skipnz
  4179  031B  2B37               	goto	l15015
  4180  031C  01AB               	clrf	___lwmod@counter
  4181  031D                     L13:	
  4182  031D  0AAB               	incf	___lwmod@counter,f
  4183  031E  1BA8               	btfsc	___lwmod@divisor+1,7
  4184  031F  2B24               	goto	l15007
  4185  0320  1003               	clrc
  4186  0321  0DA7               	rlf	___lwmod@divisor,f
  4187  0322  0DA8               	rlf	___lwmod@divisor+1,f
  4188  0323  2B1D               	goto	L13
  4189  0324                     l15007:	
  4190  0324  0828               	movf	___lwmod@divisor+1,w
  4191  0325  022A               	subwf	___lwmod@dividend+1,w
  4192  0326  1D03               	skipz
  4193  0327  2B2A               	goto	u2325
  4194  0328  0827               	movf	___lwmod@divisor,w
  4195  0329  0229               	subwf	___lwmod@dividend,w
  4196  032A                     u2325:	
  4197  032A  1C03               	skipc
  4198  032B  2B33               	goto	L14
  4199  032C  0827               	movf	___lwmod@divisor,w
  4200  032D  02A9               	subwf	___lwmod@dividend,f
  4201  032E  0828               	movf	___lwmod@divisor+1,w
  4202  032F  1C03               	skipc
  4203  0330  03AA               	decf	___lwmod@dividend+1,f
  4204  0331  02AA               	subwf	___lwmod@dividend+1,f
  4205  0332  1003               	clrc
  4206  0333                     L14:	
  4207  0333  0CA8               	rrf	___lwmod@divisor+1,f
  4208  0334  0CA7               	rrf	___lwmod@divisor,f
  4209  0335  0BAB               	decfsz	___lwmod@counter,f
  4210  0336  2B24               	goto	l15007
  4211  0337                     l15015:	
  4212  0337  082A               	movf	___lwmod@dividend+1,w
  4213  0338  00A8               	movwf	?___lwmod+1
  4214  0339  0829               	movf	___lwmod@dividend,w
  4215  033A  00A7               	movwf	?___lwmod
  4216  033B  0008               	return
  4217  033C                     __end_of___lwmod:	
  4218  033C                     __ptext675:	
  4219 ;; =============== function ___lbmod ends ============
  4220                           
  4221                           
  4222 ;; *************** function ___lbdiv *****************
  4223 ;; Defined at:
  4224 ;;		line 5 in file "c:\Program Files\HI-TECH Software\PICC\9.83\sources\lbdiv.c"
  4225 ;; Parameters:    Size  Location     Type
  4226 ;;  dividend        1    wreg     unsigned char 
  4227 ;;  divisor         1    0[BANK0 ] unsigned char 
  4228 ;; Auto vars:     Size  Location     Type
  4229 ;;  dividend        1    1[BANK0 ] unsigned char 
  4230 ;;  quotient        1    3[BANK0 ] unsigned char 
  4231 ;;  counter         1    2[BANK0 ] unsigned char 
  4232 ;; Return value:  Size  Location     Type
  4233 ;;                  1    wreg      unsigned char 
  4234 ;; Registers used:
  4235 ;;		wreg, status,2, status,0
  4236 ;; Tracked objects:
  4237 ;;		On entry : 160/0
  4238 ;;		On exit  : 160/0
  4239 ;;		Unchanged: FFE9F/0
  4240 ;; Data sizes:     COMMON   BANK0   BANK1   BANK2
  4241 ;;      Params:         0       1       0       0
  4242 ;;      Locals:         0       3       0       0
  4243 ;;      Temps:          0       0       0       0
  4244 ;;      Totals:         0       4       0       0
  4245 ;;Total ram usage:        4 bytes
  4246 ;; Hardware stack levels used:    1
  4247 ;; Hardware stack levels required when called:    2
  4248 ;; This function calls:
  4249 ;;		Nothing
  4250 ;; This function is called by:
  4251 ;;		_LcdMenu_Setup
  4252 ;; This function uses a non-reentrant model
  4253 ;;
  4254  033C                     ___lbdiv:	
  4255                           
  4256                           ; Regs used in ___lbdiv: [wreg+status,2+status,0]
  4257                           ;___lbdiv@dividend stored from wreg
  4258  033C  00A1               	movwf	___lbdiv@dividend
  4259  033D  01A3               	clrf	___lbdiv@quotient
  4260  033E  0820               	movf	___lbdiv@divisor,w
  4261  033F  1903               	btfsc	3,2
  4262  0340  2B55               	goto	l15039
  4263  0341  01A2               	clrf	___lbdiv@counter
  4264  0342                     l15025:	
  4265  0342  0AA2               	incf	___lbdiv@counter,f
  4266  0343  1BA0               	btfsc	___lbdiv@divisor,7
  4267  0344  2B48               	goto	l12285
  4268  0345  1003               	clrc
  4269  0346  0DA0               	rlf	___lbdiv@divisor,f
  4270  0347  2B42               	goto	l15025
  4271  0348                     l12285:	
  4272  0348  1003               	clrc
  4273  0349  0DA3               	rlf	___lbdiv@quotient,f
  4274  034A  0820               	movf	___lbdiv@divisor,w
  4275  034B  0221               	subwf	___lbdiv@dividend,w
  4276  034C  1C03               	skipc
  4277  034D  2B52               	goto	L12
  4278  034E  0820               	movf	___lbdiv@divisor,w
  4279  034F  02A1               	subwf	___lbdiv@dividend,f
  4280  0350  1423               	bsf	___lbdiv@quotient,0
  4281  0351  1003               	clrc
  4282  0352                     L12:	
  4283  0352  0CA0               	rrf	___lbdiv@divisor,f
  4284  0353  0BA2               	decfsz	___lbdiv@counter,f
  4285  0354  2B48               	goto	l12285
  4286  0355                     l15039:	
  4287  0355  0823               	movf	___lbdiv@quotient,w
  4288  0356  0008               	return
  4289  0357                     __end_of___lbdiv:	
  4290  0357                     __ptext666:	
  4291 ;; =============== function _Lcd_ClrScreen ends ============
  4292                           
  4293                           
  4294 ;; *************** function _Lcd_StrDisp *****************
  4295 ;; Defined at:
  4296 ;;		line 215 in file "Code/Driver/LCD/Lcd.c"
  4297 ;; Parameters:    Size  Location     Type
  4298 ;;  x               1    wreg     unsigned char 
  4299 ;;  y               1    6[BANK0 ] unsigned char 
  4300 ;;  s               1    7[BANK0 ] PTR const unsigned char 
  4301 ;;		 -> LcdMenu_StrTemp(20), 
  4302 ;; Auto vars:     Size  Location     Type
  4303 ;;  x               1   11[BANK0 ] unsigned char 
  4304 ;; Return value:  Size  Location     Type
  4305 ;;		None               void
  4306 ;; Registers used:
  4307 ;;		wreg, fsr0l, fsr0h, status,2, status,0, btemp+1, pclath, cstack
  4308 ;; Tracked objects:
  4309 ;;		On entry : 60/0
  4310 ;;		On exit  : 160/0
  4311 ;;		Unchanged: FFE00/0
  4312 ;; Data sizes:     COMMON   BANK0   BANK1   BANK2
  4313 ;;      Params:         0       2       0       0
  4314 ;;      Locals:         0       1       0       0
  4315 ;;      Temps:          0       3       0       0
  4316 ;;      Totals:         0       6       0       0
  4317 ;;Total ram usage:        6 bytes
  4318 ;; Hardware stack levels used:    1
  4319 ;; Hardware stack levels required when called:    5
  4320 ;; This function calls:
  4321 ;;		_Lcd_WriteCmd
  4322 ;;		_Lcd_WriteData
  4323 ;; This function is called by:
  4324 ;;		_LcdMenu_Welcome
  4325 ;;		_LcdMenu_Normal
  4326 ;;		_LcdMenu_Setup
  4327 ;;		_LcdMenu_Factory
  4328 ;; This function uses a non-reentrant model
  4329 ;;
  4330  0357                     _Lcd_StrDisp:	
  4331                           
  4332                           ; Regs used in _Lcd_StrDisp: [wreg-fsr0h+status,2+status,0+btemp+1+pclath+cstack]
  4333                           ;Lcd_StrDisp@x stored from wreg
  4334  0357  00AB               	movwf	Lcd_StrDisp@x
  4335                           
  4336                           ;Lcd.c: 216: const u8 addr_tab[]=
  4337                           ;Lcd.c: 217: {
  4338                           ;Lcd.c: 218: 0x80,0x81,0x82,0x83,0x84,0x85,0x86,0x87,
  4339                           ;Lcd.c: 219: 0x90,0x91,0x92,0x93,0x94,0x95,0x96,0x97,
  4340                           ;Lcd.c: 220: 0x88,0x89,0x8a,0x8b,0x8c,0x8d,0x8e,0x8f,
  4341                           ;Lcd.c: 221: 0x98,0x99,0x9a,0x9b,0x9c,0x9d,0x9e,0x9f,
  4342                           ;Lcd.c: 222: };
  4343                           ;Lcd.c: 223: Lcd_WriteCmd(addr_tab[8*x+y]);
  4344  0358  00A8               	movwf	??_Lcd_StrDisp
  4345  0359  1003               	clrc
  4346  035A  0DA8               	rlf	??_Lcd_StrDisp,f
  4347  035B  1003               	clrc
  4348  035C  0DA8               	rlf	??_Lcd_StrDisp,f
  4349  035D  1003               	clrc
  4350  035E  0D28               	rlf	??_Lcd_StrDisp,w
  4351  035F  3E12               	addlw	low (Lcd_StrDisp@addr_tab| (0+32768))
  4352  0360  00A9               	movwf	??_Lcd_StrDisp+1
  4353  0361  3088               	movlw	high (Lcd_StrDisp@addr_tab| (0+32768))
  4354  0362  1803               	skipnc
  4355  0363  3E01               	addlw	1
  4356  0364  00AA               	movwf	??_Lcd_StrDisp+2
  4357  0365  0826               	movf	Lcd_StrDisp@y,w
  4358  0366  0729               	addwf	??_Lcd_StrDisp+1,w
  4359  0367  0084               	movwf	4
  4360  0368  082A               	movf	??_Lcd_StrDisp+2,w
  4361  0369  1803               	skipnc
  4362  036A  0A2A               	incf	??_Lcd_StrDisp+2,w
  4363  036B  00FF               	movwf	127
  4364  036C  158A  2000  118A   	fcall	stringtab
  4365  036F  2397  118A         	fcall	_Lcd_WriteCmd
  4366  0371                     l15259:	
  4367                           ;Lcd.c: 224: while(*s>0)
  4368                           
  4369  0371  0827               	movf	Lcd_StrDisp@s,w
  4370  0372  0084               	movwf	4
  4371  0373  1383               	bcf	3,7	;select IRP bank0
  4372  0374  0880               	movf	0,f
  4373  0375  1903               	btfsc	3,2
  4374  0376  0008               	return
  4375                           
  4376                           ;Lcd.c: 225: {
  4377                           ;Lcd.c: 226: Lcd_WriteData(*s);
  4378  0377  0827               	movf	Lcd_StrDisp@s,w
  4379  0378  0084               	movwf	4
  4380  0379  0800               	movf	0,w
  4381  037A  25E8  118A         	fcall	_Lcd_WriteData
  4382                           
  4383                           ;Lcd.c: 227: s++;
  4384  037C  0AA7               	incf	Lcd_StrDisp@s,f
  4385  037D  2B71               	goto	l15259
  4386  037E                     __end_of_Lcd_StrDisp:	
  4387  037E                     __ptext678:	
  4388 ;; =============== function ___lwdiv ends ============
  4389                           
  4390                           
  4391 ;; *************** function ___wmul *****************
  4392 ;; Defined at:
  4393 ;;		line 3 in file "c:\Program Files\HI-TECH Software\PICC\9.83\sources\wmul.c"
  4394 ;; Parameters:    Size  Location     Type
  4395 ;;  multiplier      2    0[BANK0 ] unsigned int 
  4396 ;;  multiplicand    2    2[BANK0 ] unsigned int 
  4397 ;; Auto vars:     Size  Location     Type
  4398 ;;  product         2    4[BANK0 ] unsigned int 
  4399 ;; Return value:  Size  Location     Type
  4400 ;;                  2    0[BANK0 ] unsigned int 
  4401 ;; Registers used:
  4402 ;;		wreg, status,2, status,0
  4403 ;; Tracked objects:
  4404 ;;		On entry : 60/0
  4405 ;;		On exit  : 60/0
  4406 ;;		Unchanged: FFF9F/0
  4407 ;; Data sizes:     COMMON   BANK0   BANK1   BANK2
  4408 ;;      Params:         0       4       0       0
  4409 ;;      Locals:         0       2       0       0
  4410 ;;      Temps:          0       0       0       0
  4411 ;;      Totals:         0       6       0       0
  4412 ;;Total ram usage:        6 bytes
  4413 ;; Hardware stack levels used:    1
  4414 ;; Hardware stack levels required when called:    2
  4415 ;; This function calls:
  4416 ;;		Nothing
  4417 ;; This function is called by:
  4418 ;;		_LcdMenu_Setup
  4419 ;;		_LcdMenu_Factory
  4420 ;; This function uses a non-reentrant model
  4421 ;;
  4422  037E                     ___wmul:	
  4423                           
  4424                           ; Regs used in ___wmul: [wreg+status,2+status,0]
  4425  037E  01A4               	clrf	___wmul@product
  4426  037F  01A5               	clrf	___wmul@product+1
  4427  0380                     l14959:	
  4428  0380  1C20               	btfss	___wmul@multiplier,0
  4429  0381  2B88               	goto	l14963
  4430  0382  0822               	movf	___wmul@multiplicand,w
  4431  0383  07A4               	addwf	___wmul@product,f
  4432  0384  1803               	skipnc
  4433  0385  0AA5               	incf	___wmul@product+1,f
  4434  0386  0823               	movf	___wmul@multiplicand+1,w
  4435  0387  07A5               	addwf	___wmul@product+1,f
  4436  0388                     l14963:	
  4437  0388  1003               	clrc
  4438  0389  0DA2               	rlf	___wmul@multiplicand,f
  4439  038A  0DA3               	rlf	___wmul@multiplicand+1,f
  4440  038B  1003               	clrc
  4441  038C  0CA1               	rrf	___wmul@multiplier+1,f
  4442  038D  0CA0               	rrf	___wmul@multiplier,f
  4443  038E  0821               	movf	___wmul@multiplier+1,w
  4444  038F  0420               	iorwf	___wmul@multiplier,w
  4445  0390  1D03               	skipz
  4446  0391  2B80               	goto	l14959
  4447  0392  0825               	movf	___wmul@product+1,w
  4448  0393  00A1               	movwf	?___wmul+1
  4449  0394  0824               	movf	___wmul@product,w
  4450  0395  00A0               	movwf	?___wmul
  4451  0396  0008               	return
  4452  0397                     __end_of___wmul:	
  4453  0397                     __ptext670:	
  4454 ;; =============== function _Lcd_WriteData ends ============
  4455                           
  4456                           
  4457 ;; *************** function _Lcd_WriteCmd *****************
  4458 ;; Defined at:
  4459 ;;		line 155 in file "Code/Driver/LCD/Lcd.c"
  4460 ;; Parameters:    Size  Location     Type
  4461 ;;  Cbyte           1    wreg     unsigned char 
  4462 ;; Auto vars:     Size  Location     Type
  4463 ;;  Cbyte           1    5[BANK0 ] unsigned char 
  4464 ;; Return value:  Size  Location     Type
  4465 ;;		None               void
  4466 ;; Registers used:
  4467 ;;		wreg, status,2, status,0, pclath, cstack
  4468 ;; Tracked objects:
  4469 ;;		On entry : 60/0
  4470 ;;		On exit  : 60/0
  4471 ;;		Unchanged: FFE00/0
  4472 ;; Data sizes:     COMMON   BANK0   BANK1   BANK2
  4473 ;;      Params:         0       0       0       0
  4474 ;;      Locals:         0       1       0       0
  4475 ;;      Temps:          0       0       0       0
  4476 ;;      Totals:         0       1       0       0
  4477 ;;Total ram usage:        1 bytes
  4478 ;; Hardware stack levels used:    1
  4479 ;; Hardware stack levels required when called:    4
  4480 ;; This function calls:
  4481 ;;		_Lcd_CheckBusy
  4482 ;;		_SendByte
  4483 ;; This function is called by:
  4484 ;;		_Lcd_Init
  4485 ;;		_Lcd_StrDisp
  4486 ;;		_Lcd_ClrScreen
  4487 ;; This function uses a non-reentrant model
  4488 ;;
  4489  0397                     _Lcd_WriteCmd:	
  4490                           
  4491                           ; Regs used in _Lcd_WriteCmd: [wreg+status,2+status,0+pclath+cstack]
  4492                           ;Lcd_WriteCmd@Cbyte stored from wreg
  4493  0397  00A5               	movwf	Lcd_WriteCmd@Cbyte
  4494                           
  4495                           ;Lcd.c: 156: (TRISE2=(0));
  4496                           
  4497                           ;Lcd.c: 157: (RE2=(1));
  4498  0398  2668  118A         	fcall	PL31	;call to abstracted procedure
  4499                           
  4500                           ;Lcd.c: 158: Lcd_CheckBusy();
  4501  039A  25BC  118A         	fcall	_Lcd_CheckBusy
  4502                           
  4503                           ;Lcd.c: 159: SendByte(0xf8);
  4504  039C  30F8               	movlw	248
  4505  039D  2573  118A         	fcall	_SendByte
  4506                           
  4507                           ;Lcd.c: 160: SendByte(0xf0&Cbyte);
  4508  039F  0825               	movf	Lcd_WriteCmd@Cbyte,w
  4509  03A0  39F0               	andlw	240
  4510  03A1  2573  118A         	fcall	_SendByte
  4511                           
  4512                           ;Lcd.c: 161: SendByte(0xf0&Cbyte<<4);
  4513  03A3  0E25               	swapf	Lcd_WriteCmd@Cbyte,w
  4514  03A4  39F0               	andlw	240
  4515  03A5  2573               	fcall	_SendByte
  4516                           
  4517                           ;Lcd.c: 162: (RE2=(0));
  4518  03A6  1109               	bcf	9,2
  4519  03A7  0008               	return
  4520  03A8                     __end_of_Lcd_WriteCmd:	
  4521  03A8                     __ptext668:	
  4522 ;; =============== function _Lcd_Init ends ============
  4523                           
  4524                           
  4525 ;; *************** function _LcdMenu_VPrintf *****************
  4526 ;; Defined at:
  4527 ;;		line 97 in file "Code/Driver/LCD/LcdMenu.c"
  4528 ;; Parameters:    Size  Location     Type
  4529 ;;  String          2   29[BANK0 ] PTR const unsigned char 
  4530 ;;		 -> STR_16(26), STR_15(26), STR_14(24), STR_13(9), 
  4531 ;;		 -> STR_12(21), STR_11(21), STR_10(18), STR_9(9), 
  4532 ;;		 -> STR_7(13), STR_5(13), STR_4(14), STR_3(13), 
  4533 ;;		 -> STR_2(12), STR_1(17), 
  4534 ;; Auto vars:     Size  Location     Type
  4535 ;;  StrBuf         20    0[BANK1 ] unsigned char [20]
  4536 ;;  index           2   27[BANK1 ] unsigned int 
  4537 ;;  d2              2   22[BANK1 ] int 
  4538 ;;  d1              2   20[BANK1 ] unsigned int 
  4539 ;;  i               1   29[BANK1 ] unsigned char 
  4540 ;;  pv_Start        1   26[BANK1 ] PTR void [1]
  4541 ;;		 -> ?_LcdMenu_VPrintf(0), 
  4542 ;;  p_Str           1   25[BANK1 ] PTR const unsigned char 
  4543 ;;  ch              1   24[BANK1 ] unsigned char 
  4544 ;; Return value:  Size  Location     Type
  4545 ;;		None               void
  4546 ;; Registers used:
  4547 ;;		wreg, fsr0l, fsr0h, status,2, status,0, btemp+1, pclath, cstack
  4548 ;; Tracked objects:
  4549 ;;		On entry : 60/100
  4550 ;;		On exit  : 160/20
  4551 ;;		Unchanged: FFE00/0
  4552 ;; Data sizes:     COMMON   BANK0   BANK1   BANK2
  4553 ;;      Params:         0      22       0       0
  4554 ;;      Locals:         0       0      30       0
  4555 ;;      Temps:          0       1       0       0
  4556 ;;      Totals:         0      23      30       0
  4557 ;;Total ram usage:       53 bytes
  4558 ;; Hardware stack levels used:    1
  4559 ;; Hardware stack levels required when called:    4
  4560 ;; This function calls:
  4561 ;;		_myitoa
  4562 ;; This function is called by:
  4563 ;;		_LcdMenu_Welcome
  4564 ;;		_LcdMenu_Normal
  4565 ;;		_LcdMenu_Setup
  4566 ;;		_LcdMenu_Factory
  4567 ;; This function uses a non-reentrant model
  4568 ;;
  4569  03A8                     _LcdMenu_VPrintf:	
  4570                           
  4571                           ;LcdMenu.c: 98: va_list pv_Start;
  4572                           ;LcdMenu.c: 99: char ch;
  4573                           ;LcdMenu.c: 100: const char *p_Str;
  4574                           ;LcdMenu.c: 101: char StrBuf[20];
  4575                           ;LcdMenu.c: 102: unsigned int d1;
  4576                           ;LcdMenu.c: 103: int d2;
  4577                           ;LcdMenu.c: 104: unsigned index = 0;
  4578                           
  4579                           ; Regs used in _LcdMenu_VPrintf: [wreg-fsr0h+status,2+status,0+btemp+1+pclath+cstack]
  4580  03A8  1683               	bsf	3,5	;RP0=1, select bank1
  4581  03A9  303F               	movlw	(?_LcdMenu_VPrintf+2)& (0+255)
  4582  03AA  01E7               	clrf	LcdMenu_VPrintf@index^(0+128)
  4583  03AB  01E8               	clrf	(LcdMenu_VPrintf@index+1)^(0+128)
  4584                           
  4585                           ;LcdMenu.c: 107: *pv_Start = __va_start();
  4586  03AC  00E6               	movwf	LcdMenu_VPrintf@pv_Start^(0+128)
  4587                           
  4588                           ;LcdMenu.c: 109: for(i=0; i<sizeof(LcdMenu_StrTemp); i++)
  4589  03AD  01E9               	clrf	LcdMenu_VPrintf@i^(0+128)
  4590  03AE                     l15159:	
  4591                           
  4592                           ;LcdMenu.c: 110: {
  4593                           ;LcdMenu.c: 111: LcdMenu_StrTemp[i] = 0;
  4594  03AE  0869               	movf	LcdMenu_VPrintf@i^(0+128),w
  4595  03AF  3EB2               	addlw	_LcdMenu_StrTemp& (0+255)
  4596  03B0  0084               	movwf	4
  4597  03B1  3014               	movlw	20
  4598  03B2  1383               	bcf	3,7	;select IRP bank1
  4599  03B3  0180               	clrf	0
  4600  03B4  0AE9               	incf	LcdMenu_VPrintf@i^(0+128),f
  4601  03B5  0269               	subwf	LcdMenu_VPrintf@i^(0+128),w
  4602  03B6  1803               	btfsc	3,0
  4603  03B7  2C65               	goto	l15229
  4604  03B8  2BAE               	goto	l15159
  4605  03B9                     l15165:	
  4606                           
  4607                           ;LcdMenu.c: 115: {
  4608                           ;LcdMenu.c: 116: if((*String) != '%')
  4609  03B9  2663               	fcall	PL30	;call to abstracted procedure
  4610  03BA  158A  2000  118A   	fcall	stringtab
  4611  03BD  3A25               	xorlw	37
  4612  03BE  1903               	skipnz
  4613  03BF  2C4A               	goto	l15225
  4614                           
  4615                           ;LcdMenu.c: 117: {
  4616                           ;LcdMenu.c: 118: LcdMenu_StrTemp[index] = *String++;
  4617  03C0  083E               	movf	LcdMenu_VPrintf@String+1,w
  4618  03C1  00FF               	movwf	127
  4619  03C2  083D               	movf	LcdMenu_VPrintf@String,w
  4620  03C3  0084               	movwf	4
  4621  03C4  158A  2000  118A   	fcall	stringtab
  4622  03C7  00D3               	movwf	??_LcdMenu_VPrintf
  4623  03C8  1683               	bsf	3,5	;RP0=1, select bank1
  4624  03C9  0867               	movf	LcdMenu_VPrintf@index^(0+128),w
  4625  03CA  3EB2               	addlw	_LcdMenu_StrTemp& (0+255)
  4626  03CB  0084               	movwf	4
  4627  03CC  1283               	bcf	3,5	;RP0=0, select bank0
  4628  03CD  0853               	movf	??_LcdMenu_VPrintf,w
  4629  03CE  1383               	bcf	3,7	;select IRP bank1
  4630  03CF  0080               	movwf	0
  4631  03D0  0ABD               	incf	LcdMenu_VPrintf@String,f
  4632  03D1  1903               	skipnz
  4633  03D2  0ABE               	incf	LcdMenu_VPrintf@String+1,f
  4634                           
  4635                           ;LcdMenu.c: 119: index++;
  4636  03D3  1683               	bsf	3,5	;RP0=1, select bank1
  4637  03D4  0AE7               	incf	LcdMenu_VPrintf@index^(0+128),f
  4638  03D5  1903               	skipnz
  4639  03D6  0AE8               	incf	(LcdMenu_VPrintf@index+1)^(0+128),f
  4640                           
  4641                           ;LcdMenu.c: 120: }
  4642  03D7  2C65               	goto	l15229
  4643  03D8                     l15173:	
  4644                           
  4645                           ;LcdMenu.c: 127: p_Str = (*(const char* *)__va_arg((*(const char* **)pv_Start), (const c
      +                          har*)0));
  4646  03D8  261F  118A         	fcall	PL9	;call to abstracted procedure
  4647  03DA  00E5               	movwf	LcdMenu_VPrintf@p_Str^(0+128)
  4648  03DB  0AE6               	incf	LcdMenu_VPrintf@pv_Start^(0+128),f
  4649  03DC                     l9147:	
  4650                           ;LcdMenu.c: 129: while(*p_Str)
  4651                           
  4652  03DC  0865               	movf	LcdMenu_VPrintf@p_Str^(0+128),w
  4653  03DD  0084               	movwf	4
  4654  03DE  0880               	movf	0,f
  4655  03DF  1903               	btfsc	3,2
  4656  03E0  2C61               	goto	l15227
  4657                           
  4658                           ;LcdMenu.c: 130: {
  4659                           ;LcdMenu.c: 131: LcdMenu_StrTemp[index] = *p_Str++;
  4660  03E1  0865               	movf	LcdMenu_VPrintf@p_Str^(0+128),w
  4661  03E2  260A  118A         	fcall	PL3	;call to abstracted procedure
  4662  03E4  0AE5               	incf	LcdMenu_VPrintf@p_Str^(0+128),f
  4663                           
  4664                           ;LcdMenu.c: 132: index++;
  4665  03E5  0AE7               	incf	LcdMenu_VPrintf@index^(0+128),f
  4666  03E6  1903               	skipnz
  4667  03E7  0AE8               	incf	(LcdMenu_VPrintf@index+1)^(0+128),f
  4668  03E8  2BDC               	goto	l9147
  4669  03E9                     l15183:	
  4670                           
  4671                           ;LcdMenu.c: 139: d1 = (*(unsigned int *)__va_arg((*(unsigned int **)pv_Start), (unsigned
      +                           int)0));
  4672  03E9  261F  118A         	fcall	PL9	;call to abstracted procedure
  4673  03EB  00E0               	movwf	LcdMenu_VPrintf@d1^(0+128)
  4674  03EC  0A84               	incf	4,f
  4675  03ED  0800               	movf	0,w
  4676  03EE  00E1               	movwf	(LcdMenu_VPrintf@d1+1)^(0+128)
  4677  03EF  0AE6               	incf	LcdMenu_VPrintf@pv_Start^(0+128),f
  4678  03F0  0AE6               	incf	LcdMenu_VPrintf@pv_Start^(0+128),f
  4679                           
  4680                           ;LcdMenu.c: 141: myitoa(d1,StrBuf,16);
  4681  03F1  1283               	bcf	3,5	;RP0=0, select bank0
  4682  03F2  00AD               	movwf	?_myitoa+1
  4683  03F3  1683               	bsf	3,5	;RP0=1, select bank1
  4684  03F4  0860               	movf	LcdMenu_VPrintf@d1^(0+128),w
  4685  03F5  1283               	bcf	3,5	;RP0=0, select bank0
  4686  03F6  00AC               	movwf	?_myitoa
  4687  03F7  30CC               	movlw	LcdMenu_VPrintf@StrBuf& (0+255)
  4688  03F8  00AE               	movwf	?_myitoa+2
  4689  03F9  3010               	movlw	16
  4690  03FA  00AF               	movwf	?_myitoa+3
  4691  03FB  01B0               	clrf	?_myitoa+4
  4692  03FC  2474  118A         	fcall	_myitoa
  4693                           
  4694                           ;LcdMenu.c: 143: i = 0;
  4695  03FE  1683               	bsf	3,5	;RP0=1, select bank1
  4696  03FF  01E9               	clrf	LcdMenu_VPrintf@i^(0+128)
  4697  0400                     l9152:	
  4698                           ;LcdMenu.c: 144: while(StrBuf[i] != '\0')
  4699                           
  4700  0400  267C  118A         	fcall	PL36	;call to abstracted procedure
  4701  0402  1903               	btfsc	3,2
  4702  0403  2C61               	goto	l15227
  4703                           
  4704                           ;LcdMenu.c: 145: {
  4705                           ;LcdMenu.c: 146: LcdMenu_StrTemp[index] = StrBuf[i];
  4706  0404  0869               	movf	LcdMenu_VPrintf@i^(0+128),w
  4707  0405  3ECC               	addlw	LcdMenu_VPrintf@StrBuf& (0+255)
  4708                           
  4709                           ;LcdMenu.c: 147: i++;
  4710  0406  260A  118A         	fcall	PL3	;call to abstracted procedure
  4711  0408  0AE9               	incf	LcdMenu_VPrintf@i^(0+128),f
  4712                           
  4713                           ;LcdMenu.c: 148: index++;
  4714  0409  0AE7               	incf	LcdMenu_VPrintf@index^(0+128),f
  4715  040A  1903               	skipnz
  4716  040B  0AE8               	incf	(LcdMenu_VPrintf@index+1)^(0+128),f
  4717  040C  2C00               	goto	l9152
  4718  040D                     l15197:	
  4719                           
  4720                           ;LcdMenu.c: 156: d2 = (*(char *)__va_arg((*(char **)pv_Start), (char)0));
  4721  040D  261F  118A         	fcall	PL9	;call to abstracted procedure
  4722  040F  00E2               	movwf	LcdMenu_VPrintf@d2^(0+128)
  4723  0410  01E3               	clrf	(LcdMenu_VPrintf@d2+1)^(0+128)
  4724  0411  0AE6               	incf	LcdMenu_VPrintf@pv_Start^(0+128),f
  4725  0412  0AE6               	incf	LcdMenu_VPrintf@pv_Start^(0+128),f
  4726                           
  4727                           ;LcdMenu.c: 158: myitoa(d2,StrBuf,10);
  4728  0413  0863               	movf	(LcdMenu_VPrintf@d2+1)^(0+128),w
  4729  0414  1283               	bcf	3,5	;RP0=0, select bank0
  4730  0415  00AD               	movwf	?_myitoa+1
  4731  0416  1683               	bsf	3,5	;RP0=1, select bank1
  4732  0417  0862               	movf	LcdMenu_VPrintf@d2^(0+128),w
  4733  0418  1283               	bcf	3,5	;RP0=0, select bank0
  4734  0419  00AC               	movwf	?_myitoa
  4735  041A  30CC               	movlw	LcdMenu_VPrintf@StrBuf& (0+255)
  4736  041B  00AE               	movwf	?_myitoa+2
  4737  041C  300A               	movlw	10
  4738  041D  00AF               	movwf	?_myitoa+3
  4739  041E  01B0               	clrf	?_myitoa+4
  4740  041F  2474  118A         	fcall	_myitoa
  4741                           
  4742                           ;LcdMenu.c: 160: i = 0;
  4743  0421  1683               	bsf	3,5	;RP0=1, select bank1
  4744  0422  01E9               	clrf	LcdMenu_VPrintf@i^(0+128)
  4745  0423                     l9156:	
  4746                           ;LcdMenu.c: 161: while(StrBuf[i] != '\0')
  4747                           
  4748  0423  267C  118A         	fcall	PL36	;call to abstracted procedure
  4749  0425  1903               	btfsc	3,2
  4750  0426  2C61               	goto	l15227
  4751                           
  4752                           ;LcdMenu.c: 162: {
  4753                           ;LcdMenu.c: 163: LcdMenu_StrTemp[index] = StrBuf[i];
  4754  0427  0869               	movf	LcdMenu_VPrintf@i^(0+128),w
  4755  0428  3ECC               	addlw	LcdMenu_VPrintf@StrBuf& (0+255)
  4756                           
  4757                           ;LcdMenu.c: 164: i++;
  4758  0429  260A  118A         	fcall	PL3	;call to abstracted procedure
  4759  042B  0AE9               	incf	LcdMenu_VPrintf@i^(0+128),f
  4760                           
  4761                           ;LcdMenu.c: 165: index++;
  4762  042C  0AE7               	incf	LcdMenu_VPrintf@index^(0+128),f
  4763  042D  1903               	skipnz
  4764  042E  0AE8               	incf	(LcdMenu_VPrintf@index+1)^(0+128),f
  4765  042F  2C23               	goto	l9156
  4766  0430                     l15211:	
  4767                           
  4768                           ;LcdMenu.c: 172: ch = (*(char *)__va_arg((*(char **)pv_Start), (char)0));
  4769  0430  261F  118A         	fcall	PL9	;call to abstracted procedure
  4770  0432  00E4               	movwf	LcdMenu_VPrintf@ch^(0+128)
  4771  0433  0AE6               	incf	LcdMenu_VPrintf@pv_Start^(0+128),f
  4772  0434  0AE6               	incf	LcdMenu_VPrintf@pv_Start^(0+128),f
  4773                           
  4774                           ;LcdMenu.c: 174: LcdMenu_StrTemp[index] = ch;
  4775  0435  0867               	movf	LcdMenu_VPrintf@index^(0+128),w
  4776  0436  3EB2               	addlw	_LcdMenu_StrTemp& (0+255)
  4777  0437  0084               	movwf	4
  4778  0438  0864               	movf	LcdMenu_VPrintf@ch^(0+128),w
  4779  0439                     L8:	
  4780  0439  0080               	movwf	0
  4781                           
  4782                           ;LcdMenu.c: 176: index++;
  4783  043A  0AE7               	incf	LcdMenu_VPrintf@index^(0+128),f
  4784  043B  1903               	skipnz
  4785  043C  0AE8               	incf	(LcdMenu_VPrintf@index+1)^(0+128),f
  4786                           
  4787                           ;LcdMenu.c: 178: break;
  4788  043D  2C61               	goto	l15227
  4789  043E                     l15217:	
  4790                           
  4791                           ;LcdMenu.c: 182: ch = *String;
  4792  043E  2663               	fcall	PL30	;call to abstracted procedure
  4793  043F  158A  2000  118A   	fcall	stringtab
  4794  0442  1683               	bsf	3,5	;RP0=1, select bank1
  4795  0443  00E4               	movwf	LcdMenu_VPrintf@ch^(0+128)
  4796                           
  4797                           ;LcdMenu.c: 184: LcdMenu_StrTemp[index] = ch;
  4798  0444  0867               	movf	LcdMenu_VPrintf@index^(0+128),w
  4799  0445  3EB2               	addlw	_LcdMenu_StrTemp& (0+255)
  4800  0446  0084               	movwf	4
  4801  0447  0864               	movf	LcdMenu_VPrintf@ch^(0+128),w
  4802  0448  1383               	bcf	3,7	;select IRP bank1
  4803  0449  2C39               	goto	L8
  4804  044A                     l15225:	
  4805  044A  0ABD               	incf	LcdMenu_VPrintf@String,f
  4806  044B  1903               	skipnz
  4807  044C  0ABE               	incf	LcdMenu_VPrintf@String+1,f
  4808  044D  083E               	movf	LcdMenu_VPrintf@String+1,w
  4809  044E  00FF               	movwf	127
  4810  044F  083D               	movf	LcdMenu_VPrintf@String,w
  4811  0450  0084               	movwf	4
  4812  0451  158A  2000  118A   	fcall	stringtab
  4813                           
  4814                           ; Switch size 1, requested type "space"
  4815                           ; Number of cases is 4, Range of values is 99 to 120
  4816                           ; switch strategies available:
  4817                           ; Name         Instructions Cycles
  4818                           ; simple_byte           13     7 (average)
  4819                           ; direct_byte           54    10 (fixed)
  4820                           ; jumptable            263     9 (fixed)
  4821                           ;	Chosen strategy is simple_byte
  4822  0454  3A63               	xorlw	99	; case 99
  4823  0455  1903               	skipnz
  4824  0456  2C30               	goto	l15211
  4825  0457  3A07               	xorlw	7	; case 100
  4826  0458  1903               	skipnz
  4827  0459  2C0D               	goto	l15197
  4828  045A  3A17               	xorlw	23	; case 115
  4829  045B  1903               	skipnz
  4830  045C  2BD8               	goto	l15173
  4831  045D  3A0B               	xorlw	11	; case 120
  4832  045E  1903               	skipnz
  4833  045F  2BE9               	goto	l15183
  4834  0460  2C3E               	goto	l15217
  4835  0461                     l15227:	
  4836                           
  4837                           ;LcdMenu.c: 191: String++;
  4838  0461  1283               	bcf	3,5	;RP0=0, select bank0
  4839  0462  0ABD               	incf	LcdMenu_VPrintf@String,f
  4840  0463  1903               	skipnz
  4841  0464  0ABE               	incf	LcdMenu_VPrintf@String+1,f
  4842  0465                     l15229:	
  4843  0465  1283               	bcf	3,5	;RP0=0, select bank0
  4844  0466  2663               	fcall	PL30	;call to abstracted procedure
  4845  0467  158A  2000  118A   	fcall	stringtab
  4846  046A  3800               	iorlw	0
  4847  046B  1D03               	skipz
  4848  046C  2BB9               	goto	l15165
  4849                           
  4850                           ;LcdMenu.c: 192: }
  4851                           ;LcdMenu.c: 193: }
  4852                           ;LcdMenu.c: 195: LcdMenu_StrTemp[index] = '\0';
  4853  046D  1683               	bsf	3,5	;RP0=1, select bank1
  4854  046E  0867               	movf	LcdMenu_VPrintf@index^(0+128),w
  4855  046F  3EB2               	addlw	_LcdMenu_StrTemp& (0+255)
  4856  0470  0084               	movwf	4
  4857  0471  1383               	bcf	3,7	;select IRP bank1
  4858  0472  0180               	clrf	0
  4859  0473  0008               	return
  4860  0474                     __end_of_LcdMenu_VPrintf:	
  4861  0474                     __ptext671:	
  4862 ;; =============== function _Lcd_WriteCmd ends ============
  4863                           
  4864                           
  4865 ;; *************** function _myitoa *****************
  4866 ;; Defined at:
  4867 ;;		line 43 in file "Code/Driver/LCD/LcdMenu.c"
  4868 ;; Parameters:    Size  Location     Type
  4869 ;;  value           2   12[BANK0 ] int 
  4870 ;;  str             1   14[BANK0 ] PTR unsigned char 
  4871 ;;		 -> LcdMenu_VPrintf@StrBuf(20), 
  4872 ;;  radix           2   15[BANK0 ] int 
  4873 ;; Auto vars:     Size  Location     Type
  4874 ;;  nIndex          2   26[BANK0 ] int 
  4875 ;;  nCount          2   24[BANK0 ] int 
  4876 ;;  nValue          2   22[BANK0 ] unsigned int 
  4877 ;;  pStr            1   28[BANK0 ] PTR unsigned char 
  4878 ;;		 -> LcdMenu_VPrintf@StrBuf(20), 
  4879 ;;  nTemp           1   21[BANK0 ] unsigned char 
  4880 ;; Return value:  Size  Location     Type
  4881 ;;                  1    wreg      PTR unsigned char 
  4882 ;; Registers used:
  4883 ;;		wreg, fsr0l, fsr0h, status,2, status,0, btemp+1, pclath, cstack
  4884 ;; Tracked objects:
  4885 ;;		On entry : 160/0
  4886 ;;		On exit  : 160/0
  4887 ;;		Unchanged: FFE00/0
  4888 ;; Data sizes:     COMMON   BANK0   BANK1   BANK2
  4889 ;;      Params:         0       5       0       0
  4890 ;;      Locals:         0       8       0       0
  4891 ;;      Temps:          0       4       0       0
  4892 ;;      Totals:         0      17       0       0
  4893 ;;Total ram usage:       17 bytes
  4894 ;; Hardware stack levels used:    1
  4895 ;; Hardware stack levels required when called:    3
  4896 ;; This function calls:
  4897 ;;		___lwmod
  4898 ;;		___lwdiv
  4899 ;;		___awdiv
  4900 ;; This function is called by:
  4901 ;;		_LcdMenu_VPrintf
  4902 ;; This function uses a non-reentrant model
  4903 ;;
  4904  0474                     _myitoa:	
  4905                           
  4906                           ;LcdMenu.c: 44: int nCount = -1, nIndex;
  4907                           
  4908                           ; Regs used in _myitoa: [wreg-fsr0h+status,2+status,0+btemp+1+pclath+cstack]
  4909  0474  30FF               	movlw	255
  4910  0475  00B8               	movwf	myitoa@nCount
  4911  0476  00B9               	movwf	myitoa@nCount+1
  4912                           
  4913                           ;LcdMenu.c: 45: char *pStr = str, nTemp;
  4914  0477  082E               	movf	myitoa@str,w
  4915  0478  00BC               	movwf	myitoa@pStr
  4916                           
  4917                           ;LcdMenu.c: 46: unsigned int nValue;
  4918                           ;LcdMenu.c: 49: static char szMap[] =
  4919                           ;LcdMenu.c: 50: {
  4920                           ;LcdMenu.c: 51: '0', '1', '2', '3', '4', '5',
  4921                           ;LcdMenu.c: 52: '6', '7', '8', '9', 'a', 'b',
  4922                           ;LcdMenu.c: 53: 'c', 'd', 'e', 'f', 'g', 'h',
  4923                           ;LcdMenu.c: 54: 'i', 'j', 'k', 'l', 'm', 'n',
  4924                           ;LcdMenu.c: 55: 'o', 'p', 'q', 'r', 's', 't',
  4925                           ;LcdMenu.c: 56: 'u', 'v', 'w', 'x', 'y', 'z'
  4926                           ;LcdMenu.c: 57: };
  4927                           ;LcdMenu.c: 59: if(radix >= 2 && radix <= 36)
  4928  0479  265D  118A         	fcall	PL27	;call to abstracted procedure
  4929  047B  1D03               	skipz
  4930  047C  2C7F               	goto	u2495
  4931  047D  3002               	movlw	2
  4932  047E  022F               	subwf	myitoa@radix,w
  4933  047F                     u2495:	
  4934  047F  1C03               	skipc
  4935  0480  2CFA               	goto	l15135
  4936  0481  1283               	bcf	3,5	;RP0=0, select bank0
  4937  0482  1303               	bcf	3,6	;RP1=0, select bank0
  4938  0483  265D  118A         	fcall	PL27	;call to abstracted procedure
  4939  0485  1D03               	skipz
  4940  0486  2C89               	goto	u2505
  4941  0487  3025               	movlw	37
  4942  0488  022F               	subwf	myitoa@radix,w
  4943  0489                     u2505:	
  4944  0489  1803               	skipnc
  4945  048A  2CFA               	goto	l15135
  4946                           
  4947                           ;LcdMenu.c: 60: {
  4948                           ;LcdMenu.c: 61: if( value < 0 && radix == 10 )
  4949  048B  1283               	bcf	3,5	;RP0=0, select bank0
  4950  048C  1303               	bcf	3,6	;RP1=0, select bank0
  4951  048D  1FAD               	btfss	myitoa@value+1,7
  4952  048E  2C9F               	goto	l15123
  4953  048F  082F               	movf	myitoa@radix,w
  4954  0490  3A0A               	xorlw	10
  4955  0491  0430               	iorwf	myitoa@radix+1,w
  4956  0492  1D03               	skipz
  4957  0493  2C9F               	goto	l15123
  4958                           
  4959                           ;LcdMenu.c: 62: {
  4960                           ;LcdMenu.c: 63: *pStr++ = '-';
  4961  0494  083C               	movf	myitoa@pStr,w
  4962  0495  0084               	movwf	4
  4963  0496  302D               	movlw	45
  4964  0497  1383               	bcf	3,7	;select IRP bank0
  4965  0498  0080               	movwf	0
  4966  0499  0ABC               	incf	myitoa@pStr,f
  4967                           
  4968                           ;LcdMenu.c: 64: value = -value;
  4969  049A  09AC               	comf	myitoa@value,f
  4970  049B  09AD               	comf	myitoa@value+1,f
  4971  049C  0AAC               	incf	myitoa@value,f
  4972  049D  1903               	skipnz
  4973  049E  0AAD               	incf	myitoa@value+1,f
  4974  049F                     l15123:	
  4975                           
  4976                           ;LcdMenu.c: 65: }
  4977                           ;LcdMenu.c: 67: nValue = *(unsigned *)&value;
  4978  049F  082D               	movf	myitoa@value+1,w
  4979  04A0  00B7               	movwf	myitoa@nValue+1
  4980  04A1  082C               	movf	myitoa@value,w
  4981  04A2  00B6               	movwf	myitoa@nValue
  4982  04A3                     l15125:	
  4983                           
  4984                           ;LcdMenu.c: 70: {
  4985                           ;LcdMenu.c: 71: pStr[ ++nCount ] = szMap[ nValue % radix ];
  4986  04A3  0830               	movf	myitoa@radix+1,w
  4987  04A4  00A8               	movwf	?___lwmod+1
  4988  04A5  082F               	movf	myitoa@radix,w
  4989  04A6  00A7               	movwf	?___lwmod
  4990  04A7  0837               	movf	myitoa@nValue+1,w
  4991  04A8  00AA               	movwf	?___lwmod+3
  4992  04A9  0836               	movf	myitoa@nValue,w
  4993  04AA  00A9               	movwf	?___lwmod+2
  4994  04AB  2318  118A         	fcall	___lwmod
  4995  04AD  0827               	movf	?___lwmod,w
  4996  04AE  3E20               	addlw	myitoa@szMap& (0+255)
  4997  04AF  0084               	movwf	4
  4998  04B0  1783               	bsf	3,7	;select IRP bank2
  4999  04B1  0800               	movf	0,w
  5000  04B2  00B1               	movwf	??_myitoa
  5001  04B3  0AB8               	incf	myitoa@nCount,f
  5002  04B4  1903               	skipnz
  5003  04B5  0AB9               	incf	myitoa@nCount+1,f
  5004  04B6  0838               	movf	myitoa@nCount,w
  5005  04B7  073C               	addwf	myitoa@pStr,w
  5006  04B8  00B2               	movwf	??_myitoa+1
  5007  04B9  0084               	movwf	4
  5008  04BA  0831               	movf	??_myitoa,w
  5009  04BB  1383               	bcf	3,7	;select IRP bank0
  5010  04BC  0080               	movwf	0
  5011                           
  5012                           ;LcdMenu.c: 72: nValue /= radix;
  5013  04BD  0830               	movf	myitoa@radix+1,w
  5014  04BE  00A1               	movwf	?___lwdiv+1
  5015  04BF  082F               	movf	myitoa@radix,w
  5016  04C0  00A0               	movwf	?___lwdiv
  5017  04C1  0837               	movf	myitoa@nValue+1,w
  5018  04C2  00A3               	movwf	?___lwdiv+3
  5019  04C3  0836               	movf	myitoa@nValue,w
  5020  04C4  00A2               	movwf	?___lwdiv+2
  5021  04C5  2504  118A         	fcall	___lwdiv
  5022  04C7  0821               	movf	?___lwdiv+1,w
  5023  04C8  00B7               	movwf	myitoa@nValue+1
  5024  04C9  0820               	movf	?___lwdiv,w
  5025  04CA  00B6               	movwf	myitoa@nValue
  5026                           
  5027                           ;LcdMenu.c: 73: } while( nValue > 0 );
  5028  04CB  0437               	iorwf	myitoa@nValue+1,w
  5029  04CC  1D03               	skipz
  5030  04CD  2CA3               	goto	l15125
  5031                           
  5032                           ;LcdMenu.c: 75: nIndex = ( nCount + 1 ) / 2;
  5033  04CE  3002               	movlw	2
  5034  04CF  00A0               	movwf	?___awdiv
  5035  04D0  01A1               	clrf	?___awdiv+1
  5036  04D1  0838               	movf	myitoa@nCount,w
  5037  04D2  3E01               	addlw	1
  5038  04D3  00A2               	movwf	?___awdiv+2
  5039  04D4  0839               	movf	myitoa@nCount+1,w
  5040  04D5  1803               	skipnc
  5041  04D6  3E01               	addlw	1
  5042  04D7  3E00               	addlw	0
  5043  04D8  00A3               	movwf	?___awdiv+3
  5044  04D9  252E  118A         	fcall	___awdiv
  5045  04DB  0821               	movf	?___awdiv+1,w
  5046  04DC  00BB               	movwf	myitoa@nIndex+1
  5047  04DD  0820               	movf	?___awdiv,w
  5048  04DE  00BA               	movwf	myitoa@nIndex
  5049  04DF                     l15133:	
  5050                           ;LcdMenu.c: 77: while( nIndex-- > 0 )
  5051                           
  5052  04DF  30FF               	movlw	-1
  5053  04E0  07BA               	addwf	myitoa@nIndex,f
  5054  04E1  1C03               	skipc
  5055  04E2  03BB               	decf	myitoa@nIndex+1,f
  5056  04E3  1BBB               	btfsc	myitoa@nIndex+1,7
  5057  04E4  2CFA               	goto	l15135
  5058                           
  5059                           ;LcdMenu.c: 78: {
  5060                           ;LcdMenu.c: 79: nTemp = pStr[ nIndex ];
  5061  04E5  083A               	movf	myitoa@nIndex,w
  5062  04E6  073C               	addwf	myitoa@pStr,w
  5063  04E7  00B1               	movwf	??_myitoa
  5064  04E8  0084               	movwf	4
  5065  04E9  0800               	movf	0,w
  5066  04EA  00B5               	movwf	myitoa@nTemp
  5067                           
  5068                           ;LcdMenu.c: 80: pStr[ nIndex ] = pStr[ nCount - nIndex ];
  5069  04EB  2638  118A         	fcall	PL13	;call to abstracted procedure
  5070  04ED  0800               	movf	0,w
  5071  04EE  00B3               	movwf	??_myitoa+2
  5072  04EF  083A               	movf	myitoa@nIndex,w
  5073  04F0  073C               	addwf	myitoa@pStr,w
  5074  04F1  00B4               	movwf	??_myitoa+3
  5075  04F2  0084               	movwf	4
  5076  04F3  0833               	movf	??_myitoa+2,w
  5077  04F4  0080               	movwf	0
  5078                           
  5079                           ;LcdMenu.c: 81: pStr[ nCount - nIndex ] = nTemp;
  5080  04F5  2638  118A         	fcall	PL13	;call to abstracted procedure
  5081  04F7  0835               	movf	myitoa@nTemp,w
  5082  04F8  0080               	movwf	0
  5083  04F9  2CDF               	goto	l15133
  5084  04FA                     l15135:	
  5085                           
  5086                           ;LcdMenu.c: 82: }
  5087                           ;LcdMenu.c: 83: }
  5088                           ;LcdMenu.c: 85: pStr[ nCount + 1 ] = '\0';
  5089  04FA  1283               	bcf	3,5	;RP0=0, select bank0
  5090  04FB  1303               	bcf	3,6	;RP1=0, select bank0
  5091  04FC  0838               	movf	myitoa@nCount,w
  5092  04FD  073C               	addwf	myitoa@pStr,w
  5093  04FE  00B1               	movwf	??_myitoa
  5094  04FF  3E01               	addlw	1
  5095  0500  0084               	movwf	4
  5096  0501  1383               	bcf	3,7	;select IRP bank0
  5097  0502  0180               	clrf	0
  5098  0503  0008               	return
  5099  0504                     __end_of_myitoa:	
  5100  0504                     __ptext677:	
  5101 ;; =============== function ___lwmod ends ============
  5102                           
  5103                           
  5104 ;; *************** function ___lwdiv *****************
  5105 ;; Defined at:
  5106 ;;		line 5 in file "c:\Program Files\HI-TECH Software\PICC\9.83\sources\lwdiv.c"
  5107 ;; Parameters:    Size  Location     Type
  5108 ;;  divisor         2    0[BANK0 ] unsigned int 
  5109 ;;  dividend        2    2[BANK0 ] unsigned int 
  5110 ;; Auto vars:     Size  Location     Type
  5111 ;;  quotient        2    4[BANK0 ] unsigned int 
  5112 ;;  counter         1    6[BANK0 ] unsigned char 
  5113 ;; Return value:  Size  Location     Type
  5114 ;;                  2    0[BANK0 ] unsigned int 
  5115 ;; Registers used:
  5116 ;;		wreg, status,2, status,0
  5117 ;; Tracked objects:
  5118 ;;		On entry : 60/0
  5119 ;;		On exit  : 60/0
  5120 ;;		Unchanged: FFF9F/0
  5121 ;; Data sizes:     COMMON   BANK0   BANK1   BANK2
  5122 ;;      Params:         0       4       0       0
  5123 ;;      Locals:         0       3       0       0
  5124 ;;      Temps:          0       0       0       0
  5125 ;;      Totals:         0       7       0       0
  5126 ;;Total ram usage:        7 bytes
  5127 ;; Hardware stack levels used:    1
  5128 ;; Hardware stack levels required when called:    2
  5129 ;; This function calls:
  5130 ;;		Nothing
  5131 ;; This function is called by:
  5132 ;;		_myitoa
  5133 ;;		_LcdMenu_Normal
  5134 ;;		_LcdMenu_Setup
  5135 ;; This function uses a non-reentrant model
  5136 ;;
  5137  0504                     ___lwdiv:	
  5138                           
  5139                           ; Regs used in ___lwdiv: [wreg+status,2+status,0]
  5140  0504  01A4               	clrf	___lwdiv@quotient
  5141  0505  01A5               	clrf	___lwdiv@quotient+1
  5142  0506  0821               	movf	___lwdiv@divisor+1,w
  5143  0507  0420               	iorwf	___lwdiv@divisor,w
  5144  0508  1903               	skipnz
  5145  0509  2D29               	goto	l14995
  5146  050A  01A6               	clrf	___lwdiv@counter
  5147  050B                     L15:	
  5148  050B  0AA6               	incf	___lwdiv@counter,f
  5149  050C  1BA1               	btfsc	___lwdiv@divisor+1,7
  5150  050D  2D12               	goto	l14983
  5151  050E  1003               	clrc
  5152  050F  0DA0               	rlf	___lwdiv@divisor,f
  5153  0510  0DA1               	rlf	___lwdiv@divisor+1,f
  5154  0511  2D0B               	goto	L15
  5155  0512                     l14983:	
  5156  0512  1003               	clrc
  5157  0513  0DA4               	rlf	___lwdiv@quotient,f
  5158  0514  0DA5               	rlf	___lwdiv@quotient+1,f
  5159  0515  0821               	movf	___lwdiv@divisor+1,w
  5160  0516  0223               	subwf	___lwdiv@dividend+1,w
  5161  0517  1D03               	skipz
  5162  0518  2D1B               	goto	u2285
  5163  0519  0820               	movf	___lwdiv@divisor,w
  5164  051A  0222               	subwf	___lwdiv@dividend,w
  5165  051B                     u2285:	
  5166  051B  1C03               	skipc
  5167  051C  2D25               	goto	L16
  5168  051D  0820               	movf	___lwdiv@divisor,w
  5169  051E  02A2               	subwf	___lwdiv@dividend,f
  5170  051F  0821               	movf	___lwdiv@divisor+1,w
  5171  0520  1C03               	skipc
  5172  0521  03A3               	decf	___lwdiv@dividend+1,f
  5173  0522  02A3               	subwf	___lwdiv@dividend+1,f
  5174  0523  1424               	bsf	___lwdiv@quotient,0
  5175  0524  1003               	clrc
  5176  0525                     L16:	
  5177  0525  0CA1               	rrf	___lwdiv@divisor+1,f
  5178  0526  0CA0               	rrf	___lwdiv@divisor,f
  5179  0527  0BA6               	decfsz	___lwdiv@counter,f
  5180  0528  2D12               	goto	l14983
  5181  0529                     l14995:	
  5182  0529  0825               	movf	___lwdiv@quotient+1,w
  5183  052A  00A1               	movwf	?___lwdiv+1
  5184  052B  0824               	movf	___lwdiv@quotient,w
  5185  052C  00A0               	movwf	?___lwdiv
  5186  052D  0008               	return
  5187  052E                     __end_of___lwdiv:	
  5188  052E                     __ptext673:	
  5189 ;; =============== function _Lcd_CheckBusy ends ============
  5190                           
  5191                           
  5192 ;; *************** function ___awdiv *****************
  5193 ;; Defined at:
  5194 ;;		line 5 in file "c:\Program Files\HI-TECH Software\PICC\9.83\sources\awdiv.c"
  5195 ;; Parameters:    Size  Location     Type
  5196 ;;  divisor         2    0[BANK0 ] int 
  5197 ;;  dividend        2    2[BANK0 ] int 
  5198 ;; Auto vars:     Size  Location     Type
  5199 ;;  quotient        2    6[BANK0 ] int 
  5200 ;;  sign            1    5[BANK0 ] unsigned char 
  5201 ;;  counter         1    4[BANK0 ] unsigned char 
  5202 ;; Return value:  Size  Location     Type
  5203 ;;                  2    0[BANK0 ] int 
  5204 ;; Registers used:
  5205 ;;		wreg, status,2, status,0
  5206 ;; Tracked objects:
  5207 ;;		On entry : 160/0
  5208 ;;		On exit  : 160/0
  5209 ;;		Unchanged: FFE9F/0
  5210 ;; Data sizes:     COMMON   BANK0   BANK1   BANK2
  5211 ;;      Params:         0       4       0       0
  5212 ;;      Locals:         0       4       0       0
  5213 ;;      Temps:          0       0       0       0
  5214 ;;      Totals:         0       8       0       0
  5215 ;;Total ram usage:        8 bytes
  5216 ;; Hardware stack levels used:    1
  5217 ;; Hardware stack levels required when called:    2
  5218 ;; This function calls:
  5219 ;;		Nothing
  5220 ;; This function is called by:
  5221 ;;		_myitoa
  5222 ;; This function uses a non-reentrant model
  5223 ;;
  5224  052E                     ___awdiv:	
  5225                           
  5226                           ; Regs used in ___awdiv: [wreg+status,2+status,0]
  5227  052E  01A5               	clrf	___awdiv@sign
  5228  052F  1FA1               	btfss	___awdiv@divisor+1,7
  5229  0530  2D38               	goto	l15069
  5230  0531  09A0               	comf	___awdiv@divisor,f
  5231  0532  09A1               	comf	___awdiv@divisor+1,f
  5232  0533  0AA0               	incf	___awdiv@divisor,f
  5233  0534  1903               	skipnz
  5234  0535  0AA1               	incf	___awdiv@divisor+1,f
  5235  0536  01A5               	clrf	___awdiv@sign
  5236  0537  0AA5               	incf	___awdiv@sign,f
  5237  0538                     l15069:	
  5238  0538  1FA3               	btfss	___awdiv@dividend+1,7
  5239  0539  2D41               	goto	l15075
  5240  053A  09A2               	comf	___awdiv@dividend,f
  5241  053B  09A3               	comf	___awdiv@dividend+1,f
  5242  053C  0AA2               	incf	___awdiv@dividend,f
  5243  053D  1903               	skipnz
  5244  053E  0AA3               	incf	___awdiv@dividend+1,f
  5245  053F  3001               	movlw	1
  5246  0540  06A5               	xorwf	___awdiv@sign,f
  5247  0541                     l15075:	
  5248  0541  01A6               	clrf	___awdiv@quotient
  5249  0542  01A7               	clrf	___awdiv@quotient+1
  5250  0543  0821               	movf	___awdiv@divisor+1,w
  5251  0544  0420               	iorwf	___awdiv@divisor,w
  5252  0545  1903               	skipnz
  5253  0546  2D66               	goto	l15097
  5254  0547  01A4               	clrf	___awdiv@counter
  5255  0548                     L9:	
  5256  0548  0AA4               	incf	___awdiv@counter,f
  5257  0549  1BA1               	btfsc	___awdiv@divisor+1,7
  5258  054A  2D4F               	goto	l15085
  5259  054B  1003               	clrc
  5260  054C  0DA0               	rlf	___awdiv@divisor,f
  5261  054D  0DA1               	rlf	___awdiv@divisor+1,f
  5262  054E  2D48               	goto	L9
  5263  054F                     l15085:	
  5264  054F  1003               	clrc
  5265  0550  0DA6               	rlf	___awdiv@quotient,f
  5266  0551  0DA7               	rlf	___awdiv@quotient+1,f
  5267  0552  0821               	movf	___awdiv@divisor+1,w
  5268  0553  0223               	subwf	___awdiv@dividend+1,w
  5269  0554  1D03               	skipz
  5270  0555  2D58               	goto	u2455
  5271  0556  0820               	movf	___awdiv@divisor,w
  5272  0557  0222               	subwf	___awdiv@dividend,w
  5273  0558                     u2455:	
  5274  0558  1C03               	skipc
  5275  0559  2D62               	goto	L10
  5276  055A  0820               	movf	___awdiv@divisor,w
  5277  055B  02A2               	subwf	___awdiv@dividend,f
  5278  055C  0821               	movf	___awdiv@divisor+1,w
  5279  055D  1C03               	skipc
  5280  055E  03A3               	decf	___awdiv@dividend+1,f
  5281  055F  02A3               	subwf	___awdiv@dividend+1,f
  5282  0560  1426               	bsf	___awdiv@quotient,0
  5283  0561  1003               	clrc
  5284  0562                     L10:	
  5285  0562  0CA1               	rrf	___awdiv@divisor+1,f
  5286  0563  0CA0               	rrf	___awdiv@divisor,f
  5287  0564  0BA4               	decfsz	___awdiv@counter,f
  5288  0565  2D4F               	goto	l15085
  5289  0566                     l15097:	
  5290  0566  0825               	movf	___awdiv@sign,w
  5291  0567  1903               	btfsc	3,2
  5292  0568  2D6E               	goto	l15101
  5293  0569  09A6               	comf	___awdiv@quotient,f
  5294  056A  09A7               	comf	___awdiv@quotient+1,f
  5295  056B  0AA6               	incf	___awdiv@quotient,f
  5296  056C  1903               	skipnz
  5297  056D  0AA7               	incf	___awdiv@quotient+1,f
  5298  056E                     l15101:	
  5299  056E  0827               	movf	___awdiv@quotient+1,w
  5300  056F  00A1               	movwf	?___awdiv+1
  5301  0570  0826               	movf	___awdiv@quotient,w
  5302  0571  00A0               	movwf	?___awdiv
  5303  0572  0008               	return
  5304  0573                     __end_of___awdiv:	
  5305  0573                     __ptext683:	
  5306 ;; =============== function _ReceiveByte ends ============
  5307                           
  5308                           
  5309 ;; *************** function _SendByte *****************
  5310 ;; Defined at:
  5311 ;;		line 55 in file "Code/Driver/LCD/Lcd.c"
  5312 ;; Parameters:    Size  Location     Type
  5313 ;;  Dbyte           1    wreg     unsigned char 
  5314 ;; Auto vars:     Size  Location     Type
  5315 ;;  Dbyte           1    0[BANK0 ] unsigned char 
  5316 ;;  i               1    2[BANK0 ] unsigned char 
  5317 ;;  temp            1    1[BANK0 ] unsigned char 
  5318 ;; Return value:  Size  Location     Type
  5319 ;;		None               void
  5320 ;; Registers used:
  5321 ;;		wreg, status,2, status,0
  5322 ;; Tracked objects:
  5323 ;;		On entry : 60/0
  5324 ;;		On exit  : 60/0
  5325 ;;		Unchanged: FFE00/0
  5326 ;; Data sizes:     COMMON   BANK0   BANK1   BANK2
  5327 ;;      Params:         0       0       0       0
  5328 ;;      Locals:         0       3       0       0
  5329 ;;      Temps:          0       0       0       0
  5330 ;;      Totals:         0       3       0       0
  5331 ;;Total ram usage:        3 bytes
  5332 ;; Hardware stack levels used:    1
  5333 ;; Hardware stack levels required when called:    2
  5334 ;; This function calls:
  5335 ;;		Nothing
  5336 ;; This function is called by:
  5337 ;;		_Lcd_CheckBusy
  5338 ;;		_Lcd_WriteCmd
  5339 ;;		_Lcd_WriteData
  5340 ;; This function uses a non-reentrant model
  5341 ;;
  5342  0573                     _SendByte:	
  5343                           
  5344                           ; Regs used in _SendByte: [wreg+status,2+status,0]
  5345                           ;SendByte@Dbyte stored from wreg
  5346  0573  00A0               	movwf	SendByte@Dbyte
  5347                           
  5348                           ;Lcd.c: 56: u8 i;
  5349                           ;Lcd.c: 57: u8 temp;
  5350                           ;Lcd.c: 58: for(i=0;i<8;i++)
  5351  0574  01A2               	clrf	SendByte@i
  5352  0575                     l7585:	
  5353                           
  5354                           ;Lcd.c: 59: {
  5355                           ;Lcd.c: 60: (TRISE0=(0));
  5356  0575  1683               	bsf	3,5	;RP0=1, select bank1
  5357  0576  1009               	bcf	9,0
  5358                           
  5359                           ;Lcd.c: 61: (RE0=(0));
  5360  0577  1283               	bcf	3,5	;RP0=0, select bank0
  5361  0578  1009               	bcf	9,0
  5362                           
  5363                           ;Lcd.c: 63: (TRISE1=(0));
  5364  0579  1683               	bsf	3,5	;RP0=1, select bank1
  5365  057A  3000               	movlw	0
  5366  057B  1089               	bcf	9,1
  5367                           
  5368                           ;Lcd.c: 64: temp = (Dbyte&0x80) ? 1 : 0 ;
  5369  057C  1283               	bcf	3,5	;RP0=0, select bank0
  5370  057D  1BA0               	btfsc	SendByte@Dbyte,7
  5371  057E  3001               	movlw	1
  5372  057F  00A1               	movwf	SendByte@temp
  5373                           
  5374                           ;Lcd.c: 65: (RE1=(temp));
  5375  0580  1C21               	btfss	SendByte@temp,0
  5376  0581  2D86               	goto	u2060
  5377  0582  1283               	bcf	3,5	;RP0=0, select bank0
  5378  0583  1303               	bcf	3,6	;RP1=0, select bank0
  5379  0584  1489               	bsf	9,1
  5380  0585  2D89               	goto	l14871
  5381  0586                     u2060:	
  5382  0586  1283               	bcf	3,5	;RP0=0, select bank0
  5383  0587  1303               	bcf	3,6	;RP1=0, select bank0
  5384  0588  1089               	bcf	9,1
  5385  0589                     l14871:	
  5386  0589  3008               	movlw	8
  5387                           
  5388                           ;Lcd.c: 66: (RE0=(1));
  5389  058A  1409               	bsf	9,0
  5390                           
  5391                           ;Lcd.c: 68: (RE0=(0));
  5392  058B  1009               	bcf	9,0
  5393                           
  5394                           ;Lcd.c: 69: Dbyte=Dbyte<<1;
  5395  058C  1003               	clrc
  5396  058D  0DA0               	rlf	SendByte@Dbyte,f
  5397  058E  0AA2               	incf	SendByte@i,f
  5398  058F  0222               	subwf	SendByte@i,w
  5399  0590  1803               	btfsc	3,0
  5400  0591  0008               	return
  5401  0592  2D75               	goto	l7585
  5402  0593                     __end_of_SendByte:	
  5403  0593                     __ptext680:	
  5404 ;; =============== function ___bmul ends ============
  5405                           
  5406                           
  5407 ;; *************** function _LcdMenu_CharMasK *****************
  5408 ;; Defined at:
  5409 ;;		line 242 in file "Code/Driver/LCD/LcdMenu.c"
  5410 ;; Parameters:    Size  Location     Type
  5411 ;;  StrMask         2    0[BANK0 ] PTR unsigned char 
  5412 ;;		 -> STR_8(6), STR_6(6), 
  5413 ;;  Str             1    2[BANK0 ] PTR unsigned char 
  5414 ;;		 -> LcdMenu_StrTemp(20), 
  5415 ;; Auto vars:     Size  Location     Type
  5416 ;;  i               1    6[BANK0 ] unsigned char 
  5417 ;;  j               1    5[BANK0 ] unsigned char 
  5418 ;; Return value:  Size  Location     Type
  5419 ;;		None               void
  5420 ;; Registers used:
  5421 ;;		wreg, fsr0l, fsr0h, status,2, status,0, btemp+1, pclath
  5422 ;; Tracked objects:
  5423 ;;		On entry : 160/0
  5424 ;;		On exit  : 60/0
  5425 ;;		Unchanged: FFE9F/0
  5426 ;; Data sizes:     COMMON   BANK0   BANK1   BANK2
  5427 ;;      Params:         0       3       0       0
  5428 ;;      Locals:         0       2       0       0
  5429 ;;      Temps:          0       2       0       0
  5430 ;;      Totals:         0       7       0       0
  5431 ;;Total ram usage:        7 bytes
  5432 ;; Hardware stack levels used:    1
  5433 ;; Hardware stack levels required when called:    2
  5434 ;; This function calls:
  5435 ;;		Nothing
  5436 ;; This function is called by:
  5437 ;;		_LcdMenu_Normal
  5438 ;; This function uses a non-reentrant model
  5439 ;;
  5440  0593                     _LcdMenu_CharMasK:	
  5441                           
  5442                           ;LcdMenu.c: 243: u8 i = 0;
  5443                           
  5444                           ; Regs used in _LcdMenu_CharMasK: [wreg-fsr0h+status,2+status,0+btemp+1+pclath]
  5445  0593  01A6               	clrf	LcdMenu_CharMasK@i
  5446                           
  5447                           ;LcdMenu.c: 244: u8 j = 0;
  5448  0594  01A5               	clrf	LcdMenu_CharMasK@j
  5449  0595                     l9177:	
  5450                           ;LcdMenu.c: 246: while(Str[i] != '\0' && StrMask[j] != '\0')
  5451                           
  5452  0595  0826               	movf	LcdMenu_CharMasK@i,w
  5453  0596  0722               	addwf	LcdMenu_CharMasK@Str,w
  5454  0597  00A3               	movwf	??_LcdMenu_CharMasK
  5455  0598  0084               	movwf	4
  5456  0599  0880               	movf	0,f
  5457  059A  1903               	skipnz
  5458  059B  0008               	return
  5459  059C  0825               	movf	LcdMenu_CharMasK@j,w
  5460  059D  2656               	fcall	PL26	;call to abstracted procedure
  5461  059E  158A  2000  118A   	fcall	stringtab
  5462  05A1  3800               	iorlw	0
  5463  05A2  1903               	btfsc	3,2
  5464  05A3  0008               	return
  5465                           
  5466                           ;LcdMenu.c: 247: {
  5467                           ;LcdMenu.c: 248: if(Str[i] == StrMask[j] )
  5468  05A4  0825               	movf	LcdMenu_CharMasK@j,w
  5469  05A5  2656               	fcall	PL26	;call to abstracted procedure
  5470  05A6  158A  2000  118A   	fcall	stringtab
  5471  05A9  00A3               	movwf	??_LcdMenu_CharMasK
  5472  05AA  0826               	movf	LcdMenu_CharMasK@i,w
  5473  05AB  0722               	addwf	LcdMenu_CharMasK@Str,w
  5474  05AC  00A4               	movwf	??_LcdMenu_CharMasK+1
  5475  05AD  0084               	movwf	4
  5476  05AE  1383               	bcf	3,7	;select IRP bank0
  5477  05AF  0800               	movf	0,w
  5478  05B0  0623               	xorwf	??_LcdMenu_CharMasK,w
  5479  05B1  1D03               	skipz
  5480  05B2  2DBA               	goto	l14937
  5481                           
  5482                           ;LcdMenu.c: 249: {
  5483                           ;LcdMenu.c: 250: Str[i] = ' ';
  5484  05B3  0826               	movf	LcdMenu_CharMasK@i,w
  5485  05B4  0722               	addwf	LcdMenu_CharMasK@Str,w
  5486  05B5  00A3               	movwf	??_LcdMenu_CharMasK
  5487  05B6  0084               	movwf	4
  5488  05B7  3020               	movlw	32
  5489  05B8  0080               	movwf	0
  5490                           
  5491                           ;LcdMenu.c: 251: j++;
  5492  05B9  0AA5               	incf	LcdMenu_CharMasK@j,f
  5493  05BA                     l14937:	
  5494                           
  5495                           ;LcdMenu.c: 252: }
  5496                           ;LcdMenu.c: 253: i++;
  5497  05BA  0AA6               	incf	LcdMenu_CharMasK@i,f
  5498  05BB  2D95               	goto	l9177
  5499  05BC                     __end_of_LcdMenu_CharMasK:	
  5500  05BC                     __ptext672:	
  5501 ;; =============== function _myitoa ends ============
  5502                           
  5503                           
  5504 ;; *************** function _Lcd_CheckBusy *****************
  5505 ;; Defined at:
  5506 ;;		line 124 in file "Code/Driver/LCD/Lcd.c"
  5507 ;; Parameters:    Size  Location     Type
  5508 ;;		None
  5509 ;; Auto vars:     Size  Location     Type
  5510 ;;		None
  5511 ;; Return value:  Size  Location     Type
  5512 ;;		None               void
  5513 ;; Registers used:
  5514 ;;		wreg, status,2, status,0, pclath, cstack
  5515 ;; Tracked objects:
  5516 ;;		On entry : 60/0
  5517 ;;		On exit  : 60/0
  5518 ;;		Unchanged: FFE00/0
  5519 ;; Data sizes:     COMMON   BANK0   BANK1   BANK2
  5520 ;;      Params:         0       0       0       0
  5521 ;;      Locals:         0       0       0       0
  5522 ;;      Temps:          0       1       0       0
  5523 ;;      Totals:         0       1       0       0
  5524 ;;Total ram usage:        1 bytes
  5525 ;; Hardware stack levels used:    1
  5526 ;; Hardware stack levels required when called:    3
  5527 ;; This function calls:
  5528 ;;		_SendByte
  5529 ;;		_ReceiveByte
  5530 ;; This function is called by:
  5531 ;;		_Lcd_WriteCmd
  5532 ;;		_Lcd_WriteData
  5533 ;; This function uses a non-reentrant model
  5534 ;;
  5535  05BC                     _Lcd_CheckBusy:	
  5536  05BC                     l7599:	
  5537                           ; Regs used in _Lcd_CheckBusy: [wreg+status,2+status,0+pclath+cstack]
  5538                           ;Lcd.c: 125: do SendByte(0xfc);
  5539                           
  5540  05BC  30FC               	movlw	252
  5541  05BD  2573  118A         	fcall	_SendByte
  5542                           
  5543                           ;Lcd.c: 126: while(0x80&ReceiveByte());
  5544  05BF  25C5  118A         	fcall	_ReceiveByte
  5545  05C1  00A4               	movwf	??_Lcd_CheckBusy
  5546  05C2  1FA4               	btfss	??_Lcd_CheckBusy,7
  5547  05C3  0008               	return
  5548  05C4  2DBC               	goto	l7599
  5549  05C5                     __end_of_Lcd_CheckBusy:	
  5550  05C5                     __ptext682:	
  5551 ;; =============== function _LcdMenu_NumMasK ends ============
  5552                           
  5553                           
  5554 ;; *************** function _ReceiveByte *****************
  5555 ;; Defined at:
  5556 ;;		line 82 in file "Code/Driver/LCD/Lcd.c"
  5557 ;; Parameters:    Size  Location     Type
  5558 ;;		None
  5559 ;; Auto vars:     Size  Location     Type
  5560 ;;  i               1    3[BANK0 ] unsigned char 
  5561 ;;  temp2           1    2[BANK0 ] unsigned char 
  5562 ;;  temp1           1    1[BANK0 ] unsigned char 
  5563 ;; Return value:  Size  Location     Type
  5564 ;;                  1    wreg      unsigned char 
  5565 ;; Registers used:
  5566 ;;		wreg, status,2, status,0
  5567 ;; Tracked objects:
  5568 ;;		On entry : 60/0
  5569 ;;		On exit  : 60/0
  5570 ;;		Unchanged: FFF9F/0
  5571 ;; Data sizes:     COMMON   BANK0   BANK1   BANK2
  5572 ;;      Params:         0       0       0       0
  5573 ;;      Locals:         0       3       0       0
  5574 ;;      Temps:          0       1       0       0
  5575 ;;      Totals:         0       4       0       0
  5576 ;;Total ram usage:        4 bytes
  5577 ;; Hardware stack levels used:    1
  5578 ;; Hardware stack levels required when called:    2
  5579 ;; This function calls:
  5580 ;;		Nothing
  5581 ;; This function is called by:
  5582 ;;		_Lcd_CheckBusy
  5583 ;; This function uses a non-reentrant model
  5584 ;;
  5585  05C5                     _ReceiveByte:	
  5586                           
  5587                           ;Lcd.c: 83: u8 i,temp1,temp2;
  5588                           ;Lcd.c: 84: temp1 = 0;
  5589                           
  5590                           ; Regs used in _ReceiveByte: [wreg+status,2+status,0]
  5591  05C5  01A1               	clrf	ReceiveByte@temp1
  5592                           
  5593                           ;Lcd.c: 85: temp2 = 0;
  5594  05C6  01A2               	clrf	ReceiveByte@temp2
  5595                           
  5596                           ;Lcd.c: 86: for(i=0;i<8;i++)
  5597  05C7  01A3               	clrf	ReceiveByte@i
  5598                           
  5599                           ;Lcd.c: 87: {
  5600                           ;Lcd.c: 88: temp1=temp1<<1;
  5601  05C8  1003               	clrc
  5602  05C9                     L17:	
  5603  05C9  0DA1               	rlf	ReceiveByte@temp1,f
  5604                           
  5605                           ;Lcd.c: 89: (TRISE0=(0));
  5606  05CA  1683               	bsf	3,5	;RP0=1, select bank1
  5607                           
  5608                           ;Lcd.c: 90: (RE0=(0));
  5609                           
  5610                           ;Lcd.c: 92: (RE0=(1));
  5611                           
  5612                           ;Lcd.c: 94: (RE0=(0));
  5613                           
  5614                           ;Lcd.c: 95: (TRISE1=(1));
  5615                           
  5616                           ;Lcd.c: 96: if((RE1)) temp1++;
  5617  05CB  262F  118A         	fcall	PL12	;call to abstracted procedure
  5618  05CD  1889               	btfsc	9,1
  5619  05CE  0AA1               	incf	ReceiveByte@temp1,f
  5620  05CF  3008               	movlw	8
  5621  05D0  0AA3               	incf	ReceiveByte@i,f
  5622  05D1  0223               	subwf	ReceiveByte@i,w
  5623  05D2  1C03               	skipc
  5624  05D3  2DC9               	goto	L17
  5625                           
  5626                           ;Lcd.c: 97: }
  5627                           ;Lcd.c: 99: for(i=0;i<8;i++)
  5628  05D4  01A3               	clrf	ReceiveByte@i
  5629                           
  5630                           ;Lcd.c: 100: {
  5631                           ;Lcd.c: 101: temp2=temp2<<1;
  5632  05D5  1003               	clrc
  5633  05D6                     L18:	
  5634  05D6  0DA2               	rlf	ReceiveByte@temp2,f
  5635                           
  5636                           ;Lcd.c: 102: (TRISE0=(0));
  5637  05D7  1683               	bsf	3,5	;RP0=1, select bank1
  5638                           
  5639                           ;Lcd.c: 103: (RE0=(0));
  5640                           
  5641                           ;Lcd.c: 105: (RE0=(1));
  5642                           
  5643                           ;Lcd.c: 107: (RE0=(0));
  5644                           
  5645                           ;Lcd.c: 108: (TRISE1=(1));
  5646                           
  5647                           ;Lcd.c: 109: if((RE1)) temp2++;
  5648  05D8  262F  118A         	fcall	PL12	;call to abstracted procedure
  5649  05DA  1889               	btfsc	9,1
  5650  05DB  0AA2               	incf	ReceiveByte@temp2,f
  5651  05DC  3008               	movlw	8
  5652  05DD  0AA3               	incf	ReceiveByte@i,f
  5653  05DE  0223               	subwf	ReceiveByte@i,w
  5654  05DF  1C03               	skipc
  5655  05E0  2DD6               	goto	L18
  5656                           
  5657                           ;Lcd.c: 110: }
  5658                           ;Lcd.c: 112: return ((0xf0&temp1)+(0x0f&(temp2>>4));
  5659  05E1  30F0               	movlw	240
  5660  05E2  0521               	andwf	ReceiveByte@temp1,w
  5661  05E3  00A0               	movwf	??_ReceiveByte
  5662  05E4  0E22               	swapf	ReceiveByte@temp2,w
  5663  05E5  390F               	andlw	15
  5664  05E6  0720               	addwf	??_ReceiveByte,w
  5665  05E7  0008               	return
  5666  05E8                     __end_of_ReceiveByte:	
  5667  05E8                     __ptext669:	
  5668 ;; =============== function _LcdMenu_VPrintf ends ============
  5669                           
  5670                           
  5671 ;; *************** function _Lcd_WriteData *****************
  5672 ;; Defined at:
  5673 ;;		line 174 in file "Code/Driver/LCD/Lcd.c"
  5674 ;; Parameters:    Size  Location     Type
  5675 ;;  Dbyte           1    wreg     unsigned char 
  5676 ;; Auto vars:     Size  Location     Type
  5677 ;;  Dbyte           1    5[BANK0 ] unsigned char 
  5678 ;; Return value:  Size  Location     Type
  5679 ;;		None               void
  5680 ;; Registers used:
  5681 ;;		wreg, status,2, status,0, pclath, cstack
  5682 ;; Tracked objects:
  5683 ;;		On entry : 160/0
  5684 ;;		On exit  : 60/0
  5685 ;;		Unchanged: FFE00/0
  5686 ;; Data sizes:     COMMON   BANK0   BANK1   BANK2
  5687 ;;      Params:         0       0       0       0
  5688 ;;      Locals:         0       1       0       0
  5689 ;;      Temps:          0       0       0       0
  5690 ;;      Totals:         0       1       0       0
  5691 ;;Total ram usage:        1 bytes
  5692 ;; Hardware stack levels used:    1
  5693 ;; Hardware stack levels required when called:    4
  5694 ;; This function calls:
  5695 ;;		_Lcd_CheckBusy
  5696 ;;		_SendByte
  5697 ;; This function is called by:
  5698 ;;		_Lcd_StrDisp
  5699 ;; This function uses a non-reentrant model
  5700 ;;
  5701  05E8                     _Lcd_WriteData:	
  5702                           
  5703                           ; Regs used in _Lcd_WriteData: [wreg+status,2+status,0+pclath+cstack]
  5704                           ;Lcd_WriteData@Dbyte stored from wreg
  5705  05E8  00A5               	movwf	Lcd_WriteData@Dbyte
  5706                           
  5707                           ;Lcd.c: 175: (TRISE2=(0));
  5708                           
  5709                           ;Lcd.c: 176: (RE2=(1));
  5710  05E9  2668  118A         	fcall	PL31	;call to abstracted procedure
  5711                           
  5712                           ;Lcd.c: 177: Lcd_CheckBusy();
  5713  05EB  25BC  118A         	fcall	_Lcd_CheckBusy
  5714                           
  5715                           ;Lcd.c: 178: SendByte(0xfa);
  5716  05ED  30FA               	movlw	250
  5717  05EE  2573  118A         	fcall	_SendByte
  5718                           
  5719                           ;Lcd.c: 179: SendByte(0xf0&Dbyte);
  5720  05F0  0825               	movf	Lcd_WriteData@Dbyte,w
  5721  05F1  39F0               	andlw	240
  5722  05F2  2573  118A         	fcall	_SendByte
  5723                           
  5724                           ;Lcd.c: 180: SendByte(0xf0&Dbyte<<4);
  5725  05F4  0E25               	swapf	Lcd_WriteData@Dbyte,w
  5726  05F5  39F0               	andlw	240
  5727  05F6  2573               	fcall	_SendByte
  5728                           
  5729                           ;Lcd.c: 181: (RE2=(0));
  5730  05F7  1109               	bcf	9,2
  5731  05F8  0008               	return
  5732  05F9                     __end_of_Lcd_WriteData:	
  5733  05F9                     PL2:	
  5734  05F9  082F               	movf	LcdMenu_Setup@Index^(0+128),w
  5735  05FA  1283               	bcf	3,5	;RP0=0, select bank0
  5736  05FB  00D5               	movwf	??_LcdMenu_Setup
  5737  05FC  305D               	movlw	LcdMenu_Setup@num& (0+255)
  5738  05FD  1003               	clrc
  5739  05FE  0DD5               	rlf	??_LcdMenu_Setup,f
  5740  05FF  1003               	clrc
  5741  0600  0DD5               	rlf	??_LcdMenu_Setup,f
  5742  0601  0755               	addwf	??_LcdMenu_Setup,w
  5743  0602  00D6               	movwf	??_LcdMenu_Setup+1
  5744  0603  1683               	bsf	3,5	;RP0=1, select bank1
  5745  0604  0830               	movf	LcdMenu_Setup@Section^(0+128),w
  5746  0605  1283               	bcf	3,5	;RP0=0, select bank0
  5747  0606  0756               	addwf	??_LcdMenu_Setup+1,w
  5748  0607  00D7               	movwf	??_LcdMenu_Setup+2
  5749  0608  0084               	movwf	4
  5750  0609  0008               	return
  5751  060A                     PL3:	
  5752  060A  0084               	movwf	4
  5753  060B  0800               	movf	0,w
  5754  060C  1283               	bcf	3,5	;RP0=0, select bank0
  5755  060D  00D3               	movwf	??_LcdMenu_VPrintf
  5756  060E  1683               	bsf	3,5	;RP0=1, select bank1
  5757  060F  0867               	movf	LcdMenu_VPrintf@index^(0+128),w
  5758  0610  3EB2               	addlw	_LcdMenu_StrTemp& (0+255)
  5759  0611  0084               	movwf	4
  5760  0612  1283               	bcf	3,5	;RP0=0, select bank0
  5761  0613  0853               	movf	??_LcdMenu_VPrintf,w
  5762  0614  0080               	movwf	0
  5763  0615  1683               	bsf	3,5	;RP0=1, select bank1
  5764  0616  0008               	return
  5765  0617                     PL7:	
  5766  0617  0854               	movf	LcdMenu_Setup@pParam,w
  5767  0618  0084               	movwf	4
  5768  0619  0800               	movf	0,w
  5769  061A  00A2               	movwf	?___lwdiv+2
  5770  061B  0A84               	incf	4,f
  5771  061C  0800               	movf	0,w
  5772  061D  00A3               	movwf	?___lwdiv+3
  5773  061E  0008               	return
  5774  061F                     PL9:	
  5775  061F  1683               	bsf	3,5	;RP0=1, select bank1
  5776  0620  0866               	movf	LcdMenu_VPrintf@pv_Start^(0+128),w
  5777  0621  0084               	movwf	4
  5778  0622  1383               	bcf	3,7	;select IRP bank0
  5779  0623  0800               	movf	0,w
  5780  0624  0008               	return
  5781  0625                     PL10:	
  5782  0625  1283               	bcf	3,5	;RP0=0, select bank0
  5783  0626  30B2               	movlw	_LcdMenu_StrTemp& (0+255)
  5784  0627  01A6               	clrf	?_Lcd_StrDisp
  5785  0628  00A7               	movwf	?_Lcd_StrDisp+1
  5786  0629  3401               	retlw	1
  5787  062A                     PL11:	
  5788  062A  1283               	bcf	3,5	;RP0=0, select bank0
  5789  062B  30B2               	movlw	_LcdMenu_StrTemp& (0+255)
  5790  062C  01A6               	clrf	?_Lcd_StrDisp
  5791  062D  00A7               	movwf	?_Lcd_StrDisp+1
  5792  062E  3400               	retlw	0
  5793  062F                     PL12:	
  5794  062F  1009               	bcf	9,0
  5795  0630  1283               	bcf	3,5	;RP0=0, select bank0
  5796  0631  1009               	bcf	9,0
  5797  0632  1409               	bsf	9,0
  5798  0633  1009               	bcf	9,0
  5799  0634  1683               	bsf	3,5	;RP0=1, select bank1
  5800  0635  1489               	bsf	9,1
  5801  0636  1283               	bcf	3,5	;RP0=0, select bank0
  5802  0637  0008               	return
  5803  0638                     PL13:	
  5804  0638  083C               	movf	myitoa@pStr,w
  5805  0639  00B1               	movwf	??_myitoa
  5806  063A  083A               	movf	myitoa@nIndex,w
  5807  063B  02B1               	subwf	??_myitoa,f
  5808  063C  0838               	movf	myitoa@nCount,w
  5809  063D  0731               	addwf	??_myitoa,w
  5810  063E  00B2               	movwf	??_myitoa+1
  5811  063F  0084               	movwf	4
  5812  0640  0008               	return
  5813  0641                     PL14:	
  5814  0641  300A               	movlw	10
  5815  0642  00A7               	movwf	?___lwmod
  5816  0643  30E8               	movlw	232
  5817  0644  01A8               	clrf	?___lwmod+1
  5818  0645  00A0               	movwf	?___lwdiv
  5819  0646  3003               	movlw	3
  5820  0647  00A1               	movwf	?___lwdiv+1
  5821  0648  0008               	return
  5822  0649                     PL15:	
  5823  0649  01A8               	clrf	?___lwmod+1
  5824  064A  00A0               	movwf	?___lwdiv
  5825  064B  01A1               	clrf	?___lwdiv+1
  5826  064C  0855               	movf	LcdMenu_Normal@PaperNum+1,w
  5827  064D  00A3               	movwf	?___lwdiv+3
  5828  064E  0854               	movf	LcdMenu_Normal@PaperNum,w
  5829  064F  00A2               	movwf	?___lwdiv+2
  5830  0650  0008               	return
  5831  0651                     PL25:	
  5832  0651  0821               	movf	?___lwdiv+1,w
  5833  0652  00AA               	movwf	?___lwmod+3
  5834  0653  0820               	movf	?___lwdiv,w
  5835  0654  00A9               	movwf	?___lwmod+2
  5836  0655  0008               	return
  5837  0656                     PL26:	
  5838  0656  0720               	addwf	LcdMenu_CharMasK@StrMask,w
  5839  0657  0084               	movwf	4
  5840  0658  0821               	movf	LcdMenu_CharMasK@StrMask+1,w
  5841  0659  1803               	skipnc
  5842  065A  0A21               	incf	LcdMenu_CharMasK@StrMask+1,w
  5843  065B  00FF               	movwf	127
  5844  065C  0008               	return
  5845  065D                     PL27:	
  5846  065D  0830               	movf	myitoa@radix+1,w
  5847  065E  3A80               	xorlw	128
  5848  065F  00FF               	movwf	127
  5849  0660  3080               	movlw	128
  5850  0661  027F               	subwf	127,w
  5851  0662  0008               	return
  5852  0663                     PL30:	
  5853  0663  083E               	movf	LcdMenu_VPrintf@String+1,w
  5854  0664  00FF               	movwf	127
  5855  0665  083D               	movf	LcdMenu_VPrintf@String,w
  5856  0666  0084               	movwf	4
  5857  0667  0008               	return
  5858  0668                     PL31:	
  5859  0668  1683               	bsf	3,5	;RP0=1, select bank1
  5860  0669  1109               	bcf	9,2
  5861  066A  1283               	bcf	3,5	;RP0=0, select bank0
  5862  066B  1509               	bsf	9,2
  5863  066C  0008               	return
  5864  066D                     PL32:	
  5865  066D  0854               	movf	LcdMenu_Setup@pParam,w
  5866  066E  3E03               	addlw	3
  5867  066F  0084               	movwf	4
  5868  0670  0800               	movf	0,w
  5869  0671  0008               	return
  5870  0672                     PL34:	
  5871  0672  0854               	movf	LcdMenu_Setup@pParam,w
  5872  0673  3E02               	addlw	2
  5873  0674  0084               	movwf	4
  5874  0675  0800               	movf	0,w
  5875  0676  0008               	return
  5876  0677                     PL35:	
  5877  0677  0854               	movf	LcdMenu_Setup@pParam,w
  5878  0678  3E04               	addlw	4
  5879  0679  0084               	movwf	4
  5880  067A  0800               	movf	0,w
  5881  067B  0008               	return
  5882  067C                     PL36:	
  5883  067C  0869               	movf	LcdMenu_VPrintf@i^(0+128),w
  5884  067D  3ECC               	addlw	LcdMenu_VPrintf@StrBuf& (0+255)
  5885  067E  0084               	movwf	4
  5886  067F  0880               	movf	0,f
  5887  0680  0008               	return
  5888  0681                     PL37:	
  5889  0681  0854               	movf	LcdMenu_Setup@pParam,w
  5890  0682  3E05               	addlw	5
  5891  0683  0084               	movwf	4
  5892  0684  0800               	movf	0,w
  5893  0685  0008               	return
  5894                           
  5895                           	psect	text685
  5896  0CB9                     __ptext685:	
  5897 ;; =============== function _Lcd_Delay ends ============
  5898                           
  5899                           
  5900 ;; *************** function _Key_GetEvent *****************
  5901 ;; Defined at:
  5902 ;;		line 44 in file "Code/Driver/Key/Key.c"
  5903 ;; Parameters:    Size  Location     Type
  5904 ;;		None
  5905 ;; Auto vars:     Size  Location     Type
  5906 ;;  key             1    0[BANK0 ] unsigned char 
  5907 ;; Return value:  Size  Location     Type
  5908 ;;                  1    wreg      unsigned char 
  5909 ;; Registers used:
  5910 ;;		wreg, fsr0l, fsr0h, status,2, status,0
  5911 ;; Tracked objects:
  5912 ;;		On entry : 60/0
  5913 ;;		On exit  : 40/0
  5914 ;;		Unchanged: FFE9F/0
  5915 ;; Data sizes:     COMMON   BANK0   BANK1   BANK2
  5916 ;;      Params:         0       0       0       0
  5917 ;;      Locals:         0       1       0       0
  5918 ;;      Temps:          0       0       0       0
  5919 ;;      Totals:         0       1       0       0
  5920 ;;Total ram usage:        1 bytes
  5921 ;; Hardware stack levels used:    1
  5922 ;; Hardware stack levels required when called:    2
  5923 ;; This function calls:
  5924 ;;		Nothing
  5925 ;; This function is called by:
  5926 ;;		_main
  5927 ;; This function uses a non-reentrant model
  5928 ;;
  5929  0CB9                     _Key_GetEvent:	
  5930                           
  5931                           ;Key.c: 45: u8 key;
  5932                           ;Key.c: 47: if(st_Event_EventMage.FiFoHead == st_Event_EventMage.FiFoTail)
  5933                           
  5934                           ; Regs used in _Key_GetEvent: [wreg-fsr0h+status,2+status,0]
  5935  0CB9  1683               	bsf	3,5	;RP0=1, select bank1
  5936  0CBA  0828               	movf	(_st_Event_EventMage^(0+128)+8),w
  5937  0CBB  0629               	xorwf	(_st_Event_EventMage^(0+128)+9),w
  5938  0CBC  1903               	btfsc	3,2
  5939                           
  5940                           ;Key.c: 48: {
  5941                           ;Key.c: 49: return EVENT_NONE;
  5942  0CBD  3400               	retlw	0
  5943                           
  5944                           ;Key.c: 50: }
  5945                           ;Key.c: 51: key = st_Event_EventMage.EventFiFo[st_Event_EventMage.FiFoHead];
  5946  0CBE  0828               	movf	(_st_Event_EventMage^(0+128)+8),w
  5947  0CBF  3EA0               	addlw	_st_Event_EventMage& (0+255)
  5948  0CC0  0084               	movwf	4
  5949  0CC1  1383               	bcf	3,7	;select IRP bank1
  5950  0CC2  0800               	movf	0,w
  5951  0CC3  1283               	bcf	3,5	;RP0=0, select bank0
  5952  0CC4  00A0               	movwf	Key_GetEvent@key
  5953                           
  5954                           ;Key.c: 52: st_Event_EventMage.FiFoHead = (++st_Event_EventMage.FiFoHead)%8;
  5955  0CC5  1683               	bsf	3,5	;RP0=1, select bank1
  5956  0CC6  3007               	movlw	7
  5957  0CC7  0AA8               	incf	(_st_Event_EventMage^(0+128)+8),f
  5958  0CC8  05A8               	andwf	(_st_Event_EventMage^(0+128)+8),f
  5959                           
  5960                           ;Key.c: 53: return key;
  5961  0CC9  1283               	bcf	3,5	;RP0=0, select bank0
  5962  0CCA  0820               	movf	Key_GetEvent@key,w
  5963  0CCB  0008               	return
  5964  0CCC                     __end_of_Key_GetEvent:	
  5965                           
  5966                           	psect	text688
  5967  0CA9                     __ptext688:	
  5968 ;; =============== function _BspEeprom_SaveParam ends ============
  5969                           
  5970                           
  5971 ;; *************** function _BspSystem_TmrInit *****************
  5972 ;; Defined at:
  5973 ;;		line 82 in file "Code/Driver/BSP/BspSystem.c"
  5974 ;; Parameters:    Size  Location     Type
  5975 ;;		None
  5976 ;; Auto vars:     Size  Location     Type
  5977 ;;		None
  5978 ;; Return value:  Size  Location     Type
  5979 ;;		None               void
  5980 ;; Registers used:
  5981 ;;		wreg
  5982 ;; Tracked objects:
  5983 ;;		On entry : 60/0
  5984 ;;		On exit  : 60/0
  5985 ;;		Unchanged: FFF9F/0
  5986 ;; Data sizes:     COMMON   BANK0   BANK1   BANK2
  5987 ;;      Params:         0       0       0       0
  5988 ;;      Locals:         0       0       0       0
  5989 ;;      Temps:          0       0       0       0
  5990 ;;      Totals:         0       0       0       0
  5991 ;;Total ram usage:        0 bytes
  5992 ;; Hardware stack levels used:    1
  5993 ;; Hardware stack levels required when called:    2
  5994 ;; This function calls:
  5995 ;;		Nothing
  5996 ;; This function is called by:
  5997 ;;		_main
  5998 ;; This function uses a non-reentrant model
  5999 ;;
  6000  0CA9                     _BspSystem_TmrInit:	
  6001                           
  6002                           ;BspSystem.c: 87: SCS = 1;
  6003                           
  6004                           ; Regs used in _BspSystem_TmrInit: [wreg]
  6005  0CA9  1683               	bsf	3,5	;RP0=1, select bank1
  6006  0CAA  30B3               	movlw	179
  6007  0CAB  140F               	bsf	15,0
  6008                           
  6009                           ;BspSystem.c: 89: IRCF0 = 1;
  6010  0CAC  160F               	bsf	15,4
  6011                           
  6012                           ;BspSystem.c: 90: IRCF1 = 1;
  6013  0CAD  168F               	bsf	15,5
  6014                           
  6015                           ;BspSystem.c: 91: IRCF2 = 1;
  6016  0CAE  170F               	bsf	15,6
  6017                           
  6018                           ;BspSystem.c: 95: PSA=0;
  6019  0CAF  1181               	bcf	1,3
  6020                           
  6021                           ;BspSystem.c: 96: T0CS=0;
  6022  0CB0  1281               	bcf	1,5
  6023                           
  6024                           ;BspSystem.c: 98: PS0=1;PS1=0;PS2=1;
  6025  0CB1  1401               	bsf	1,0
  6026  0CB2  1081               	bcf	1,1
  6027  0CB3  1501               	bsf	1,2
  6028                           
  6029                           ;BspSystem.c: 100: TMR0=179;
  6030  0CB4  1283               	bcf	3,5	;RP0=0, select bank0
  6031  0CB5  0081               	movwf	1	;volatile
  6032                           
  6033                           ;BspSystem.c: 102: T0IE=1;
  6034  0CB6  168B               	bsf	11,5
  6035                           
  6036                           ;BspSystem.c: 103: GIE=1;
  6037  0CB7  178B               	bsf	11,7
  6038  0CB8  0008               	return
  6039  0CB9                     __end_of_BspSystem_TmrInit:	
  6040                           
  6041                           	psect	text689
  6042  0686                     __ptext689:	
  6043 ;; =============== function _BspSystem_TmrInit ends ============
  6044                           
  6045                           
  6046 ;; *************** function _IRQ *****************
  6047 ;; Defined at:
  6048 ;;		line 48 in file "Code/Driver/BSP/BspSystem.c"
  6049 ;; Parameters:    Size  Location     Type
  6050 ;;		None
  6051 ;; Auto vars:     Size  Location     Type
  6052 ;;  KeyTemp         2   10[COMMON] unsigned short 
  6053 ;;  TimeBase0       1    9[COMMON] unsigned char 
  6054 ;; Return value:  Size  Location     Type
  6055 ;;		None               void
  6056 ;; Registers used:
  6057 ;;		wreg, fsr0l, fsr0h, status,2, status,0, pclath, cstack
  6058 ;; Tracked objects:
  6059 ;;		On entry : 0/0
  6060 ;;		On exit  : 0/0
  6061 ;;		Unchanged: FFE9F/0
  6062 ;; Data sizes:     COMMON   BANK0   BANK1   BANK2
  6063 ;;      Params:         0       0       0       0
  6064 ;;      Locals:         3       0       0       0
  6065 ;;      Temps:          3       0       0       0
  6066 ;;      Totals:         6       0       0       0
  6067 ;;Total ram usage:        6 bytes
  6068 ;; Hardware stack levels used:    1
  6069 ;; Hardware stack levels required when called:    1
  6070 ;; This function calls:
  6071 ;;		_Key_Scan
  6072 ;;		_Key_Debounce
  6073 ;;		_Key_PutEvent
  6074 ;; This function is called by:
  6075 ;;		Interrupt level 1
  6076 ;; This function uses a non-reentrant model
  6077 ;;
  6078  0686                     _IRQ:	
  6079                           
  6080                           ;BspSystem.c: 49: u8 TimeBase0;
  6081                           ;BspSystem.c: 50: u16 KeyTemp;
  6082                           ;BspSystem.c: 52: if(T0IF&&T0IE)
  6083  0686  190B               	btfsc	11,2
  6084  0687  1E8B               	btfss	11,5
  6085  0688  2EAB               	goto	i1l2994
  6086                           
  6087                           ;BspSystem.c: 53: {
  6088                           ;BspSystem.c: 54: TMR0=179;
  6089  0689  30B3               	movlw	179
  6090  068A  1283               	bcf	3,5	;RP0=0, select bank0
  6091  068B  1303               	bcf	3,6	;RP1=0, select bank0
  6092  068C  0081               	movwf	1	;volatile
  6093                           
  6094                           ;BspSystem.c: 56: KeyTemp = Key_Scan();
  6095  068D  26B4  118A         	fcall	_Key_Scan
  6096  068F  0871               	movf	?_Key_Scan+1,w
  6097  0690  00FB               	movwf	IRQ@KeyTemp+1
  6098  0691  0870               	movf	?_Key_Scan,w
  6099  0692  00FA               	movwf	IRQ@KeyTemp
  6100                           
  6101                           ;BspSystem.c: 58: KeyTemp = Key_Debounce(KeyTemp);
  6102  0693  087B               	movf	IRQ@KeyTemp+1,w
  6103  0694  00F1               	movwf	?_Key_Debounce+1
  6104  0695  087A               	movf	IRQ@KeyTemp,w
  6105  0696  00F0               	movwf	?_Key_Debounce
  6106  0697  2708  118A         	fcall	_Key_Debounce
  6107  0699  0871               	movf	?_Key_Debounce+1,w
  6108  069A  00FB               	movwf	IRQ@KeyTemp+1
  6109  069B  0870               	movf	?_Key_Debounce,w
  6110  069C  00FA               	movwf	IRQ@KeyTemp
  6111                           
  6112                           ;BspSystem.c: 60: Key_PutEvent(KeyTemp);
  6113  069D  087B               	movf	IRQ@KeyTemp+1,w
  6114  069E  00F1               	movwf	?_Key_PutEvent+1
  6115  069F  087A               	movf	IRQ@KeyTemp,w
  6116  06A0  00F0               	movwf	?_Key_PutEvent
  6117  06A1  273E  118A         	fcall	_Key_PutEvent
  6118                           
  6119                           ;BspSystem.c: 63: if(++TimeBase0 == 100)
  6120  06A3  0AF9               	incf	IRQ@TimeBase0,f
  6121  06A4  0879               	movf	IRQ@TimeBase0,w
  6122  06A5  3A64               	xorlw	100
  6123  06A6  1D03               	skipz
  6124  06A7  2EAA               	goto	i1l14533
  6125                           
  6126                           ;BspSystem.c: 66: u8_Timer_Flash = ~u8_Timer_Flash;
  6127  06A8  30FF               	movlw	255
  6128  06A9  06B1               	xorwf	_u8_Timer_Flash^(0+128),f
  6129  06AA                     i1l14533:	
  6130                           
  6131                           ;BspSystem.c: 67: }
  6132                           ;BspSystem.c: 69: T0IF=0;
  6133  06AA  110B               	bcf	11,2
  6134  06AB                     i1l2994:	
  6135  06AB  0878               	movf	??_IRQ+2,w
  6136  06AC  008A               	movwf	10
  6137  06AD  0877               	movf	??_IRQ+1,w
  6138  06AE  0084               	movwf	4
  6139  06AF  0E76               	swapf	??_IRQ^(0+-128),w
  6140  06B0  0083               	movwf	3
  6141  06B1  0EFE               	swapf	126,f
  6142  06B2  0E7E               	swapf	126,w
  6143  06B3  0009               	retfie
  6144  06B4                     __end_of_IRQ:	
  6145  06B4                     __ptext692:	
  6146 ;; =============== function _Key_Debounce ends ============
  6147                           
  6148                           
  6149 ;; *************** function _Key_Scan *****************
  6150 ;; Defined at:
  6151 ;;		line 187 in file "Code/Driver/Key/Key.c"
  6152 ;; Parameters:    Size  Location     Type
  6153 ;;		None
  6154 ;; Auto vars:     Size  Location     Type
  6155 ;;  State           2    2[COMMON] unsigned short 
  6156 ;;  i               1    4[COMMON] unsigned char 
  6157 ;; Return value:  Size  Location     Type
  6158 ;;                  2    0[COMMON] unsigned short 
  6159 ;; Registers used:
  6160 ;;		wreg, status,2, status,0
  6161 ;; Tracked objects:
  6162 ;;		On entry : 60/0
  6163 ;;		On exit  : 60/0
  6164 ;;		Unchanged: FFF9F/0
  6165 ;; Data sizes:     COMMON   BANK0   BANK1   BANK2
  6166 ;;      Params:         2       0       0       0
  6167 ;;      Locals:         3       0       0       0
  6168 ;;      Temps:          0       0       0       0
  6169 ;;      Totals:         5       0       0       0
  6170 ;;Total ram usage:        5 bytes
  6171 ;; Hardware stack levels used:    1
  6172 ;; This function calls:
  6173 ;;		Nothing
  6174 ;; This function is called by:
  6175 ;;		_IRQ
  6176 ;; This function uses a non-reentrant model
  6177 ;;
  6178  06B4                     _Key_Scan:	
  6179                           
  6180                           ;Key.c: 188: u16 State = 0;
  6181                           
  6182                           ; Regs used in _Key_Scan: [wreg+status,2+status,0]
  6183  06B4  01F2               	clrf	Key_Scan@State
  6184  06B5  01F3               	clrf	Key_Scan@State+1
  6185                           
  6186                           ;Key.c: 189: u8 i;
  6187                           ;Key.c: 191: (TRISD0=(0));
  6188  06B6  1683               	bsf	3,5	;RP0=1, select bank1
  6189  06B7  1008               	bcf	8,0
  6190                           
  6191                           ;Key.c: 192: (TRISD1=(0));
  6192  06B8  1088               	bcf	8,1
  6193                           
  6194                           ;Key.c: 193: (TRISD2=(0));
  6195  06B9  1108               	bcf	8,2
  6196                           
  6197                           ;Key.c: 194: (TRISD3=(0));
  6198  06BA  1188               	bcf	8,3
  6199                           
  6200                           ;Key.c: 195: (TRISD4=(1));
  6201  06BB  1608               	bsf	8,4
  6202                           
  6203                           ;Key.c: 196: (TRISD5=(1));
  6204  06BC  1688               	bsf	8,5
  6205                           
  6206                           ;Key.c: 197: (TRISD6=(1));
  6207  06BD  1708               	bsf	8,6
  6208                           
  6209                           ;Key.c: 199: (RD0=(1));
  6210  06BE  1283               	bcf	3,5	;RP0=0, select bank0
  6211  06BF  1408               	bsf	8,0
  6212                           
  6213                           ;Key.c: 200: (RD1=(0));
  6214  06C0  1088               	bcf	8,1
  6215                           
  6216                           ;Key.c: 201: (RD2=(0));
  6217  06C1  1108               	bcf	8,2
  6218                           
  6219                           ;Key.c: 202: (RD3=(0));
  6220  06C2  1188               	bcf	8,3
  6221                           
  6222                           ;Key.c: 203: for(i=0;i<20;i++)
  6223  06C3  01F4               	clrf	Key_Scan@i
  6224  06C4                     i1l14563:	
  6225  06C4  3014               	movlw	20
  6226                           
  6227                           ;Key.c: 204: {}
  6228  06C5  0AF4               	incf	Key_Scan@i,f
  6229  06C6  0274               	subwf	Key_Scan@i,w
  6230  06C7  1C03               	skipc
  6231  06C8  2EC4               	goto	i1l14563
  6232                           
  6233                           ;Key.c: 205: if((RD4))
  6234  06C9  1A08               	btfsc	8,4
  6235                           
  6236                           ;Key.c: 206: ((State) |= (0x1<<(0)));
  6237  06CA  1472               	bsf	Key_Scan@State,0
  6238                           
  6239                           ;Key.c: 207: if((RD5))
  6240  06CB  1A88               	btfsc	8,5
  6241                           
  6242                           ;Key.c: 208: ((State) |= (0x1<<(1)));
  6243  06CC  14F2               	bsf	Key_Scan@State,1
  6244                           
  6245                           ;Key.c: 209: if((RD6))
  6246  06CD  1B08               	btfsc	8,6
  6247                           
  6248                           ;Key.c: 210: ((State) |= (0x1<<(2)));
  6249  06CE  1572               	bsf	Key_Scan@State,2
  6250                           
  6251                           ;Key.c: 212: (RD1=(1));
  6252  06CF  1488               	bsf	8,1
  6253                           
  6254                           ;Key.c: 213: (RD0=(0));
  6255  06D0  1008               	bcf	8,0
  6256                           
  6257                           ;Key.c: 214: (RD2=(0));
  6258  06D1  1108               	bcf	8,2
  6259                           
  6260                           ;Key.c: 215: (RD3=(0));
  6261  06D2  1188               	bcf	8,3
  6262                           
  6263                           ;Key.c: 216: for(i=0;i<20;i++)
  6264  06D3  01F4               	clrf	Key_Scan@i
  6265  06D4                     i1l14579:	
  6266  06D4  3014               	movlw	20
  6267                           
  6268                           ;Key.c: 217: {}
  6269  06D5  0AF4               	incf	Key_Scan@i,f
  6270  06D6  0274               	subwf	Key_Scan@i,w
  6271  06D7  1C03               	skipc
  6272  06D8  2ED4               	goto	i1l14579
  6273                           
  6274                           ;Key.c: 218: if((RD4))
  6275  06D9  1A08               	btfsc	8,4
  6276                           
  6277                           ;Key.c: 219: ((State) |= (0x1<<(3)));
  6278  06DA  15F2               	bsf	Key_Scan@State,3
  6279                           
  6280                           ;Key.c: 220: if((RD5))
  6281  06DB  1A88               	btfsc	8,5
  6282                           
  6283                           ;Key.c: 221: ((State) |= (0x1<<(4)));
  6284  06DC  1672               	bsf	Key_Scan@State,4
  6285                           
  6286                           ;Key.c: 222: if((RD6))
  6287  06DD  1B08               	btfsc	8,6
  6288                           
  6289                           ;Key.c: 223: ((State) |= (0x1<<(5)));
  6290  06DE  16F2               	bsf	Key_Scan@State,5
  6291                           
  6292                           ;Key.c: 225: (RD2=(1));
  6293  06DF  1508               	bsf	8,2
  6294                           
  6295                           ;Key.c: 226: (RD0=(0));
  6296  06E0  1008               	bcf	8,0
  6297                           
  6298                           ;Key.c: 227: (RD1=(0));
  6299  06E1  1088               	bcf	8,1
  6300                           
  6301                           ;Key.c: 228: (RD3=(0));
  6302  06E2  1188               	bcf	8,3
  6303                           
  6304                           ;Key.c: 229: for(i=0;i<20;i++)
  6305  06E3  01F4               	clrf	Key_Scan@i
  6306  06E4                     i1l14595:	
  6307  06E4  3014               	movlw	20
  6308                           
  6309                           ;Key.c: 230: {}
  6310  06E5  0AF4               	incf	Key_Scan@i,f
  6311  06E6  0274               	subwf	Key_Scan@i,w
  6312  06E7  1C03               	skipc
  6313  06E8  2EE4               	goto	i1l14595
  6314                           
  6315                           ;Key.c: 231: if((RD4))
  6316  06E9  1A08               	btfsc	8,4
  6317                           
  6318                           ;Key.c: 232: ((State) |= (0x1<<(6)));
  6319  06EA  1772               	bsf	Key_Scan@State,6
  6320                           
  6321                           ;Key.c: 233: if((RD5))
  6322  06EB  1A88               	btfsc	8,5
  6323                           
  6324                           ;Key.c: 234: ((State) |= (0x1<<(7)));
  6325  06EC  17F2               	bsf	Key_Scan@State,7
  6326                           
  6327                           ;Key.c: 235: if((RD6))
  6328  06ED  1B08               	btfsc	8,6
  6329                           
  6330                           ;Key.c: 236: ((State) |= (0x1<<(8)));
  6331  06EE  1473               	bsf	Key_Scan@State+1,0
  6332                           
  6333                           ;Key.c: 238: (RD3=(1));
  6334  06EF  1588               	bsf	8,3
  6335                           
  6336                           ;Key.c: 239: (RD0=(0));
  6337  06F0  1008               	bcf	8,0
  6338                           
  6339                           ;Key.c: 240: (RD1=(0));
  6340  06F1  1088               	bcf	8,1
  6341                           
  6342                           ;Key.c: 241: (RD2=(0));
  6343  06F2  1108               	bcf	8,2
  6344                           
  6345                           ;Key.c: 242: for(i=0;i<20;i++)
  6346  06F3  01F4               	clrf	Key_Scan@i
  6347  06F4                     i1l14611:	
  6348  06F4  3014               	movlw	20
  6349                           
  6350                           ;Key.c: 243: {}
  6351  06F5  0AF4               	incf	Key_Scan@i,f
  6352  06F6  0274               	subwf	Key_Scan@i,w
  6353  06F7  1C03               	skipc
  6354  06F8  2EF4               	goto	i1l14611
  6355                           
  6356                           ;Key.c: 244: if((RD4))
  6357  06F9  1A08               	btfsc	8,4
  6358                           
  6359                           ;Key.c: 245: ((State) |= (0x1<<(9)));
  6360  06FA  14F3               	bsf	Key_Scan@State+1,1
  6361                           
  6362                           ;Key.c: 246: if((RD5))
  6363  06FB  1A88               	btfsc	8,5
  6364                           
  6365                           ;Key.c: 247: ((State) |= (0x1<<(10)));
  6366  06FC  1573               	bsf	Key_Scan@State+1,2
  6367                           
  6368                           ;Key.c: 248: if((RD6))
  6369  06FD  1B08               	btfsc	8,6
  6370                           
  6371                           ;Key.c: 249: ((State) |= (0x1<<(11)));
  6372  06FE  15F3               	bsf	Key_Scan@State+1,3
  6373                           
  6374                           ;Key.c: 251: (RD0=(0));
  6375  06FF  1008               	bcf	8,0
  6376                           
  6377                           ;Key.c: 252: (RD1=(0));
  6378  0700  1088               	bcf	8,1
  6379                           
  6380                           ;Key.c: 253: (RD2=(0));
  6381  0701  1108               	bcf	8,2
  6382                           
  6383                           ;Key.c: 254: (RD3=(0));
  6384  0702  1188               	bcf	8,3
  6385                           
  6386                           ;Key.c: 256: return State;
  6387  0703  0873               	movf	Key_Scan@State+1,w
  6388  0704  00F1               	movwf	?_Key_Scan+1
  6389  0705  0872               	movf	Key_Scan@State,w
  6390  0706  00F0               	movwf	?_Key_Scan
  6391  0707  0008               	return
  6392  0708                     __end_of_Key_Scan:	
  6393  0708                     __ptext691:	
  6394 ;; =============== function _Key_PutEvent ends ============
  6395                           
  6396                           
  6397 ;; *************** function _Key_Debounce *****************
  6398 ;; Defined at:
  6399 ;;		line 267 in file "Code/Driver/Key/Key.c"
  6400 ;; Parameters:    Size  Location     Type
  6401 ;;  KeyState        2    0[COMMON] unsigned short 
  6402 ;; Auto vars:     Size  Location     Type
  6403 ;;  TrigKey         2    4[COMMON] unsigned short 
  6404 ;; Return value:  Size  Location     Type
  6405 ;;                  2    0[COMMON] unsigned short 
  6406 ;; Registers used:
  6407 ;;		wreg, status,2, status,0
  6408 ;; Tracked objects:
  6409 ;;		On entry : 60/0
  6410 ;;		On exit  : 60/20
  6411 ;;		Unchanged: FFF9F/0
  6412 ;; Data sizes:     COMMON   BANK0   BANK1   BANK2
  6413 ;;      Params:         2       0       0       0
  6414 ;;      Locals:         2       0       0       0
  6415 ;;      Temps:          2       0       0       0
  6416 ;;      Totals:         6       0       0       0
  6417 ;;Total ram usage:        6 bytes
  6418 ;; Hardware stack levels used:    1
  6419 ;; This function calls:
  6420 ;;		Nothing
  6421 ;; This function is called by:
  6422 ;;		_IRQ
  6423 ;; This function uses a non-reentrant model
  6424 ;;
  6425  0708                     _Key_Debounce:	
  6426                           
  6427                           ;Key.c: 269: static u16 KeyStateBuf = 0x0000;
  6428                           ;Key.c: 270: static u16 ContKey = 0x0000;
  6429                           ;Key.c: 271: static u16 ContKeyBuf = 0x0000;
  6430                           ;Key.c: 272: static u8 ShortDebounce;
  6431                           ;Key.c: 273: static u16 LongDebounce;
  6432                           ;Key.c: 275: if(KeyState != KeyStateBuf)
  6433                           
  6434                           ; Regs used in _Key_Debounce: [wreg+status,2+status,0]
  6435  0708  1683               	bsf	3,5	;RP0=1, select bank1
  6436  0709  082D               	movf	(Key_Debounce@KeyStateBuf+1)^(0+128),w
  6437  070A  0671               	xorwf	Key_Debounce@KeyState+1,w
  6438  070B  1D03               	skipz
  6439  070C  2F0F               	goto	u186_25
  6440  070D  082C               	movf	Key_Debounce@KeyStateBuf^(0+128),w
  6441  070E  0670               	xorwf	Key_Debounce@KeyState,w
  6442  070F                     u186_25:	
  6443  070F  1903               	skipnz
  6444  0710  2F1B               	goto	i1l14639
  6445                           
  6446                           ;Key.c: 276: {
  6447                           ;Key.c: 277: KeyStateBuf = KeyState;
  6448  0711  0871               	movf	Key_Debounce@KeyState+1,w
  6449  0712  00AD               	movwf	(Key_Debounce@KeyStateBuf+1)^(0+128)
  6450  0713  0870               	movf	Key_Debounce@KeyState,w
  6451  0714  00AC               	movwf	Key_Debounce@KeyStateBuf^(0+128)
  6452                           
  6453                           ;Key.c: 278: ShortDebounce = 0;
  6454  0715  01FC               	clrf	Key_Debounce@ShortDebounce
  6455  0716  2F18               	goto	i1l14633
  6456  0717                     i1l14641:	
  6457                           
  6458                           ;Key.c: 282: {
  6459                           ;Key.c: 283: ShortDebounce++;
  6460  0717  0AFC               	incf	Key_Debounce@ShortDebounce,f
  6461  0718                     i1l14633:	
  6462                           
  6463                           ;Key.c: 279: return 0;
  6464  0718  01F0               	clrf	?_Key_Debounce
  6465  0719  01F1               	clrf	?_Key_Debounce+1
  6466  071A  0008               	return
  6467  071B                     i1l14639:	
  6468                           
  6469                           ;Key.c: 281: else if(ShortDebounce < 5)
  6470  071B  3005               	movlw	5
  6471  071C  027C               	subwf	Key_Debounce@ShortDebounce,w
  6472  071D  1C03               	btfss	3,0
  6473  071E  2F17               	goto	i1l14641
  6474                           
  6475                           ;Key.c: 286: else
  6476                           ;Key.c: 287: {
  6477                           ;Key.c: 289: KeyState = KeyStateBuf^0xffff;
  6478  071F  082D               	movf	(Key_Debounce@KeyStateBuf+1)^(0+128),w
  6479  0720  00F3               	movwf	??_Key_Debounce+1
  6480  0721  082C               	movf	Key_Debounce@KeyStateBuf^(0+128),w
  6481  0722  00F2               	movwf	??_Key_Debounce
  6482  0723  09F2               	comf	??_Key_Debounce,f
  6483  0724  09F3               	comf	??_Key_Debounce+1,f
  6484  0725  0872               	movf	??_Key_Debounce,w
  6485  0726  00F0               	movwf	Key_Debounce@KeyState
  6486  0727  0873               	movf	??_Key_Debounce+1,w
  6487  0728  00F1               	movwf	Key_Debounce@KeyState+1
  6488                           
  6489                           ;Key.c: 290: TrigKey = KeyState&(KeyState^ContKey);
  6490  0729  082A               	movf	Key_Debounce@ContKey^(0+128),w
  6491  072A  0670               	xorwf	Key_Debounce@KeyState,w
  6492  072B  00F2               	movwf	??_Key_Debounce
  6493  072C  082B               	movf	(Key_Debounce@ContKey+1)^(0+128),w
  6494  072D  0671               	xorwf	Key_Debounce@KeyState+1,w
  6495  072E  00F3               	movwf	??_Key_Debounce+1
  6496  072F  0870               	movf	Key_Debounce@KeyState,w
  6497  0730  0572               	andwf	??_Key_Debounce,w
  6498  0731  00F4               	movwf	Key_Debounce@TrigKey
  6499  0732  0871               	movf	Key_Debounce@KeyState+1,w
  6500  0733  0573               	andwf	??_Key_Debounce+1,w
  6501  0734  00F5               	movwf	Key_Debounce@TrigKey+1
  6502                           
  6503                           ;Key.c: 291: ContKey = KeyState;
  6504  0735  0871               	movf	Key_Debounce@KeyState+1,w
  6505  0736  00AB               	movwf	(Key_Debounce@ContKey+1)^(0+128)
  6506  0737  0870               	movf	Key_Debounce@KeyState,w
  6507  0738  00AA               	movwf	Key_Debounce@ContKey^(0+128)
  6508                           
  6509                           ;Key.c: 294: return TrigKey;
  6510  0739  0875               	movf	Key_Debounce@TrigKey+1,w
  6511  073A  00F1               	movwf	?_Key_Debounce+1
  6512  073B  0874               	movf	Key_Debounce@TrigKey,w
  6513  073C  00F0               	movwf	?_Key_Debounce
  6514  073D  0008               	return
  6515  073E                     __end_of_Key_Debounce:	
  6516  073E                     __ptext690:	
  6517 ;; =============== function _IRQ ends ============
  6518                           
  6519                           
  6520 ;; *************** function _Key_PutEvent *****************
  6521 ;; Defined at:
  6522 ;;		line 64 in file "Code/Driver/Key/Key.c"
  6523 ;; Parameters:    Size  Location     Type
  6524 ;;  KeyValue        2    0[COMMON] unsigned short 
  6525 ;; Auto vars:     Size  Location     Type
  6526 ;;  temp            1    2[COMMON] unsigned char 
  6527 ;; Return value:  Size  Location     Type
  6528 ;;		None               void
  6529 ;; Registers used:
  6530 ;;		wreg, fsr0l, fsr0h, status,2, status,0
  6531 ;; Tracked objects:
  6532 ;;		On entry : 60/20
  6533 ;;		On exit  : 60/20
  6534 ;;		Unchanged: FFE9F/0
  6535 ;; Data sizes:     COMMON   BANK0   BANK1   BANK2
  6536 ;;      Params:         2       0       0       0
  6537 ;;      Locals:         1       0       0       0
  6538 ;;      Temps:          0       0       0       0
  6539 ;;      Totals:         3       0       0       0
  6540 ;;Total ram usage:        3 bytes
  6541 ;; Hardware stack levels used:    1
  6542 ;; This function calls:
  6543 ;;		Nothing
  6544 ;; This function is called by:
  6545 ;;		_IRQ
  6546 ;; This function uses a non-reentrant model
  6547 ;;
  6548  073E                     _Key_PutEvent:	
  6549                           
  6550                           ;Key.c: 65: u8 temp;
  6551                           ;Key.c: 67: switch(KeyValue)
  6552                           
  6553                           ; Regs used in _Key_PutEvent: [wreg-fsr0h+status,2+status,0]
  6554  073E  2F63               	goto	i1l14703
  6555  073F                     i1l6019:	
  6556                           ;Key.c: 68: {
  6557                           ;Key.c: 69: case 0x0200:
  6558                           
  6559                           
  6560                           ;Key.c: 70: temp = EVENT_KEYUPS;
  6561  073F  01F2               	clrf	Key_PutEvent@temp
  6562  0740  0AF2               	incf	Key_PutEvent@temp,f
  6563                           
  6564                           ;Key.c: 71: break;
  6565  0741  2FDF               	goto	i1l14705
  6566  0742                     i1l14655:	
  6567                           
  6568                           ;Key.c: 74: temp = EVENT_KEYUPL;
  6569  0742  3002               	movlw	2
  6570  0743  2F61               	goto	L33
  6571  0744                     i1l14657:	
  6572                           ;Key.c: 75: break;
  6573                           
  6574                           
  6575                           ;Key.c: 78: temp = EVENT_KEYDOWNS;
  6576  0744  3003               	movlw	3
  6577  0745  2F61               	goto	L33
  6578  0746                     i1l14659:	
  6579                           ;Key.c: 79: break;
  6580                           
  6581                           
  6582                           ;Key.c: 82: temp = EVENT_KEYDOWNL;
  6583  0746  3004               	movlw	4
  6584  0747  2F61               	goto	L33
  6585  0748                     i1l14661:	
  6586                           ;Key.c: 83: break;
  6587                           
  6588                           
  6589                           ;Key.c: 86: temp = EVENT_KEYLEFTS;
  6590  0748  3005               	movlw	5
  6591  0749  2F61               	goto	L33
  6592  074A                     i1l14663:	
  6593                           ;Key.c: 87: break;
  6594                           
  6595                           
  6596                           ;Key.c: 90: temp = EVENT_KEYLEFTL;
  6597  074A  3006               	movlw	6
  6598  074B  2F61               	goto	L33
  6599  074C                     i1l14665:	
  6600                           ;Key.c: 91: break;
  6601                           
  6602                           
  6603                           ;Key.c: 94: temp = EVENT_KEYSETUPS;
  6604  074C  300D               	movlw	13
  6605  074D  2F61               	goto	L33
  6606  074E                     i1l14667:	
  6607                           ;Key.c: 95: break;
  6608                           
  6609                           
  6610                           ;Key.c: 98: temp = EVENT_KEYSETUPL;
  6611  074E  300E               	movlw	14
  6612  074F  2F61               	goto	L33
  6613  0750                     i1l14669:	
  6614                           ;Key.c: 99: break;
  6615                           
  6616                           
  6617                           ;Key.c: 102: temp = EVENT_KEYMINUSS;
  6618  0750  300B               	movlw	11
  6619  0751  2F61               	goto	L33
  6620  0752                     i1l14671:	
  6621                           ;Key.c: 103: break;
  6622                           
  6623                           
  6624                           ;Key.c: 106: temp = EVENT_KEYMINUSL;
  6625  0752  300C               	movlw	12
  6626  0753  2F61               	goto	L33
  6627  0754                     i1l14673:	
  6628                           ;Key.c: 107: break;
  6629                           
  6630                           
  6631                           ;Key.c: 110: temp = EVENT_KEYRIGHTS;
  6632  0754  3007               	movlw	7
  6633  0755  2F61               	goto	L33
  6634  0756                     i1l14675:	
  6635                           ;Key.c: 111: break;
  6636                           
  6637                           
  6638                           ;Key.c: 114: temp = EVENT_KEYRIGHTL;
  6639  0756  3008               	movlw	8
  6640  0757  2F61               	goto	L33
  6641  0758                     i1l14677:	
  6642                           ;Key.c: 115: break;
  6643                           
  6644                           
  6645                           ;Key.c: 118: temp = EVENT_NONE;
  6646  0758  01F2               	clrf	Key_PutEvent@temp
  6647                           
  6648                           ;Key.c: 119: break;
  6649  0759  2FDF               	goto	i1l14705
  6650  075A                     i1l14681:	
  6651                           
  6652                           ;Key.c: 126: temp = EVENT_KEYENTERS;
  6653  075A  300F               	movlw	15
  6654  075B  2F61               	goto	L33
  6655  075C                     i1l14683:	
  6656                           ;Key.c: 127: break;
  6657                           
  6658                           
  6659                           ;Key.c: 130: temp = EVENT_KEYENTERL;
  6660  075C  3010               	movlw	16
  6661  075D  2F61               	goto	L33
  6662  075E                     i1l14685:	
  6663                           ;Key.c: 131: break;
  6664                           
  6665                           
  6666                           ;Key.c: 134: temp = EVENT_KEYPLUSS;
  6667  075E  3009               	movlw	9
  6668  075F  2F61               	goto	L33
  6669  0760                     i1l14687:	
  6670                           ;Key.c: 135: break;
  6671                           
  6672                           
  6673                           ;Key.c: 138: temp = EVENT_KEYPLUSL;
  6674  0760  300A               	movlw	10
  6675  0761                     L33:	
  6676  0761  00F2               	movwf	Key_PutEvent@temp
  6677                           
  6678                           ;Key.c: 139: break;
  6679  0762  2FDF               	goto	i1l14705
  6680  0763                     i1l14703:	
  6681                           
  6682                           ; Switch on 2 bytes has been partitioned into a top level switch of size 1, and 10 sub-s
      +                          witches
  6683                           ; Switch size 1, requested type "space"
  6684                           ; Number of cases is 10, Range of values is 0 to 136
  6685                           ; switch strategies available:
  6686                           ; Name         Instructions Cycles
  6687                           ; simple_byte           31    16 (average)
  6688                           ; jumptable            260     6 (fixed)
  6689                           ; rangetable           141     6 (fixed)
  6690                           ; spacedrange          280     9 (fixed)
  6691                           ; locatedrange         137     3 (fixed)
  6692                           ;	Chosen strategy is simple_byte
  6693  0763  0871               	movf	Key_PutEvent@KeyValue+1,w
  6694  0764  3A00               	xorlw	0	; case 0
  6695  0765  1903               	skipnz
  6696  0766  2F83               	goto	i1l15867
  6697  0767  3A01               	xorlw	1	; case 1
  6698  0768  1903               	skipnz
  6699  0769  2F9D               	goto	i1l15869
  6700  076A  3A03               	xorlw	3	; case 2
  6701  076B  1903               	skipnz
  6702  076C  2FA2               	goto	i1l15871
  6703  076D  3A06               	xorlw	6	; case 4
  6704  076E  1903               	skipnz
  6705  076F  2FA7               	goto	i1l15873
  6706  0770  3A0C               	xorlw	12	; case 8
  6707  0771  1903               	skipnz
  6708  0772  2FAC               	goto	i1l15875
  6709  0773  3A88               	xorlw	136	; case 128
  6710  0774  1903               	skipnz
  6711  0775  2FB1               	goto	i1l15877
  6712  0776  3A01               	xorlw	1	; case 129
  6713  0777  1903               	skipnz
  6714  0778  2FCB               	goto	i1l15879
  6715  0779  3A03               	xorlw	3	; case 130
  6716  077A  1903               	skipnz
  6717  077B  2FD0               	goto	i1l15881
  6718  077C  3A06               	xorlw	6	; case 132
  6719  077D  1903               	skipnz
  6720  077E  2FD5               	goto	i1l15883
  6721  077F  3A0C               	xorlw	12	; case 136
  6722  0780  1903               	skipnz
  6723  0781  2FDA               	goto	i1l15885
  6724  0782  2FED               	goto	i1l6045
  6725  0783                     i1l15867:	
  6726                           
  6727                           ; Switch size 1, requested type "space"
  6728                           ; Number of cases is 8, Range of values is 1 to 128
  6729                           ; switch strategies available:
  6730                           ; Name         Instructions Cycles
  6731                           ; simple_byte           25    13 (average)
  6732                           ; direct_byte          266    10 (fixed)
  6733                           ; jumptable            263     9 (fixed)
  6734                           ;	Chosen strategy is simple_byte
  6735  0783  0870               	movf	Key_PutEvent@KeyValue,w
  6736  0784  3A01               	xorlw	1	; case 1
  6737  0785  1903               	skipnz
  6738  0786  2F48               	goto	i1l14661
  6739  0787  3A03               	xorlw	3	; case 2
  6740  0788  1903               	skipnz
  6741  0789  2F5A               	goto	i1l14681
  6742  078A  3A06               	xorlw	6	; case 4
  6743  078B  1903               	skipnz
  6744  078C  2F58               	goto	i1l14677
  6745  078D  3A0C               	xorlw	12	; case 8
  6746  078E  1903               	skipnz
  6747  078F  2F44               	goto	i1l14657
  6748  0790  3A18               	xorlw	24	; case 16
  6749  0791  1903               	skipnz
  6750  0792  2F54               	goto	i1l14673
  6751  0793  3A30               	xorlw	48	; case 32
  6752  0794  1903               	skipnz
  6753  0795  2F58               	goto	i1l14677
  6754  0796  3A60               	xorlw	96	; case 64
  6755  0797  1903               	skipnz
  6756  0798  2F58               	goto	i1l14677
  6757  0799  3AC0               	xorlw	192	; case 128
  6758  079A  1903               	skipnz
  6759  079B  2F50               	goto	i1l14669
  6760  079C  2FED               	goto	i1l6045
  6761  079D                     i1l15869:	
  6762                           
  6763                           ; Switch size 1, requested type "space"
  6764                           ; Number of cases is 1, Range of values is 0 to 0
  6765                           ; switch strategies available:
  6766                           ; Name         Instructions Cycles
  6767                           ; simple_byte            4     3 (average)
  6768                           ; direct_byte            9     7 (fixed)
  6769                           ; jumptable            260     6 (fixed)
  6770                           ; rangetable             5     6 (fixed)
  6771                           ; spacedrange            8     9 (fixed)
  6772                           ; locatedrange           1     3 (fixed)
  6773                           ;	Chosen strategy is simple_byte
  6774  079D  0870               	movf	Key_PutEvent@KeyValue,w
  6775  079E  3A00               	xorlw	0	; case 0
  6776  079F  1903               	skipnz
  6777  07A0  2F58               	goto	i1l14677
  6778  07A1  2FED               	goto	i1l6045
  6779  07A2                     i1l15871:	
  6780                           
  6781                           ; Switch size 1, requested type "space"
  6782                           ; Number of cases is 1, Range of values is 0 to 0
  6783                           ; switch strategies available:
  6784                           ; Name         Instructions Cycles
  6785                           ; simple_byte            4     3 (average)
  6786                           ; direct_byte            9     7 (fixed)
  6787                           ; jumptable            260     6 (fixed)
  6788                           ; rangetable             5     6 (fixed)
  6789                           ; spacedrange            8     9 (fixed)
  6790                           ; locatedrange           1     3 (fixed)
  6791                           ;	Chosen strategy is simple_byte
  6792  07A2  0870               	movf	Key_PutEvent@KeyValue,w
  6793  07A3  3A00               	xorlw	0	; case 0
  6794  07A4  1903               	skipnz
  6795  07A5  2F3F               	goto	i1l6019
  6796  07A6  2FED               	goto	i1l6045
  6797  07A7                     i1l15873:	
  6798                           
  6799                           ; Switch size 1, requested type "space"
  6800                           ; Number of cases is 1, Range of values is 0 to 0
  6801                           ; switch strategies available:
  6802                           ; Name         Instructions Cycles
  6803                           ; simple_byte            4     3 (average)
  6804                           ; direct_byte            9     7 (fixed)
  6805                           ; jumptable            260     6 (fixed)
  6806                           ; rangetable             5     6 (fixed)
  6807                           ; spacedrange            8     9 (fixed)
  6808                           ; locatedrange           1     3 (fixed)
  6809                           ;	Chosen strategy is simple_byte
  6810  07A7  0870               	movf	Key_PutEvent@KeyValue,w
  6811  07A8  3A00               	xorlw	0	; case 0
  6812  07A9  1903               	skipnz
  6813  07AA  2F4C               	goto	i1l14665
  6814  07AB  2FED               	goto	i1l6045
  6815  07AC                     i1l15875:	
  6816                           
  6817                           ; Switch size 1, requested type "space"
  6818                           ; Number of cases is 1, Range of values is 0 to 0
  6819                           ; switch strategies available:
  6820                           ; Name         Instructions Cycles
  6821                           ; simple_byte            4     3 (average)
  6822                           ; direct_byte            9     7 (fixed)
  6823                           ; jumptable            260     6 (fixed)
  6824                           ; rangetable             5     6 (fixed)
  6825                           ; spacedrange            8     9 (fixed)
  6826                           ; locatedrange           1     3 (fixed)
  6827                           ;	Chosen strategy is simple_byte
  6828  07AC  0870               	movf	Key_PutEvent@KeyValue,w
  6829  07AD  3A00               	xorlw	0	; case 0
  6830  07AE  1903               	skipnz
  6831  07AF  2F5E               	goto	i1l14685
  6832  07B0  2FED               	goto	i1l6045
  6833  07B1                     i1l15877:	
  6834                           
  6835                           ; Switch size 1, requested type "space"
  6836                           ; Number of cases is 8, Range of values is 1 to 128
  6837                           ; switch strategies available:
  6838                           ; Name         Instructions Cycles
  6839                           ; simple_byte           25    13 (average)
  6840                           ; direct_byte          266    10 (fixed)
  6841                           ; jumptable            263     9 (fixed)
  6842                           ;	Chosen strategy is simple_byte
  6843  07B1  0870               	movf	Key_PutEvent@KeyValue,w
  6844  07B2  3A01               	xorlw	1	; case 1
  6845  07B3  1903               	skipnz
  6846  07B4  2F4A               	goto	i1l14663
  6847  07B5  3A03               	xorlw	3	; case 2
  6848  07B6  1903               	skipnz
  6849  07B7  2F56               	goto	i1l14675
  6850  07B8  3A06               	xorlw	6	; case 4
  6851  07B9  1903               	skipnz
  6852  07BA  2F58               	goto	i1l14677
  6853  07BB  3A0C               	xorlw	12	; case 8
  6854  07BC  1903               	skipnz
  6855  07BD  2F5C               	goto	i1l14683
  6856  07BE  3A18               	xorlw	24	; case 16
  6857  07BF  1903               	skipnz
  6858  07C0  2F58               	goto	i1l14677
  6859  07C1  3A30               	xorlw	48	; case 32
  6860  07C2  1903               	skipnz
  6861  07C3  2F42               	goto	i1l14655
  6862  07C4  3A60               	xorlw	96	; case 64
  6863  07C5  1903               	skipnz
  6864  07C6  2F58               	goto	i1l14677
  6865  07C7  3AC0               	xorlw	192	; case 128
  6866  07C8  1903               	skipnz
  6867  07C9  2F58               	goto	i1l14677
  6868  07CA  2FED               	goto	i1l6045
  6869  07CB                     i1l15879:	
  6870                           
  6871                           ; Switch size 1, requested type "space"
  6872                           ; Number of cases is 1, Range of values is 0 to 0
  6873                           ; switch strategies available:
  6874                           ; Name         Instructions Cycles
  6875                           ; simple_byte            4     3 (average)
  6876                           ; direct_byte            9     7 (fixed)
  6877                           ; jumptable            260     6 (fixed)
  6878                           ; rangetable             5     6 (fixed)
  6879                           ; spacedrange            8     9 (fixed)
  6880                           ; locatedrange           1     3 (fixed)
  6881                           ;	Chosen strategy is simple_byte
  6882  07CB  0870               	movf	Key_PutEvent@KeyValue,w
  6883  07CC  3A00               	xorlw	0	; case 0
  6884  07CD  1903               	skipnz
  6885  07CE  2F4E               	goto	i1l14667
  6886  07CF  2FED               	goto	i1l6045
  6887  07D0                     i1l15881:	
  6888                           
  6889                           ; Switch size 1, requested type "space"
  6890                           ; Number of cases is 1, Range of values is 0 to 0
  6891                           ; switch strategies available:
  6892                           ; Name         Instructions Cycles
  6893                           ; simple_byte            4     3 (average)
  6894                           ; direct_byte            9     7 (fixed)
  6895                           ; jumptable            260     6 (fixed)
  6896                           ; rangetable             5     6 (fixed)
  6897                           ; spacedrange            8     9 (fixed)
  6898                           ; locatedrange           1     3 (fixed)
  6899                           ;	Chosen strategy is simple_byte
  6900  07D0  0870               	movf	Key_PutEvent@KeyValue,w
  6901  07D1  3A00               	xorlw	0	; case 0
  6902  07D2  1903               	skipnz
  6903  07D3  2F46               	goto	i1l14659
  6904  07D4  2FED               	goto	i1l6045
  6905  07D5                     i1l15883:	
  6906                           
  6907                           ; Switch size 1, requested type "space"
  6908                           ; Number of cases is 1, Range of values is 0 to 0
  6909                           ; switch strategies available:
  6910                           ; Name         Instructions Cycles
  6911                           ; simple_byte            4     3 (average)
  6912                           ; direct_byte            9     7 (fixed)
  6913                           ; jumptable            260     6 (fixed)
  6914                           ; rangetable             5     6 (fixed)
  6915                           ; spacedrange            8     9 (fixed)
  6916                           ; locatedrange           1     3 (fixed)
  6917                           ;	Chosen strategy is simple_byte
  6918  07D5  0870               	movf	Key_PutEvent@KeyValue,w
  6919  07D6  3A00               	xorlw	0	; case 0
  6920  07D7  1903               	skipnz
  6921  07D8  2F52               	goto	i1l14671
  6922  07D9  2FED               	goto	i1l6045
  6923  07DA                     i1l15885:	
  6924                           
  6925                           ; Switch size 1, requested type "space"
  6926                           ; Number of cases is 1, Range of values is 0 to 0
  6927                           ; switch strategies available:
  6928                           ; Name         Instructions Cycles
  6929                           ; simple_byte            4     3 (average)
  6930                           ; direct_byte            9     7 (fixed)
  6931                           ; jumptable            260     6 (fixed)
  6932                           ; rangetable             5     6 (fixed)
  6933                           ; spacedrange            8     9 (fixed)
  6934                           ; locatedrange           1     3 (fixed)
  6935                           ;	Chosen strategy is simple_byte
  6936  07DA  0870               	movf	Key_PutEvent@KeyValue,w
  6937  07DB  3A00               	xorlw	0	; case 0
  6938  07DC  1903               	skipnz
  6939  07DD  2F60               	goto	i1l14687
  6940  07DE  2FED               	goto	i1l6045
  6941  07DF                     i1l14705:	
  6942                           
  6943                           ;Key.c: 170: if(st_Event_EventMage.FiFoHead == (st_Event_EventMage.FiFoTail+1)%8)
  6944  07DF  0A29               	incf	(_st_Event_EventMage^(0+128)+9),w
  6945  07E0  3907               	andlw	7
  6946  07E1  0628               	xorwf	(_st_Event_EventMage^(0+128)+8),w
  6947  07E2  1903               	btfsc	3,2
  6948  07E3  0008               	return
  6949                           
  6950                           ;Key.c: 173: }
  6951                           ;Key.c: 174: st_Event_EventMage.EventFiFo[st_Event_EventMage.FiFoTail] = temp;
  6952  07E4  0829               	movf	(_st_Event_EventMage^(0+128)+9),w
  6953  07E5  3EA0               	addlw	_st_Event_EventMage& (0+255)
  6954  07E6  0084               	movwf	4
  6955  07E7  0872               	movf	Key_PutEvent@temp,w
  6956  07E8  1383               	bcf	3,7	;select IRP bank1
  6957  07E9  0080               	movwf	0
  6958  07EA  3007               	movlw	7
  6959                           
  6960                           ;Key.c: 175: st_Event_EventMage.FiFoTail = (++st_Event_EventMage.FiFoTail)%8;
  6961  07EB  0AA9               	incf	(_st_Event_EventMage^(0+128)+9),f
  6962  07EC  05A9               	andwf	(_st_Event_EventMage^(0+128)+9),f
  6963  07ED                     i1l6045:	
  6964  07ED  0008               	return
  6965  07EE                     __end_of_Key_PutEvent:	
  6966                           
  6967                           	psect	intentry
  6968  0004                     __pintentry:	
  6969                           ; Regs used in _IRQ: [wreg-fsr0h+status,2+status,0+pclath+cstack]
  6970                           
  6971  0004                     interrupt_function:	
  6972  007E                     saved_w	set	btemp
  6973  0004  00FE               	movwf	btemp
  6974  0005  0E03               	swapf	3,w
  6975  0006  00F6               	movwf	??_IRQ
  6976  0007  0804               	movf	4,w
  6977  0008  00F7               	movwf	??_IRQ+1
  6978  0009  080A               	movf	10,w
  6979  000A  00F8               	movwf	??_IRQ+2
  6980  000B  118A  2E86         	ljmp	_IRQ
  6981                           
  6982                           	psect	text693
  6983  0000                     __ptext693:	
  6984 ;; =============== function _Key_Scan ends ============
  6985                           
  6986  007E                     btemp	set	126	;btemp
  6987  007E                     wtemp0	set	126


HI-TECH Software PICC Macro Assembler V9.83 build 10920 
Symbol Table                                                                                   Tue Nov 04 00:50:58 2014

               ?_Key_GetEvent 0070                             pc 0002                ___bmul@product 0021  
                          _RD 0C60                            _WR 0C61                  ___awdiv@sign 0025  
                          fsr 0004           ___wmul@multiplicand 0022                           _GIE 005F  
                         _RD0 0040                           _RD1 0041                           _RE0 0048  
                         _RD2 0042                           _RE1 0049                           _RD3 0043  
                         _RE2 004A                           _RD4 0044                           _RD5 0045  
                         _RD6 0046                           _PS0 0408                           _PS1 0409  
                         _PS2 040A                           _IRQ 0686                           _SCS 0478  
                         _PSA 040B    __end_of_BspEeprom_GetParam 0FF5                           fsr0 0004  
                         indf 0000     __end_of_BspSystem_TmrInit 0CB9                          ?_IRQ 0070  
               ?_Key_PutEvent 0070                          l4511 0FCA                          l4505 0000  
                        l4521 0000                          l4493 0F27                          l4498 0F4D  
                        l2997 0000                          l7601 0000                          l7610 0000  
                        l9203 00F7                          l9204 0112                          l7613 0000  
                        l7621 0000                          l9205 0000                          l7607 0000  
                        l9136 0000                          l9152 0400                          l7624 0000  
                        l9162 0000                          l9147 03DC                          l9156 0423  
                        l7582 0000                          l9174 0000                          l9239 0000  
                        l7585 0575                          l9177 0595                          l9186 0000  
                        l7587 0000                          l7596 0000                          l9286 0000  
                        l7599 05BC                          _EEIF 0067                          STR_1 08BA  
                        STR_2 0900                          STR_3 08F3                          STR_4 08CB  
                        STR_5 08E6                          STR_6 08ED                          STR_7 08D9  
                        STR_8 08E0                          STR_9 0915                          _T0IE 005D  
                        _T0IF 005A                          _T0CS 040D                          u2060 0586  
                        u2325 032A                          u2505 0489                          u2285 051B  
                        u2455 0558                          u2495 047F                          _TMR0 0001  
                        _WREN 0C62           __end_of_Lcd_StrDisp 037E                          _main 0D13  
                        btemp 007E                          start 000D                ??_Key_Debounce 0072  
           ___bmul@multiplier 0022             LcdMenu_CharMasK@i 0026             LcdMenu_CharMasK@j 0025  
              ??_Key_GetEvent 0020                         ??_IRQ 0076                         l12252 0000  
                       l12405 0000                  myitoa@nCount 0038                         l12258 0000  
                       l12268 0000                         l15013 0000                         l12285 0348  
                       l15021 0000                         l15101 056E                         l12278 0000  
                       l12294 0000                         l15007 0324                         l15015 0337  
                       l15023 0000                  myitoa@nIndex 003A                         l12288 0000  
                       l15033 0000                         l15025 0342                         l15105 0000  
                       l15121 0000                         l15201 0000                         l15019 0000  
                       l15051 0000                         l15043 0000                         l15123 049F  
                       l15107 0000                         l15211 0430                         l15203 0000  
                       l15037 0000                         l15029 0000                         l15045 0000  
                       l15061 0000                         l15133 04DF                         l15125 04A3  
                       l15109 0000                         l15141 0000                         l15213 0000  
                       l15301 0000                         l15039 0355                         l15055 0314  
                       l15047 0300                         l15063 0000                         l15127 0000  
                       l15119 0000                         l15135 04FA                         l15143 0000  
                       l15207 0000                         l15151 0000                         l15311 0000  
                       l15303 0000                         l15057 0000                         l15049 0000  
                       l15073 0000                         l15145 0000                         l15217 043E  
                       l15209 0000                         l15225 044A                         l15161 0000  
                       l15153 0000                         l15241 0000                         l15233 0000  
                       l15321 0000                         l15305 0000                         l15401 0000  
                       l15091 0000                         l15075 0541                         l15067 0000  
                       l15139 0000                         l15147 0000                         l15219 0000  
                       l15227 0461                         l15171 0000                         l15163 0000  
                       l15155 0000                         l15251 0000                         l15243 0000  
                       l15235 0000                         l15323 0000                         l15315 0000  
                       l15307 0000                         l15411 0000                         l15403 0000  
                       l15331 0000                         l15085 054F                         l15077 0000  
                       l15069 0538                         l15149 0000                         l15181 0000  
                       l15173 03D8                         l15165 03B9                         l15229 0465  
                       l15245 0000                         l15237 0000                         l15253 0000  
                       l15261 0000                         l15317 0000                         l15309 0000  
                       l15421 0000                         l15413 0000                         l15405 0000  
                       l15341 01AB                         l15333 019E                         l15325 0000  
                       l15501 0DB7                         l15095 0000                         l15087 0000  
                       l15183 03E9                         l15175 0000                         l15159 03AE  
                       l15247 0000                         l15239 0000                         l15263 0000  
                       l15319 0000                         l15271 0000                         l15431 0000  
                       l15423 0000                         l15415 02AB                         l15407 0000  
                       l15343 0000                         l15327 0000                         l15097 0566  
                       l15193 0000                         l15185 0000                         l15169 0000  
                       l15249 0000                         l15257 0000                         l15281 00A2  
                       l15273 0098                         l15265 0000                         l15425 0000  
                       l15417 0000                         l15513 0000                         l15441 0000  
                       l15601 0D60                         l14811 0FD5                         l14803 0000  
                       l15099 0000                         l15195 0000                         l15187 0000  
                       l15179 0000                         l15259 0371                         l15275 0000  
                       l15267 0000                         l15435 0000                         l15427 02D0  
                       l15419 0000                         l15371 01E1                         l15363 01CF  
                       l15355 01C2                         l15347 01B5                         l15339 01AA  
                       l15507 0DB8                         l15611 0D44                         l15603 0000  
                       l14805 0000                         l15197 040D                         l15189 0000  
                       l15277 0000                         l15437 0000                         l15429 0000  
                       l15381 01F9                         l15373 01E5                         l15365 01D0  
                       l15357 01C3                         l15349 01B6                         l15541 0E1A  
                       l15517 0000                         l15461 0D92                         l15453 0D89  
                       l15445 0000                         l15621 0D5A                         l15605 0D3C  
                       l14823 0000                         l14815 0000                         l14807 0FFA  
                       l14831 0000                         l15199 0000                         l15295 00B9  
                       l15287 00AE                         l15279 00A1                         l15439 02F8  
                       l15391 020F                         l15551 0000                         l15543 0E1B  
                       l15535 0E0F                         l15527 0DF1                         l15471 0DA2  
                       l15463 0D93                         l15455 0D8A                         l15447 0D7F  
                       l15615 0000                         l15607 0000                         l14761 0000  
                       l14817 0000                         l14841 0000                         l14905 0000  
                       l15297 0000                         l15289 00AF                         l15393 0000  
                       l15561 0000                         l15545 0E24                         l15473 0DA0  
                       l15457 0000                         l15617 0D4C                         l15625 0D68  
                       l14755 0000                         l14771 0000                         l14763 0000  
                       l14827 0000                         l14843 0000                         l15299 00BC  
                       l15395 0000                         l15387 0204                         l15379 01F4  
                       l15571 0E9C                         l15563 0000                         l15555 0000  
                       l15547 0000                         l15619 0D53                         l14757 0000  
                       l14829 0FC6                         l14861 0000                         l14917 0000  
                       l14909 0EFA                         l14925 0F1E                         l14941 0000  
                       l15397 0000                         l15389 0205                         l15581 0000  
                       l15573 0000                         l15565 0000                         l15557 0000  
                       l15549 0000                         l14759 0000                         l14791 0000  
                       l14783 0000                         l14775 0000                         l14767 0000  
                       l14839 0000                         l14855 0057                         l14871 0589  
                       l14927 0EEB                         l14935 0000                         l14951 0000  
                       l14943 0EDC                         l15399 0000                         l15583 0ED7  
                       l15575 0000                         l15567 0000                         l15559 0E61  
                       l15487 0DAF                         l15495 0DB6                         l15479 0DA3  
                       l15591 0000                         l14785 0000                         l14777 0000  
                       l14769 0000                         l14857 0000                         l14873 0000  
                       l14881 0000                         l14937 05BA                         l14929 0000  
                       l15569 0000                         l15489 0DB1                         l15593 0000  
                       l15585 0000                         l14779 0F47                         l14859 004B  
                       l14875 0000                         l14867 0000                         l14963 0388  
                       l15579 0000                         l15595 0000                         l15587 0000  
                       l14797 0F23                         l14877 0000                         l14869 0000  
                       l14949 0000                         l14965 0000                         l14957 0000  
                       l14973 0000                         l15597 0000                         l15589 0000  
                       l14799 0000                         l14879 0000                         l14967 0000  
                       l14959 0380                         l14983 0512                         l14975 0000  
                       l15599 0000                         l14889 0000                         l14993 0000  
                       l14985 0000                         l14899 0000                         l14995 0529  
                       l14989 0000                         l14999 0000                         ?_main 0070  
                myitoa@nValue 0036               __end_of___awdiv 0573               __end_of___lbdiv 0357  
                       _EEADR 010D                         STR_10 08A8                         STR_11 087E  
                       STR_12 0893                         STR_13 090C                         STR_14 0866  
                       STR_15 084C                         STR_16 0832               __end_of___lbmod 0318  
                       _EEPGD 0C67                         _ANSEL 0091               ___awdiv@divisor 0020  
                       _IRCF0 047C                         _IRCF1 047D                         _IRCF2 047E  
             __end_of___lwdiv 052E               __end_of___lwmod 033C               ___awdiv@counter 0024  
 __end_of_BspEeprom_SaveParam 0F63             ??_LcdMenu_Factory 0055         __end_of_Lcd_CheckBusy 05C5  
              ??_Key_PutEvent 0072          __end_of_Lcd_WriteCmd 03A8             ??_LcdMenu_VPrintf 0053  
               ??_ReceiveByte 0020                         pclath 000A             ??_LcdMenu_NumMasK 0021  
                       status 0003         __end_of_Lcd_ClrScreen 0011                         wtemp0 007E  
       __end_of_LcdMenu_Setup 02FC             ??_LcdMenu_Welcome 0054               ___lbdiv@divisor 0020  
             ___lbdiv@counter 0022              __end_of_Lcd_Init 004B                  __end_of_main 0D75  
            __end_of_Key_Scan 0708                        ??_main 006A              __end_of_SendByte 0593  
          __size_of_Lcd_Delay 0012                   _Lcd_StrDisp 0357    __size_of_BspSystem_TmrInit 0010  
           LcdMenu_VPrintf@d1 00E0             LcdMenu_VPrintf@d2 00E2                        _EEDATL 010C  
                      _EECON2 018D             LcdMenu_VPrintf@ch 00E4              ___awdiv@dividend 0022  
         Key_Debounce@ContKey 00AA                        i1l6019 073F                        i1l6045 07ED  
                      i1l6069 0000                        i1l2994 06AB                        u186_25 070F  
              _LcdMenu_Normal 005D                        _TRISD0 0440                        _TRISD1 0441  
                      _TRISE0 0448                        _TRISD2 0442                        _TRISE1 0449  
                      _TRISD3 0443                        _TRISE2 044A                        _TRISD4 0444  
                      _TRISD5 0445                        _TRISD6 0446             ?_LcdMenu_CharMasK 0020  
         Key_Debounce@TrigKey 0074           __end_of_ReceiveByte 05E8            ??_LcdMenu_CharMasK 0023  
     LcdMenu_VPrintf@pv_Start 00E6                        ___bmul 0EDA                        ___wmul 037E  
                   ??___awdiv 0024                     ??___lbdiv 0021                     ??___lbmod 0025  
                   ??___lwdiv 0024                     ??___lwmod 002B                    _SetupParam 00C6  
            ___awdiv@quotient 0026                        _myitoa 0474         __end_of_Lcd_WriteData 05F9  
                      clrloop 0CA2                 Key_Scan@State 0072                        saved_w 007E  
        __end_of_Key_Debounce 073E          __end_of_Key_GetEvent 0CCC        __end_of_LcdMenu_Normal 0116  
                _FactoryParam 0144              ___lbdiv@dividend 0021               ___lbmod@divisor 0024  
             ___lbmod@counter 0027             __end_of_Lcd_Delay 005D                main@SystemMode 006C  
         ___bmul@multiplicand 0020                __pcstackCOMMON 0070           LcdMenu_CharMasK@Str 0022  
                __pidataBANK1 0000                  __pidataBANK2 0CEF          __end_of_Key_PutEvent 07EE  
            ___lbdiv@quotient 0023   BspEeprom_GetParam@StartAddr 0027          Key_PutEvent@KeyValue 0070  
       __size_of_Lcd_WriteCmd 0011                     ?_Lcd_Init 0070          BspEeprom_SaveParam@i 0028  
             ?_LcdMenu_Normal 0054       LcdMenu_CharMasK@StrMask 0020                    __pbssBANK0 006E  
                  __pbssBANK1 00A0                    __pbssBANK2 0144                     ?_Key_Scan 0070  
                 _ReceiveByte 05C5            _BspEeprom_GetParam 0FC4                     ?_SendByte 0070  
                  _main$14359 006A        LcdMenu_Normal@KeyEvent 005A           ?_BspEeprom_GetParam 0020  
                  __pmaintext 0D13                       ?___bmul 0020        LcdMenu_Normal@PaperNum 0054  
                     ?___wmul 0020                    __pintentry 0004                  _Lcd_WriteCmd 0397  
             _LcdMenu_Factory 0D75                       ?_myitoa 002C               _LcdMenu_VPrintf 03A8  
                     i1l14521 0000                       i1l14611 06F4                       i1l14523 0000  
                     i1l14515 0000                       i1l14621 0000                       i1l14613 0000  
                     i1l14605 0000                       i1l14541 0000                       i1l14533 06AA  
                     i1l14525 0000                       i1l14551 0000                       i1l14543 0000  
                     i1l14535 0000                       i1l14631 0000                       i1l14711 0000  
                     i1l14703 0763                       i1l14527 0000                       i1l14553 0000  
                     i1l14545 0000                       i1l14537 0000                       i1l14641 0717  
                     i1l14633 0718                       i1l14625 0000                       i1l14713 0000  
                     i1l14705 07DF                       i1l14529 0000                       i1l14563 06C4  
                     i1l14555 0000                       i1l14547 0000                       i1l14539 0000  
                     i1l14627 0000                       i1l14581 0000                       i1l14573 0000  
                     i1l14565 0000                       i1l14557 0000                       i1l14549 0000  
                     i1l14661 0748                       i1l14653 0000                       i1l14639 071B  
                     i1l14671 0752                       i1l14663 074A                       i1l14655 0742  
                     i1l14681 075A                       i1l14673 0754                       i1l14665 074C  
                     i1l14657 0744                       i1l14595 06E4                       i1l14579 06D4  
                     i1l14683 075C                       i1l14675 0756                       i1l14667 074E  
                     i1l14659 0746                       i1l14597 0000                       i1l14589 0000  
                     i1l14685 075E                       i1l14677 0758                       i1l14669 0750  
                     i1l14687 0760                       i1l15871 07A2                       i1l15881 07D0  
                     i1l15873 07A7                       i1l15883 07D5                       i1l15875 07AC  
                     i1l15867 0783                       i1l15885 07DA                       i1l15877 07B1  
                     i1l15869 079D                       i1l15879 07CB               _LcdMenu_NumMasK 0EE8  
        ??_BspEeprom_GetParam 0023              ReceiveByte@temp1 0021              ReceiveByte@temp2 0022  
        Key_Debounce@KeyState 0070               _LcdMenu_Welcome 0011                    ??_Lcd_Init 0026  
             _LcdMenu_StrTemp 00B2                    ??_Key_Scan 0072                    ??_SendByte 0020  
           Lcd_WriteCmd@Cbyte 0025          LcdMenu_VPrintf@p_Str 00E5                  ReceiveByte@i 0023  
        LcdMenu_VPrintf@index 00E7               __size_of___bmul 000E                       ___awdiv 052E  
                     ___lbdiv 033C                       ___lbmod 02FC               __size_of___wmul 0019  
                     ___lwdiv 0504                       ___lwmod 0318        BspEeprom_GetParam@Size 0022  
      BspEeprom_GetParam@pDes 0020         __size_of_Key_Debounce 0036               __size_of_myitoa 0090  
                IRQ@TimeBase0 0079                  __size_of_IRQ 002E         __size_of_Key_GetEvent 0013  
          LcdMenu_NumMasK@Str 0023                  ?_Lcd_StrDisp 0026       BspEeprom_SaveParam@Size 0022  
     BspEeprom_SaveParam@pSrc 0020                       main@Key 006D          end_of_initialization 0CEC  
__size_of_BspEeprom_SaveParam 0043                       init_ram 07F2         __size_of_Key_PutEvent 00B0  
            Key_PutEvent@temp 0072            LcdMenu_Normal@num1 0056            LcdMenu_Normal@num2 0057  
          LcdMenu_Normal@num3 0058            LcdMenu_Normal@num4 0059       __end_of_LcdMenu_Factory 0EDA  
                _Key_Debounce 0708                  _Key_GetEvent 0CB9       __end_of_LcdMenu_VPrintf 0474  
      __size_of_Lcd_CheckBusy 0009                  __pstringtext 0800       __end_of_LcdMenu_NumMasK 0F20  
          LcdMenu_Setup@Index 00AF       __end_of_LcdMenu_Welcome 0024     __size_of_LcdMenu_CharMasK 0029  
      __size_of_Lcd_ClrScreen 0002        __size_of_LcdMenu_Setup 01E6         LcdMenu_Factory@pParam 0054  
            ___lbmod@dividend 0026                  SendByte@temp 0021                  _Key_PutEvent 073E  
                   Key_Scan@i 0074                   ___lbmod@rem 0028                     _Lcd_Delay 004B  
                 myitoa@nTemp 0035                __end_of___bmul 0EE8                   myitoa@radix 002F  
              __end_of___wmul 0397              LcdMenu_Factory@i 0057              LcdMenu_Factory@j 0058  
                 myitoa@szMap 0120                   myitoa@value 002C           BspEeprom_GetParam@i 0029  
              __end_of_myitoa 0504              ??_LcdMenu_Normal 0056           start_initialization 0CCC  
                   SendByte@i 0022                   __end_of_IRQ 06B4                 _Lcd_CheckBusy 05BC  
           __size_of_Lcd_Init 0027                  ?_ReceiveByte 0070              LcdMenu_VPrintf@i 00E9  
           __size_of_Key_Scan 0054                 _Lcd_ClrScreen 000F                 _LcdMenu_Setup 0116  
      __size_of_Lcd_WriteData 0011                    IRQ@KeyTemp 007A              ?_LcdMenu_Factory 0054  
           __size_of_SendByte 0020                    ?_Lcd_Delay 0020                      ??___bmul 0021  
  BspEeprom_SaveParam@GIETemp 0026                      ??___wmul 0024              LcdMenu_NumMasK@i 0024  
            ?_LcdMenu_VPrintf 003D                   __pdataBANK1 00EA                   __pdataBANK2 0120  
            ?_LcdMenu_NumMasK 0020              ?_LcdMenu_Welcome 0070                      ??_myitoa 0031  
            LcdMenu_Setup@num 005D                   __pbssCOMMON 007C                 __pcstackBANK0 0020  
               __pcstackBANK1 00CC                ?_Lcd_CheckBusy 0070          __size_of_Lcd_StrDisp 0027  
     LcdMenu_Normal@FlashStop 00EB                ?_Lcd_ClrScreen 0070                ?_LcdMenu_Setup 0054  
             Key_GetEvent@key 0020              ___lwdiv@dividend 0022                      ?___awdiv 0020  
                    ?___lbdiv 0020                      ?___lbmod 0024                     __ptext661 0D75  
                   __ptext670 0397                     __ptext662 0116                     __ptext671 0474  
                   __ptext663 005D                     __ptext680 0593                     __ptext672 05BC  
                   __ptext664 0011                     __ptext681 0EE8                     __ptext673 052E  
                   __ptext665 000F                     __ptext690 073E                     __ptext682 05C5  
                   __ptext674 02FC                     __ptext666 0357                     __ptext691 0708  
                   __ptext683 0573                     __ptext675 033C                     __ptext667 0024  
                   __ptext692 06B4                     __ptext684 004B                     __ptext676 0318  
                   __ptext668 03A8                     __ptext693 0000                     __ptext685 0CB9  
                   __ptext677 0504                     __ptext669 05E8                     __ptext686 0FC4  
                   __ptext678 037E                     __ptext687 0F20                     __ptext679 0EDA  
                   __ptext688 0CA9                     __ptext689 0686                      ?___lwdiv 0020  
                    ?___lwmod 0027           _BspEeprom_SaveParam 0F20              _LcdMenu_CharMasK 0593  
               _Lcd_WriteData 05E8   __size_of_BspEeprom_GetParam 0031          LcdMenu_NumMasK@count 0022  
            ___lwdiv@quotient 0024        LcdMenu_Setup@FlashStop 00EC          ?_BspEeprom_SaveParam 0020  
           interrupt_function 0004                ___wmul@product 0024                   ??_Lcd_Delay 0022  
        LcdMenu_Factory@Index 006E            _st_Event_EventMage 00A0                   __stringbase 0812  
              ?_Lcd_WriteData 0070             ___wmul@multiplier 0020               ??_Lcd_CheckBusy 0024  
                    _Lcd_Init 0024        LcdMenu_NumMasK@MaskBit 0020                    myitoa@pStr 003C  
       ??_BspEeprom_SaveParam 0023               ??_Lcd_ClrScreen 0026               ??_LcdMenu_Setup 0055  
                    _Key_Scan 06B4  BspEeprom_SaveParam@StartAddr 0027                _u8_Timer_Flash 00B1  
       LcdMenu_VPrintf@StrBuf 00CC         LcdMenu_VPrintf@String 003D          __size_of_ReceiveByte 0023  
                    _SendByte 0573                  Lcd_StrDisp@s 0027                  Lcd_StrDisp@x 002B  
                Lcd_StrDisp@y 0026                     init_fetch 07EE            Lcd_WriteData@Dbyte 0025  
            __size_of___awdiv 0045              __size_of___lbdiv 001B              __size_of___lbmod 001C  
            __size_of___lwdiv 002A              __size_of___lwmod 0024               ___lwdiv@divisor 0020  
             ___lwdiv@counter 0026      LcdMenu_Factory@FlashStop 00EA       BspEeprom_GetParam@temp1 0026  
     BspEeprom_GetParam@temp2 0028           Lcd_StrDisp@addr_tab 0812                 __size_of_main 0062  
       LcdMenu_Setup@KeyEvent 0069                      clear_ram 0CA1   BspEeprom_SaveParam@ReadTemp 0025  
               ?_Lcd_WriteCmd 0070               ??_Lcd_WriteData 0025                     myitoa@str 002E  
                    intlevel1 0000           LcdMenu_Normal@Index 00AE              ___lwmod@dividend 0029  
    __end_of_LcdMenu_CharMasK 05BC       Key_Debounce@KeyStateBuf 00AC       LcdMenu_Factory@KeyEvent 0059  
                  Lcd_Delay@i 0022                     stringcode 080A                    Lcd_Delay@t 0020  
        LcdMenu_Setup@Section 00B0                ??_Lcd_WriteCmd 0025      __size_of_LcdMenu_Factory 0165  
             ___lwmod@divisor 0027      __size_of_LcdMenu_VPrintf 00CC               ___lwmod@counter 002B  
               ??_Lcd_StrDisp 0028     Key_Debounce@ShortDebounce 007C                      stringtab 0800  
    __size_of_LcdMenu_NumMasK 0038        LcdMenu_Factory@Section 006F      __size_of_LcdMenu_Welcome 0013  
           _BspSystem_TmrInit 0CA9           LcdMenu_Setup@pParam 0054            ?_BspSystem_TmrInit 0070  
     __size_of_LcdMenu_Normal 00B9                 SendByte@Dbyte 0020                 ?_Key_Debounce 0070  
         ??_BspSystem_TmrInit 0020  
